   1               		.file	"CDCClassDevice.c"
   2               	__SP_H__ = 0x3e
   3               	__SP_L__ = 0x3d
   4               	__SREG__ = 0x3f
   5               	__tmp_reg__ = 0
   6               	__zero_reg__ = 1
   7               		.text
   8               	.Ltext0:
   9               		.cfi_sections	.debug_frame
  10               		.section	.text.CDC_Device_ConfigureEndpoints,"ax",@progbits
  11               	.global	CDC_Device_ConfigureEndpoints
  13               	CDC_Device_ConfigureEndpoints:
  14               	.LFB100:
  15               		.file 1 "lufa-lib-svn/LUFA/Drivers/USB/Class/Device/CDCClassDevice.c"
   1:lufa-lib-svn/LUFA/Drivers/USB/Class/Device/CDCClassDevice.c **** /*
   2:lufa-lib-svn/LUFA/Drivers/USB/Class/Device/CDCClassDevice.c ****              LUFA Library
   3:lufa-lib-svn/LUFA/Drivers/USB/Class/Device/CDCClassDevice.c ****      Copyright (C) Dean Camera, 2011.
   4:lufa-lib-svn/LUFA/Drivers/USB/Class/Device/CDCClassDevice.c **** 
   5:lufa-lib-svn/LUFA/Drivers/USB/Class/Device/CDCClassDevice.c ****   dean [at] fourwalledcubicle [dot] com
   6:lufa-lib-svn/LUFA/Drivers/USB/Class/Device/CDCClassDevice.c ****            www.lufa-lib.org
   7:lufa-lib-svn/LUFA/Drivers/USB/Class/Device/CDCClassDevice.c **** */
   8:lufa-lib-svn/LUFA/Drivers/USB/Class/Device/CDCClassDevice.c **** 
   9:lufa-lib-svn/LUFA/Drivers/USB/Class/Device/CDCClassDevice.c **** /*
  10:lufa-lib-svn/LUFA/Drivers/USB/Class/Device/CDCClassDevice.c ****   Copyright 2011  Dean Camera (dean [at] fourwalledcubicle [dot] com)
  11:lufa-lib-svn/LUFA/Drivers/USB/Class/Device/CDCClassDevice.c **** 
  12:lufa-lib-svn/LUFA/Drivers/USB/Class/Device/CDCClassDevice.c ****   Permission to use, copy, modify, distribute, and sell this
  13:lufa-lib-svn/LUFA/Drivers/USB/Class/Device/CDCClassDevice.c ****   software and its documentation for any purpose is hereby granted
  14:lufa-lib-svn/LUFA/Drivers/USB/Class/Device/CDCClassDevice.c ****   without fee, provided that the above copyright notice appear in
  15:lufa-lib-svn/LUFA/Drivers/USB/Class/Device/CDCClassDevice.c ****   all copies and that both that the copyright notice and this
  16:lufa-lib-svn/LUFA/Drivers/USB/Class/Device/CDCClassDevice.c ****   permission notice and warranty disclaimer appear in supporting
  17:lufa-lib-svn/LUFA/Drivers/USB/Class/Device/CDCClassDevice.c ****   documentation, and that the name of the author not be used in
  18:lufa-lib-svn/LUFA/Drivers/USB/Class/Device/CDCClassDevice.c ****   advertising or publicity pertaining to distribution of the
  19:lufa-lib-svn/LUFA/Drivers/USB/Class/Device/CDCClassDevice.c ****   software without specific, written prior permission.
  20:lufa-lib-svn/LUFA/Drivers/USB/Class/Device/CDCClassDevice.c **** 
  21:lufa-lib-svn/LUFA/Drivers/USB/Class/Device/CDCClassDevice.c ****   The author disclaim all warranties with regard to this
  22:lufa-lib-svn/LUFA/Drivers/USB/Class/Device/CDCClassDevice.c ****   software, including all implied warranties of merchantability
  23:lufa-lib-svn/LUFA/Drivers/USB/Class/Device/CDCClassDevice.c ****   and fitness.  In no event shall the author be liable for any
  24:lufa-lib-svn/LUFA/Drivers/USB/Class/Device/CDCClassDevice.c ****   special, indirect or consequential damages or any damages
  25:lufa-lib-svn/LUFA/Drivers/USB/Class/Device/CDCClassDevice.c ****   whatsoever resulting from loss of use, data or profits, whether
  26:lufa-lib-svn/LUFA/Drivers/USB/Class/Device/CDCClassDevice.c ****   in an action of contract, negligence or other tortious action,
  27:lufa-lib-svn/LUFA/Drivers/USB/Class/Device/CDCClassDevice.c ****   arising out of or in connection with the use or performance of
  28:lufa-lib-svn/LUFA/Drivers/USB/Class/Device/CDCClassDevice.c ****   this software.
  29:lufa-lib-svn/LUFA/Drivers/USB/Class/Device/CDCClassDevice.c **** */
  30:lufa-lib-svn/LUFA/Drivers/USB/Class/Device/CDCClassDevice.c **** 
  31:lufa-lib-svn/LUFA/Drivers/USB/Class/Device/CDCClassDevice.c **** #define  __INCLUDE_FROM_USB_DRIVER
  32:lufa-lib-svn/LUFA/Drivers/USB/Class/Device/CDCClassDevice.c **** #include "../../Core/USBMode.h"
  33:lufa-lib-svn/LUFA/Drivers/USB/Class/Device/CDCClassDevice.c **** 
  34:lufa-lib-svn/LUFA/Drivers/USB/Class/Device/CDCClassDevice.c **** #if defined(USB_CAN_BE_DEVICE)
  35:lufa-lib-svn/LUFA/Drivers/USB/Class/Device/CDCClassDevice.c **** 
  36:lufa-lib-svn/LUFA/Drivers/USB/Class/Device/CDCClassDevice.c **** #define  __INCLUDE_FROM_CDC_DRIVER
  37:lufa-lib-svn/LUFA/Drivers/USB/Class/Device/CDCClassDevice.c **** #define  __INCLUDE_FROM_CDC_DEVICE_C
  38:lufa-lib-svn/LUFA/Drivers/USB/Class/Device/CDCClassDevice.c **** #include "CDCClassDevice.h"
  39:lufa-lib-svn/LUFA/Drivers/USB/Class/Device/CDCClassDevice.c **** 
  40:lufa-lib-svn/LUFA/Drivers/USB/Class/Device/CDCClassDevice.c **** void CDC_Device_ProcessControlRequest(USB_ClassInfo_CDC_Device_t* const CDCInterfaceInfo)
  41:lufa-lib-svn/LUFA/Drivers/USB/Class/Device/CDCClassDevice.c **** {
  42:lufa-lib-svn/LUFA/Drivers/USB/Class/Device/CDCClassDevice.c **** 	if (!(Endpoint_IsSETUPReceived()))
  43:lufa-lib-svn/LUFA/Drivers/USB/Class/Device/CDCClassDevice.c **** 	  return;
  44:lufa-lib-svn/LUFA/Drivers/USB/Class/Device/CDCClassDevice.c **** 
  45:lufa-lib-svn/LUFA/Drivers/USB/Class/Device/CDCClassDevice.c **** 	if (USB_ControlRequest.wIndex != CDCInterfaceInfo->Config.ControlInterfaceNumber)
  46:lufa-lib-svn/LUFA/Drivers/USB/Class/Device/CDCClassDevice.c **** 	  return;
  47:lufa-lib-svn/LUFA/Drivers/USB/Class/Device/CDCClassDevice.c **** 
  48:lufa-lib-svn/LUFA/Drivers/USB/Class/Device/CDCClassDevice.c **** 	switch (USB_ControlRequest.bRequest)
  49:lufa-lib-svn/LUFA/Drivers/USB/Class/Device/CDCClassDevice.c **** 	{
  50:lufa-lib-svn/LUFA/Drivers/USB/Class/Device/CDCClassDevice.c **** 		case CDC_REQ_GetLineEncoding:
  51:lufa-lib-svn/LUFA/Drivers/USB/Class/Device/CDCClassDevice.c **** 			if (USB_ControlRequest.bmRequestType == (REQDIR_DEVICETOHOST | REQTYPE_CLASS | REQREC_INTERFACE)
  52:lufa-lib-svn/LUFA/Drivers/USB/Class/Device/CDCClassDevice.c **** 			{
  53:lufa-lib-svn/LUFA/Drivers/USB/Class/Device/CDCClassDevice.c **** 				Endpoint_ClearSETUP();
  54:lufa-lib-svn/LUFA/Drivers/USB/Class/Device/CDCClassDevice.c **** 
  55:lufa-lib-svn/LUFA/Drivers/USB/Class/Device/CDCClassDevice.c **** 				while (!(Endpoint_IsINReady()));
  56:lufa-lib-svn/LUFA/Drivers/USB/Class/Device/CDCClassDevice.c **** 
  57:lufa-lib-svn/LUFA/Drivers/USB/Class/Device/CDCClassDevice.c **** 				Endpoint_Write_32_LE(CDCInterfaceInfo->State.LineEncoding.BaudRateBPS);
  58:lufa-lib-svn/LUFA/Drivers/USB/Class/Device/CDCClassDevice.c **** 				Endpoint_Write_8(CDCInterfaceInfo->State.LineEncoding.CharFormat);
  59:lufa-lib-svn/LUFA/Drivers/USB/Class/Device/CDCClassDevice.c **** 				Endpoint_Write_8(CDCInterfaceInfo->State.LineEncoding.ParityType);
  60:lufa-lib-svn/LUFA/Drivers/USB/Class/Device/CDCClassDevice.c **** 				Endpoint_Write_8(CDCInterfaceInfo->State.LineEncoding.DataBits);
  61:lufa-lib-svn/LUFA/Drivers/USB/Class/Device/CDCClassDevice.c **** 
  62:lufa-lib-svn/LUFA/Drivers/USB/Class/Device/CDCClassDevice.c **** 				Endpoint_ClearIN();
  63:lufa-lib-svn/LUFA/Drivers/USB/Class/Device/CDCClassDevice.c **** 				Endpoint_ClearStatusStage();
  64:lufa-lib-svn/LUFA/Drivers/USB/Class/Device/CDCClassDevice.c **** 			}
  65:lufa-lib-svn/LUFA/Drivers/USB/Class/Device/CDCClassDevice.c **** 
  66:lufa-lib-svn/LUFA/Drivers/USB/Class/Device/CDCClassDevice.c **** 			break;
  67:lufa-lib-svn/LUFA/Drivers/USB/Class/Device/CDCClassDevice.c **** 		case CDC_REQ_SetLineEncoding:
  68:lufa-lib-svn/LUFA/Drivers/USB/Class/Device/CDCClassDevice.c **** 			if (USB_ControlRequest.bmRequestType == (REQDIR_HOSTTODEVICE | REQTYPE_CLASS | REQREC_INTERFACE)
  69:lufa-lib-svn/LUFA/Drivers/USB/Class/Device/CDCClassDevice.c **** 			{
  70:lufa-lib-svn/LUFA/Drivers/USB/Class/Device/CDCClassDevice.c **** 				Endpoint_ClearSETUP();
  71:lufa-lib-svn/LUFA/Drivers/USB/Class/Device/CDCClassDevice.c **** 
  72:lufa-lib-svn/LUFA/Drivers/USB/Class/Device/CDCClassDevice.c **** 				while (!(Endpoint_IsOUTReceived()));
  73:lufa-lib-svn/LUFA/Drivers/USB/Class/Device/CDCClassDevice.c **** 
  74:lufa-lib-svn/LUFA/Drivers/USB/Class/Device/CDCClassDevice.c **** 				CDCInterfaceInfo->State.LineEncoding.BaudRateBPS = Endpoint_Read_32_LE();
  75:lufa-lib-svn/LUFA/Drivers/USB/Class/Device/CDCClassDevice.c **** 				CDCInterfaceInfo->State.LineEncoding.CharFormat  = Endpoint_Read_8();
  76:lufa-lib-svn/LUFA/Drivers/USB/Class/Device/CDCClassDevice.c **** 				CDCInterfaceInfo->State.LineEncoding.ParityType  = Endpoint_Read_8();
  77:lufa-lib-svn/LUFA/Drivers/USB/Class/Device/CDCClassDevice.c **** 				CDCInterfaceInfo->State.LineEncoding.DataBits    = Endpoint_Read_8();
  78:lufa-lib-svn/LUFA/Drivers/USB/Class/Device/CDCClassDevice.c **** 
  79:lufa-lib-svn/LUFA/Drivers/USB/Class/Device/CDCClassDevice.c **** 				Endpoint_ClearOUT();
  80:lufa-lib-svn/LUFA/Drivers/USB/Class/Device/CDCClassDevice.c **** 				Endpoint_ClearStatusStage();
  81:lufa-lib-svn/LUFA/Drivers/USB/Class/Device/CDCClassDevice.c **** 
  82:lufa-lib-svn/LUFA/Drivers/USB/Class/Device/CDCClassDevice.c **** 				EVENT_CDC_Device_LineEncodingChanged(CDCInterfaceInfo);
  83:lufa-lib-svn/LUFA/Drivers/USB/Class/Device/CDCClassDevice.c **** 			}
  84:lufa-lib-svn/LUFA/Drivers/USB/Class/Device/CDCClassDevice.c **** 
  85:lufa-lib-svn/LUFA/Drivers/USB/Class/Device/CDCClassDevice.c **** 			break;
  86:lufa-lib-svn/LUFA/Drivers/USB/Class/Device/CDCClassDevice.c **** 		case CDC_REQ_SetControlLineState:
  87:lufa-lib-svn/LUFA/Drivers/USB/Class/Device/CDCClassDevice.c **** 			if (USB_ControlRequest.bmRequestType == (REQDIR_HOSTTODEVICE | REQTYPE_CLASS | REQREC_INTERFACE)
  88:lufa-lib-svn/LUFA/Drivers/USB/Class/Device/CDCClassDevice.c **** 			{
  89:lufa-lib-svn/LUFA/Drivers/USB/Class/Device/CDCClassDevice.c **** 				Endpoint_ClearSETUP();
  90:lufa-lib-svn/LUFA/Drivers/USB/Class/Device/CDCClassDevice.c **** 				Endpoint_ClearStatusStage();
  91:lufa-lib-svn/LUFA/Drivers/USB/Class/Device/CDCClassDevice.c **** 
  92:lufa-lib-svn/LUFA/Drivers/USB/Class/Device/CDCClassDevice.c **** 				CDCInterfaceInfo->State.ControlLineStates.HostToDevice = USB_ControlRequest.wValue;
  93:lufa-lib-svn/LUFA/Drivers/USB/Class/Device/CDCClassDevice.c **** 
  94:lufa-lib-svn/LUFA/Drivers/USB/Class/Device/CDCClassDevice.c **** 				EVENT_CDC_Device_ControLineStateChanged(CDCInterfaceInfo);
  95:lufa-lib-svn/LUFA/Drivers/USB/Class/Device/CDCClassDevice.c **** 			}
  96:lufa-lib-svn/LUFA/Drivers/USB/Class/Device/CDCClassDevice.c **** 
  97:lufa-lib-svn/LUFA/Drivers/USB/Class/Device/CDCClassDevice.c **** 			break;
  98:lufa-lib-svn/LUFA/Drivers/USB/Class/Device/CDCClassDevice.c **** 		case CDC_REQ_SendBreak:
  99:lufa-lib-svn/LUFA/Drivers/USB/Class/Device/CDCClassDevice.c **** 			if (USB_ControlRequest.bmRequestType == (REQDIR_HOSTTODEVICE | REQTYPE_CLASS | REQREC_INTERFACE)
 100:lufa-lib-svn/LUFA/Drivers/USB/Class/Device/CDCClassDevice.c **** 			{
 101:lufa-lib-svn/LUFA/Drivers/USB/Class/Device/CDCClassDevice.c **** 				Endpoint_ClearSETUP();
 102:lufa-lib-svn/LUFA/Drivers/USB/Class/Device/CDCClassDevice.c **** 				Endpoint_ClearStatusStage();
 103:lufa-lib-svn/LUFA/Drivers/USB/Class/Device/CDCClassDevice.c **** 
 104:lufa-lib-svn/LUFA/Drivers/USB/Class/Device/CDCClassDevice.c **** 				EVENT_CDC_Device_BreakSent(CDCInterfaceInfo, (uint8_t)USB_ControlRequest.wValue);
 105:lufa-lib-svn/LUFA/Drivers/USB/Class/Device/CDCClassDevice.c **** 			}
 106:lufa-lib-svn/LUFA/Drivers/USB/Class/Device/CDCClassDevice.c **** 
 107:lufa-lib-svn/LUFA/Drivers/USB/Class/Device/CDCClassDevice.c **** 			break;
 108:lufa-lib-svn/LUFA/Drivers/USB/Class/Device/CDCClassDevice.c **** 	}
 109:lufa-lib-svn/LUFA/Drivers/USB/Class/Device/CDCClassDevice.c **** }
 110:lufa-lib-svn/LUFA/Drivers/USB/Class/Device/CDCClassDevice.c **** 
 111:lufa-lib-svn/LUFA/Drivers/USB/Class/Device/CDCClassDevice.c **** bool CDC_Device_ConfigureEndpoints(USB_ClassInfo_CDC_Device_t* const CDCInterfaceInfo)
 112:lufa-lib-svn/LUFA/Drivers/USB/Class/Device/CDCClassDevice.c **** {
  16               		.loc 1 112 0
  17               		.cfi_startproc
  18               	.LVL0:
  19 0000 1F93      		push r17
  20               	.LCFI0:
  21               		.cfi_def_cfa_offset 3
  22               		.cfi_offset 17, -2
  23 0002 CF93      		push r28
  24               	.LCFI1:
  25               		.cfi_def_cfa_offset 4
  26               		.cfi_offset 28, -3
  27 0004 DF93      		push r29
  28               	.LCFI2:
  29               		.cfi_def_cfa_offset 5
  30               		.cfi_offset 29, -4
  31               	/* prologue: function */
  32               	/* frame size = 0 */
  33               	/* stack size = 3 */
  34               	.L__stack_usage = 3
  35 0006 EC01      		movw r28,r24
 113:lufa-lib-svn/LUFA/Drivers/USB/Class/Device/CDCClassDevice.c **** 	memset(&CDCInterfaceInfo->State, 0x00, sizeof(CDCInterfaceInfo->State));
  36               		.loc 1 113 0
  37 0008 0D96      		adiw r24,13
  38               	.LVL1:
  39 000a FC01      		movw r30,r24
  40 000c 8BE0      		ldi r24,lo8(11)
  41 000e DF01      		movw r26,r30
  42               		0:
  43 0010 1D92      		st X+,__zero_reg__
  44 0012 8A95      		dec r24
  45 0014 01F4      		brne 0b
  46               	.LVL2:
 114:lufa-lib-svn/LUFA/Drivers/USB/Class/Device/CDCClassDevice.c **** 
 115:lufa-lib-svn/LUFA/Drivers/USB/Class/Device/CDCClassDevice.c **** 	for (uint8_t EndpointNum = 1; EndpointNum < ENDPOINT_TOTAL_ENDPOINTS; EndpointNum++)
  47               		.loc 1 115 0
  48 0016 11E0      		ldi r17,lo8(1)
  49               	.LVL3:
  50               	.L6:
  51               	.LBB93:
  52               	.LBB94:
 116:lufa-lib-svn/LUFA/Drivers/USB/Class/Device/CDCClassDevice.c **** 	{
 117:lufa-lib-svn/LUFA/Drivers/USB/Class/Device/CDCClassDevice.c **** 		uint16_t Size;
 118:lufa-lib-svn/LUFA/Drivers/USB/Class/Device/CDCClassDevice.c **** 		uint8_t  Type;
 119:lufa-lib-svn/LUFA/Drivers/USB/Class/Device/CDCClassDevice.c **** 		uint8_t  Direction;
 120:lufa-lib-svn/LUFA/Drivers/USB/Class/Device/CDCClassDevice.c **** 		bool     DoubleBanked;
 121:lufa-lib-svn/LUFA/Drivers/USB/Class/Device/CDCClassDevice.c **** 
 122:lufa-lib-svn/LUFA/Drivers/USB/Class/Device/CDCClassDevice.c **** 		if (EndpointNum == CDCInterfaceInfo->Config.DataINEndpointNumber)
  53               		.loc 1 122 0
  54 0018 8981      		ldd r24,Y+1
  55 001a 1813      		cpse r17,r24
  56 001c 00C0      		rjmp .L2
 123:lufa-lib-svn/LUFA/Drivers/USB/Class/Device/CDCClassDevice.c **** 		{
 124:lufa-lib-svn/LUFA/Drivers/USB/Class/Device/CDCClassDevice.c **** 			Size         = CDCInterfaceInfo->Config.DataINEndpointSize;
  57               		.loc 1 124 0
  58 001e 2A81      		ldd r18,Y+2
  59 0020 3B81      		ldd r19,Y+3
  60               	.LVL4:
 125:lufa-lib-svn/LUFA/Drivers/USB/Class/Device/CDCClassDevice.c **** 			Direction    = ENDPOINT_DIR_IN;
 126:lufa-lib-svn/LUFA/Drivers/USB/Class/Device/CDCClassDevice.c **** 			Type         = EP_TYPE_BULK;
 127:lufa-lib-svn/LUFA/Drivers/USB/Class/Device/CDCClassDevice.c **** 			DoubleBanked = CDCInterfaceInfo->Config.DataINEndpointDoubleBank;
  61               		.loc 1 127 0
  62 0022 4C81      		ldd r20,Y+4
  63               	.LVL5:
 125:lufa-lib-svn/LUFA/Drivers/USB/Class/Device/CDCClassDevice.c **** 			Direction    = ENDPOINT_DIR_IN;
  64               		.loc 1 125 0
  65 0024 80E8      		ldi r24,lo8(-128)
  66 0026 00C0      		rjmp .L15
  67               	.LVL6:
  68               	.L2:
 128:lufa-lib-svn/LUFA/Drivers/USB/Class/Device/CDCClassDevice.c **** 		}
 129:lufa-lib-svn/LUFA/Drivers/USB/Class/Device/CDCClassDevice.c **** 		else if (EndpointNum == CDCInterfaceInfo->Config.DataOUTEndpointNumber)
  69               		.loc 1 129 0
  70 0028 8D81      		ldd r24,Y+5
  71 002a 1813      		cpse r17,r24
  72 002c 00C0      		rjmp .L4
 130:lufa-lib-svn/LUFA/Drivers/USB/Class/Device/CDCClassDevice.c **** 		{
 131:lufa-lib-svn/LUFA/Drivers/USB/Class/Device/CDCClassDevice.c **** 			Size         = CDCInterfaceInfo->Config.DataOUTEndpointSize;
  73               		.loc 1 131 0
  74 002e 2E81      		ldd r18,Y+6
  75 0030 3F81      		ldd r19,Y+7
  76               	.LVL7:
 132:lufa-lib-svn/LUFA/Drivers/USB/Class/Device/CDCClassDevice.c **** 			Direction    = ENDPOINT_DIR_OUT;
 133:lufa-lib-svn/LUFA/Drivers/USB/Class/Device/CDCClassDevice.c **** 			Type         = EP_TYPE_BULK;
 134:lufa-lib-svn/LUFA/Drivers/USB/Class/Device/CDCClassDevice.c **** 			DoubleBanked = CDCInterfaceInfo->Config.DataOUTEndpointDoubleBank;
  77               		.loc 1 134 0
  78 0032 4885      		ldd r20,Y+8
  79               	.LVL8:
 132:lufa-lib-svn/LUFA/Drivers/USB/Class/Device/CDCClassDevice.c **** 			Direction    = ENDPOINT_DIR_OUT;
  80               		.loc 1 132 0
  81 0034 80E0      		ldi r24,0
  82               	.LVL9:
  83               	.L15:
 133:lufa-lib-svn/LUFA/Drivers/USB/Class/Device/CDCClassDevice.c **** 			Type         = EP_TYPE_BULK;
  84               		.loc 1 133 0
  85 0036 92E0      		ldi r25,lo8(2)
  86 0038 00C0      		rjmp .L3
  87               	.LVL10:
  88               	.L4:
 135:lufa-lib-svn/LUFA/Drivers/USB/Class/Device/CDCClassDevice.c **** 		}
 136:lufa-lib-svn/LUFA/Drivers/USB/Class/Device/CDCClassDevice.c **** 		else if (EndpointNum == CDCInterfaceInfo->Config.NotificationEndpointNumber)
  89               		.loc 1 136 0
  90 003a 8985      		ldd r24,Y+9
  91 003c 1817      		cp r17,r24
  92 003e 01F0      		breq .L5
  93               	.L12:
  94               	.LBE94:
 115:lufa-lib-svn/LUFA/Drivers/USB/Class/Device/CDCClassDevice.c **** 	for (uint8_t EndpointNum = 1; EndpointNum < ENDPOINT_TOTAL_ENDPOINTS; EndpointNum++)
  95               		.loc 1 115 0
  96 0040 1F5F      		subi r17,lo8(-(1))
  97               	.LVL11:
  98 0042 1730      		cpi r17,lo8(7)
  99 0044 01F4      		brne .L6
 137:lufa-lib-svn/LUFA/Drivers/USB/Class/Device/CDCClassDevice.c **** 		{
 138:lufa-lib-svn/LUFA/Drivers/USB/Class/Device/CDCClassDevice.c **** 			Size         = CDCInterfaceInfo->Config.NotificationEndpointSize;
 139:lufa-lib-svn/LUFA/Drivers/USB/Class/Device/CDCClassDevice.c **** 			Direction    = ENDPOINT_DIR_IN;
 140:lufa-lib-svn/LUFA/Drivers/USB/Class/Device/CDCClassDevice.c **** 			Type         = EP_TYPE_INTERRUPT;
 141:lufa-lib-svn/LUFA/Drivers/USB/Class/Device/CDCClassDevice.c **** 			DoubleBanked = CDCInterfaceInfo->Config.NotificationEndpointDoubleBank;
 142:lufa-lib-svn/LUFA/Drivers/USB/Class/Device/CDCClassDevice.c **** 		}
 143:lufa-lib-svn/LUFA/Drivers/USB/Class/Device/CDCClassDevice.c **** 		else
 144:lufa-lib-svn/LUFA/Drivers/USB/Class/Device/CDCClassDevice.c **** 		{
 145:lufa-lib-svn/LUFA/Drivers/USB/Class/Device/CDCClassDevice.c **** 			continue;
 146:lufa-lib-svn/LUFA/Drivers/USB/Class/Device/CDCClassDevice.c **** 		}
 147:lufa-lib-svn/LUFA/Drivers/USB/Class/Device/CDCClassDevice.c **** 
 148:lufa-lib-svn/LUFA/Drivers/USB/Class/Device/CDCClassDevice.c **** 		if (!(Endpoint_ConfigureEndpoint(EndpointNum, Type, Direction, Size,
 149:lufa-lib-svn/LUFA/Drivers/USB/Class/Device/CDCClassDevice.c **** 		                                 DoubleBanked ? ENDPOINT_BANK_DOUBLE : ENDPOINT_BANK_SINGLE)))
 150:lufa-lib-svn/LUFA/Drivers/USB/Class/Device/CDCClassDevice.c **** 		{
 151:lufa-lib-svn/LUFA/Drivers/USB/Class/Device/CDCClassDevice.c **** 			return false;
 152:lufa-lib-svn/LUFA/Drivers/USB/Class/Device/CDCClassDevice.c **** 		}
 153:lufa-lib-svn/LUFA/Drivers/USB/Class/Device/CDCClassDevice.c **** 	}
 154:lufa-lib-svn/LUFA/Drivers/USB/Class/Device/CDCClassDevice.c **** 
 155:lufa-lib-svn/LUFA/Drivers/USB/Class/Device/CDCClassDevice.c **** 	return true;
 100               		.loc 1 155 0
 101 0046 81E0      		ldi r24,lo8(1)
 102 0048 00C0      		rjmp .L7
 103               	.LVL12:
 104               	.L5:
 105               	.LBB101:
 138:lufa-lib-svn/LUFA/Drivers/USB/Class/Device/CDCClassDevice.c **** 			Size         = CDCInterfaceInfo->Config.NotificationEndpointSize;
 106               		.loc 1 138 0
 107 004a 2A85      		ldd r18,Y+10
 108 004c 3B85      		ldd r19,Y+11
 109               	.LVL13:
 141:lufa-lib-svn/LUFA/Drivers/USB/Class/Device/CDCClassDevice.c **** 			DoubleBanked = CDCInterfaceInfo->Config.NotificationEndpointDoubleBank;
 110               		.loc 1 141 0
 111 004e 4C85      		ldd r20,Y+12
 112               	.LVL14:
 139:lufa-lib-svn/LUFA/Drivers/USB/Class/Device/CDCClassDevice.c **** 			Direction    = ENDPOINT_DIR_IN;
 113               		.loc 1 139 0
 114 0050 80E8      		ldi r24,lo8(-128)
 140:lufa-lib-svn/LUFA/Drivers/USB/Class/Device/CDCClassDevice.c **** 			Type         = EP_TYPE_INTERRUPT;
 115               		.loc 1 140 0
 116 0052 93E0      		ldi r25,lo8(3)
 117               	.LVL15:
 118               	.L3:
 148:lufa-lib-svn/LUFA/Drivers/USB/Class/Device/CDCClassDevice.c **** 		if (!(Endpoint_ConfigureEndpoint(EndpointNum, Type, Direction, Size,
 119               		.loc 1 148 0
 120 0054 4423      		tst r20
 121 0056 01F0      		breq .L13
 122 0058 44E0      		ldi r20,lo8(4)
 123               	.LVL16:
 124 005a 00C0      		rjmp .L8
 125               	.LVL17:
 126               	.L13:
 127 005c 40E0      		ldi r20,0
 128               	.LVL18:
 129               	.L8:
 130               		.file 2 "lufa-lib-svn/LUFA/Drivers/USB/Class/Device/../../Core/AVR8/../AVR8/Endpoint_AVR8.h"
   1:lufa-lib-svn/LUFA/Drivers/USB/Class/Device/../../Core/AVR8/../AVR8/Endpoint_AVR8.h **** /*
   2:lufa-lib-svn/LUFA/Drivers/USB/Class/Device/../../Core/AVR8/../AVR8/Endpoint_AVR8.h ****              LUFA Library
   3:lufa-lib-svn/LUFA/Drivers/USB/Class/Device/../../Core/AVR8/../AVR8/Endpoint_AVR8.h ****      Copyright (C) Dean Camera, 2011.
   4:lufa-lib-svn/LUFA/Drivers/USB/Class/Device/../../Core/AVR8/../AVR8/Endpoint_AVR8.h **** 
   5:lufa-lib-svn/LUFA/Drivers/USB/Class/Device/../../Core/AVR8/../AVR8/Endpoint_AVR8.h ****   dean [at] fourwalledcubicle [dot] com
   6:lufa-lib-svn/LUFA/Drivers/USB/Class/Device/../../Core/AVR8/../AVR8/Endpoint_AVR8.h ****            www.lufa-lib.org
   7:lufa-lib-svn/LUFA/Drivers/USB/Class/Device/../../Core/AVR8/../AVR8/Endpoint_AVR8.h **** */
   8:lufa-lib-svn/LUFA/Drivers/USB/Class/Device/../../Core/AVR8/../AVR8/Endpoint_AVR8.h **** 
   9:lufa-lib-svn/LUFA/Drivers/USB/Class/Device/../../Core/AVR8/../AVR8/Endpoint_AVR8.h **** /*
  10:lufa-lib-svn/LUFA/Drivers/USB/Class/Device/../../Core/AVR8/../AVR8/Endpoint_AVR8.h ****   Copyright 2011  Dean Camera (dean [at] fourwalledcubicle [dot] com)
  11:lufa-lib-svn/LUFA/Drivers/USB/Class/Device/../../Core/AVR8/../AVR8/Endpoint_AVR8.h **** 
  12:lufa-lib-svn/LUFA/Drivers/USB/Class/Device/../../Core/AVR8/../AVR8/Endpoint_AVR8.h ****   Permission to use, copy, modify, distribute, and sell this
  13:lufa-lib-svn/LUFA/Drivers/USB/Class/Device/../../Core/AVR8/../AVR8/Endpoint_AVR8.h ****   software and its documentation for any purpose is hereby granted
  14:lufa-lib-svn/LUFA/Drivers/USB/Class/Device/../../Core/AVR8/../AVR8/Endpoint_AVR8.h ****   without fee, provided that the above copyright notice appear in
  15:lufa-lib-svn/LUFA/Drivers/USB/Class/Device/../../Core/AVR8/../AVR8/Endpoint_AVR8.h ****   all copies and that both that the copyright notice and this
  16:lufa-lib-svn/LUFA/Drivers/USB/Class/Device/../../Core/AVR8/../AVR8/Endpoint_AVR8.h ****   permission notice and warranty disclaimer appear in supporting
  17:lufa-lib-svn/LUFA/Drivers/USB/Class/Device/../../Core/AVR8/../AVR8/Endpoint_AVR8.h ****   documentation, and that the name of the author not be used in
  18:lufa-lib-svn/LUFA/Drivers/USB/Class/Device/../../Core/AVR8/../AVR8/Endpoint_AVR8.h ****   advertising or publicity pertaining to distribution of the
  19:lufa-lib-svn/LUFA/Drivers/USB/Class/Device/../../Core/AVR8/../AVR8/Endpoint_AVR8.h ****   software without specific, written prior permission.
  20:lufa-lib-svn/LUFA/Drivers/USB/Class/Device/../../Core/AVR8/../AVR8/Endpoint_AVR8.h **** 
  21:lufa-lib-svn/LUFA/Drivers/USB/Class/Device/../../Core/AVR8/../AVR8/Endpoint_AVR8.h ****   The author disclaim all warranties with regard to this
  22:lufa-lib-svn/LUFA/Drivers/USB/Class/Device/../../Core/AVR8/../AVR8/Endpoint_AVR8.h ****   software, including all implied warranties of merchantability
  23:lufa-lib-svn/LUFA/Drivers/USB/Class/Device/../../Core/AVR8/../AVR8/Endpoint_AVR8.h ****   and fitness.  In no event shall the author be liable for any
  24:lufa-lib-svn/LUFA/Drivers/USB/Class/Device/../../Core/AVR8/../AVR8/Endpoint_AVR8.h ****   special, indirect or consequential damages or any damages
  25:lufa-lib-svn/LUFA/Drivers/USB/Class/Device/../../Core/AVR8/../AVR8/Endpoint_AVR8.h ****   whatsoever resulting from loss of use, data or profits, whether
  26:lufa-lib-svn/LUFA/Drivers/USB/Class/Device/../../Core/AVR8/../AVR8/Endpoint_AVR8.h ****   in an action of contract, negligence or other tortious action,
  27:lufa-lib-svn/LUFA/Drivers/USB/Class/Device/../../Core/AVR8/../AVR8/Endpoint_AVR8.h ****   arising out of or in connection with the use or performance of
  28:lufa-lib-svn/LUFA/Drivers/USB/Class/Device/../../Core/AVR8/../AVR8/Endpoint_AVR8.h ****   this software.
  29:lufa-lib-svn/LUFA/Drivers/USB/Class/Device/../../Core/AVR8/../AVR8/Endpoint_AVR8.h **** */
  30:lufa-lib-svn/LUFA/Drivers/USB/Class/Device/../../Core/AVR8/../AVR8/Endpoint_AVR8.h **** 
  31:lufa-lib-svn/LUFA/Drivers/USB/Class/Device/../../Core/AVR8/../AVR8/Endpoint_AVR8.h **** /** \file
  32:lufa-lib-svn/LUFA/Drivers/USB/Class/Device/../../Core/AVR8/../AVR8/Endpoint_AVR8.h ****  *  \brief USB Endpoint definitions for the AVR8 microcontrollers.
  33:lufa-lib-svn/LUFA/Drivers/USB/Class/Device/../../Core/AVR8/../AVR8/Endpoint_AVR8.h ****  *  \copydetails Group_EndpointManagement_AVR8
  34:lufa-lib-svn/LUFA/Drivers/USB/Class/Device/../../Core/AVR8/../AVR8/Endpoint_AVR8.h ****  *
  35:lufa-lib-svn/LUFA/Drivers/USB/Class/Device/../../Core/AVR8/../AVR8/Endpoint_AVR8.h ****  *  \note This file should not be included directly. It is automatically included as needed by the 
  36:lufa-lib-svn/LUFA/Drivers/USB/Class/Device/../../Core/AVR8/../AVR8/Endpoint_AVR8.h ****  *        dispatch header located in LUFA/Drivers/USB/USB.h.
  37:lufa-lib-svn/LUFA/Drivers/USB/Class/Device/../../Core/AVR8/../AVR8/Endpoint_AVR8.h ****  */
  38:lufa-lib-svn/LUFA/Drivers/USB/Class/Device/../../Core/AVR8/../AVR8/Endpoint_AVR8.h **** 
  39:lufa-lib-svn/LUFA/Drivers/USB/Class/Device/../../Core/AVR8/../AVR8/Endpoint_AVR8.h **** /** \ingroup Group_EndpointRW
  40:lufa-lib-svn/LUFA/Drivers/USB/Class/Device/../../Core/AVR8/../AVR8/Endpoint_AVR8.h ****  *  \defgroup Group_EndpointRW_AVR8 Endpoint Data Reading and Writing (AVR8)
  41:lufa-lib-svn/LUFA/Drivers/USB/Class/Device/../../Core/AVR8/../AVR8/Endpoint_AVR8.h ****  *  \brief Endpoint data read/write definitions for the Atmel AVR8 architecture.
  42:lufa-lib-svn/LUFA/Drivers/USB/Class/Device/../../Core/AVR8/../AVR8/Endpoint_AVR8.h ****  *
  43:lufa-lib-svn/LUFA/Drivers/USB/Class/Device/../../Core/AVR8/../AVR8/Endpoint_AVR8.h ****  *  Functions, macros, variables, enums and types related to data reading and writing from and to e
  44:lufa-lib-svn/LUFA/Drivers/USB/Class/Device/../../Core/AVR8/../AVR8/Endpoint_AVR8.h ****  */
  45:lufa-lib-svn/LUFA/Drivers/USB/Class/Device/../../Core/AVR8/../AVR8/Endpoint_AVR8.h **** 
  46:lufa-lib-svn/LUFA/Drivers/USB/Class/Device/../../Core/AVR8/../AVR8/Endpoint_AVR8.h **** /** \ingroup Group_EndpointPrimitiveRW
  47:lufa-lib-svn/LUFA/Drivers/USB/Class/Device/../../Core/AVR8/../AVR8/Endpoint_AVR8.h ****  *  \defgroup Group_EndpointPrimitiveRW_AVR8 Read/Write of Primitive Data Types (AVR8)
  48:lufa-lib-svn/LUFA/Drivers/USB/Class/Device/../../Core/AVR8/../AVR8/Endpoint_AVR8.h ****  *  \brief Endpoint primitive read/write definitions for the Atmel AVR8 architecture.
  49:lufa-lib-svn/LUFA/Drivers/USB/Class/Device/../../Core/AVR8/../AVR8/Endpoint_AVR8.h ****  *
  50:lufa-lib-svn/LUFA/Drivers/USB/Class/Device/../../Core/AVR8/../AVR8/Endpoint_AVR8.h ****  *  Functions, macros, variables, enums and types related to data reading and writing of primitive 
  51:lufa-lib-svn/LUFA/Drivers/USB/Class/Device/../../Core/AVR8/../AVR8/Endpoint_AVR8.h ****  *  from and to endpoints.
  52:lufa-lib-svn/LUFA/Drivers/USB/Class/Device/../../Core/AVR8/../AVR8/Endpoint_AVR8.h ****  */
  53:lufa-lib-svn/LUFA/Drivers/USB/Class/Device/../../Core/AVR8/../AVR8/Endpoint_AVR8.h **** 
  54:lufa-lib-svn/LUFA/Drivers/USB/Class/Device/../../Core/AVR8/../AVR8/Endpoint_AVR8.h **** /** \ingroup Group_EndpointPacketManagement
  55:lufa-lib-svn/LUFA/Drivers/USB/Class/Device/../../Core/AVR8/../AVR8/Endpoint_AVR8.h ****  *  \defgroup Group_EndpointPacketManagement_AVR8 Endpoint Packet Management (AVR8)
  56:lufa-lib-svn/LUFA/Drivers/USB/Class/Device/../../Core/AVR8/../AVR8/Endpoint_AVR8.h ****  *  \brief Endpoint packet management definitions for the Atmel AVR8 architecture.
  57:lufa-lib-svn/LUFA/Drivers/USB/Class/Device/../../Core/AVR8/../AVR8/Endpoint_AVR8.h ****  *
  58:lufa-lib-svn/LUFA/Drivers/USB/Class/Device/../../Core/AVR8/../AVR8/Endpoint_AVR8.h ****  *  Functions, macros, variables, enums and types related to packet management of endpoints.
  59:lufa-lib-svn/LUFA/Drivers/USB/Class/Device/../../Core/AVR8/../AVR8/Endpoint_AVR8.h ****  */
  60:lufa-lib-svn/LUFA/Drivers/USB/Class/Device/../../Core/AVR8/../AVR8/Endpoint_AVR8.h **** 
  61:lufa-lib-svn/LUFA/Drivers/USB/Class/Device/../../Core/AVR8/../AVR8/Endpoint_AVR8.h **** /** \ingroup Group_EndpointManagement
  62:lufa-lib-svn/LUFA/Drivers/USB/Class/Device/../../Core/AVR8/../AVR8/Endpoint_AVR8.h ****  *  \defgroup Group_EndpointManagement_AVR8 Endpoint Management (AVR8)
  63:lufa-lib-svn/LUFA/Drivers/USB/Class/Device/../../Core/AVR8/../AVR8/Endpoint_AVR8.h ****  *  \brief Endpoint management definitions for the Atmel AVR8 architecture.
  64:lufa-lib-svn/LUFA/Drivers/USB/Class/Device/../../Core/AVR8/../AVR8/Endpoint_AVR8.h ****  *
  65:lufa-lib-svn/LUFA/Drivers/USB/Class/Device/../../Core/AVR8/../AVR8/Endpoint_AVR8.h ****  *  Functions, macros and enums related to endpoint management when in USB Device mode. This
  66:lufa-lib-svn/LUFA/Drivers/USB/Class/Device/../../Core/AVR8/../AVR8/Endpoint_AVR8.h ****  *  module contains the endpoint management macros, as well as endpoint interrupt and data
  67:lufa-lib-svn/LUFA/Drivers/USB/Class/Device/../../Core/AVR8/../AVR8/Endpoint_AVR8.h ****  *  send/receive functions for various data types.
  68:lufa-lib-svn/LUFA/Drivers/USB/Class/Device/../../Core/AVR8/../AVR8/Endpoint_AVR8.h ****  *
  69:lufa-lib-svn/LUFA/Drivers/USB/Class/Device/../../Core/AVR8/../AVR8/Endpoint_AVR8.h ****  *  @{
  70:lufa-lib-svn/LUFA/Drivers/USB/Class/Device/../../Core/AVR8/../AVR8/Endpoint_AVR8.h ****  */
  71:lufa-lib-svn/LUFA/Drivers/USB/Class/Device/../../Core/AVR8/../AVR8/Endpoint_AVR8.h **** 
  72:lufa-lib-svn/LUFA/Drivers/USB/Class/Device/../../Core/AVR8/../AVR8/Endpoint_AVR8.h **** #ifndef __ENDPOINT_AVR8_H__
  73:lufa-lib-svn/LUFA/Drivers/USB/Class/Device/../../Core/AVR8/../AVR8/Endpoint_AVR8.h **** #define __ENDPOINT_AVR8_H__
  74:lufa-lib-svn/LUFA/Drivers/USB/Class/Device/../../Core/AVR8/../AVR8/Endpoint_AVR8.h **** 
  75:lufa-lib-svn/LUFA/Drivers/USB/Class/Device/../../Core/AVR8/../AVR8/Endpoint_AVR8.h **** 	/* Includes: */
  76:lufa-lib-svn/LUFA/Drivers/USB/Class/Device/../../Core/AVR8/../AVR8/Endpoint_AVR8.h **** 		#include "../../../../Common/Common.h"
  77:lufa-lib-svn/LUFA/Drivers/USB/Class/Device/../../Core/AVR8/../AVR8/Endpoint_AVR8.h **** 		#include "../USBTask.h"
  78:lufa-lib-svn/LUFA/Drivers/USB/Class/Device/../../Core/AVR8/../AVR8/Endpoint_AVR8.h **** 		#include "../USBInterrupt.h"
  79:lufa-lib-svn/LUFA/Drivers/USB/Class/Device/../../Core/AVR8/../AVR8/Endpoint_AVR8.h **** 
  80:lufa-lib-svn/LUFA/Drivers/USB/Class/Device/../../Core/AVR8/../AVR8/Endpoint_AVR8.h **** 	/* Enable C linkage for C++ Compilers: */
  81:lufa-lib-svn/LUFA/Drivers/USB/Class/Device/../../Core/AVR8/../AVR8/Endpoint_AVR8.h **** 		#if defined(__cplusplus)
  82:lufa-lib-svn/LUFA/Drivers/USB/Class/Device/../../Core/AVR8/../AVR8/Endpoint_AVR8.h **** 			extern "C" {
  83:lufa-lib-svn/LUFA/Drivers/USB/Class/Device/../../Core/AVR8/../AVR8/Endpoint_AVR8.h **** 		#endif
  84:lufa-lib-svn/LUFA/Drivers/USB/Class/Device/../../Core/AVR8/../AVR8/Endpoint_AVR8.h **** 
  85:lufa-lib-svn/LUFA/Drivers/USB/Class/Device/../../Core/AVR8/../AVR8/Endpoint_AVR8.h **** 	/* Preprocessor Checks: */
  86:lufa-lib-svn/LUFA/Drivers/USB/Class/Device/../../Core/AVR8/../AVR8/Endpoint_AVR8.h **** 		#if !defined(__INCLUDE_FROM_USB_DRIVER)
  87:lufa-lib-svn/LUFA/Drivers/USB/Class/Device/../../Core/AVR8/../AVR8/Endpoint_AVR8.h **** 			#error Do not include this file directly. Include LUFA/Drivers/USB/USB.h instead.
  88:lufa-lib-svn/LUFA/Drivers/USB/Class/Device/../../Core/AVR8/../AVR8/Endpoint_AVR8.h **** 		#endif
  89:lufa-lib-svn/LUFA/Drivers/USB/Class/Device/../../Core/AVR8/../AVR8/Endpoint_AVR8.h **** 
  90:lufa-lib-svn/LUFA/Drivers/USB/Class/Device/../../Core/AVR8/../AVR8/Endpoint_AVR8.h **** 	/* Private Interface - For use in library only: */
  91:lufa-lib-svn/LUFA/Drivers/USB/Class/Device/../../Core/AVR8/../AVR8/Endpoint_AVR8.h **** 	#if !defined(__DOXYGEN__)
  92:lufa-lib-svn/LUFA/Drivers/USB/Class/Device/../../Core/AVR8/../AVR8/Endpoint_AVR8.h **** 		/* Macros: */
  93:lufa-lib-svn/LUFA/Drivers/USB/Class/Device/../../Core/AVR8/../AVR8/Endpoint_AVR8.h **** 			#define _ENDPOINT_GET_MAXSIZE(EPIndex)         _ENDPOINT_GET_MAXSIZE2(ENDPOINT_DETAILS_EP ## EPI
  94:lufa-lib-svn/LUFA/Drivers/USB/Class/Device/../../Core/AVR8/../AVR8/Endpoint_AVR8.h **** 			#define _ENDPOINT_GET_MAXSIZE2(EPDetails)      _ENDPOINT_GET_MAXSIZE3(EPDetails)
  95:lufa-lib-svn/LUFA/Drivers/USB/Class/Device/../../Core/AVR8/../AVR8/Endpoint_AVR8.h **** 			#define _ENDPOINT_GET_MAXSIZE3(MaxSize, Banks) (MaxSize)
  96:lufa-lib-svn/LUFA/Drivers/USB/Class/Device/../../Core/AVR8/../AVR8/Endpoint_AVR8.h **** 
  97:lufa-lib-svn/LUFA/Drivers/USB/Class/Device/../../Core/AVR8/../AVR8/Endpoint_AVR8.h **** 			#define _ENDPOINT_GET_BANKS(EPIndex)           _ENDPOINT_GET_BANKS2(ENDPOINT_DETAILS_EP ## EPInd
  98:lufa-lib-svn/LUFA/Drivers/USB/Class/Device/../../Core/AVR8/../AVR8/Endpoint_AVR8.h **** 			#define _ENDPOINT_GET_BANKS2(EPDetails)        _ENDPOINT_GET_BANKS3(EPDetails)
  99:lufa-lib-svn/LUFA/Drivers/USB/Class/Device/../../Core/AVR8/../AVR8/Endpoint_AVR8.h **** 			#define _ENDPOINT_GET_BANKS3(MaxSize, Banks)   (Banks)
 100:lufa-lib-svn/LUFA/Drivers/USB/Class/Device/../../Core/AVR8/../AVR8/Endpoint_AVR8.h **** 
 101:lufa-lib-svn/LUFA/Drivers/USB/Class/Device/../../Core/AVR8/../AVR8/Endpoint_AVR8.h **** 			#if defined(USB_SERIES_4_AVR) || defined(USB_SERIES_6_AVR) || defined(USB_SERIES_7_AVR)
 102:lufa-lib-svn/LUFA/Drivers/USB/Class/Device/../../Core/AVR8/../AVR8/Endpoint_AVR8.h **** 				#define ENDPOINT_DETAILS_MAXEP             7
 103:lufa-lib-svn/LUFA/Drivers/USB/Class/Device/../../Core/AVR8/../AVR8/Endpoint_AVR8.h **** 
 104:lufa-lib-svn/LUFA/Drivers/USB/Class/Device/../../Core/AVR8/../AVR8/Endpoint_AVR8.h **** 				#define ENDPOINT_DETAILS_EP0               64,  1
 105:lufa-lib-svn/LUFA/Drivers/USB/Class/Device/../../Core/AVR8/../AVR8/Endpoint_AVR8.h **** 				#define ENDPOINT_DETAILS_EP1               256, 2
 106:lufa-lib-svn/LUFA/Drivers/USB/Class/Device/../../Core/AVR8/../AVR8/Endpoint_AVR8.h **** 				#define ENDPOINT_DETAILS_EP2               64,  2
 107:lufa-lib-svn/LUFA/Drivers/USB/Class/Device/../../Core/AVR8/../AVR8/Endpoint_AVR8.h **** 				#define ENDPOINT_DETAILS_EP3               64,  2
 108:lufa-lib-svn/LUFA/Drivers/USB/Class/Device/../../Core/AVR8/../AVR8/Endpoint_AVR8.h **** 				#define ENDPOINT_DETAILS_EP4               64,  2
 109:lufa-lib-svn/LUFA/Drivers/USB/Class/Device/../../Core/AVR8/../AVR8/Endpoint_AVR8.h **** 				#define ENDPOINT_DETAILS_EP5               64,  2
 110:lufa-lib-svn/LUFA/Drivers/USB/Class/Device/../../Core/AVR8/../AVR8/Endpoint_AVR8.h **** 				#define ENDPOINT_DETAILS_EP6               64,  2
 111:lufa-lib-svn/LUFA/Drivers/USB/Class/Device/../../Core/AVR8/../AVR8/Endpoint_AVR8.h **** 			#else
 112:lufa-lib-svn/LUFA/Drivers/USB/Class/Device/../../Core/AVR8/../AVR8/Endpoint_AVR8.h **** 				#define ENDPOINT_DETAILS_MAXEP             5
 113:lufa-lib-svn/LUFA/Drivers/USB/Class/Device/../../Core/AVR8/../AVR8/Endpoint_AVR8.h **** 
 114:lufa-lib-svn/LUFA/Drivers/USB/Class/Device/../../Core/AVR8/../AVR8/Endpoint_AVR8.h **** 				#define ENDPOINT_DETAILS_EP0               64,  1
 115:lufa-lib-svn/LUFA/Drivers/USB/Class/Device/../../Core/AVR8/../AVR8/Endpoint_AVR8.h **** 				#define ENDPOINT_DETAILS_EP1               64,  1
 116:lufa-lib-svn/LUFA/Drivers/USB/Class/Device/../../Core/AVR8/../AVR8/Endpoint_AVR8.h **** 				#define ENDPOINT_DETAILS_EP2               64,  1
 117:lufa-lib-svn/LUFA/Drivers/USB/Class/Device/../../Core/AVR8/../AVR8/Endpoint_AVR8.h **** 				#define ENDPOINT_DETAILS_EP3               64,  2
 118:lufa-lib-svn/LUFA/Drivers/USB/Class/Device/../../Core/AVR8/../AVR8/Endpoint_AVR8.h **** 				#define ENDPOINT_DETAILS_EP4               64,  2
 119:lufa-lib-svn/LUFA/Drivers/USB/Class/Device/../../Core/AVR8/../AVR8/Endpoint_AVR8.h **** 			#endif
 120:lufa-lib-svn/LUFA/Drivers/USB/Class/Device/../../Core/AVR8/../AVR8/Endpoint_AVR8.h **** 
 121:lufa-lib-svn/LUFA/Drivers/USB/Class/Device/../../Core/AVR8/../AVR8/Endpoint_AVR8.h **** 		/* Inline Functions: */
 122:lufa-lib-svn/LUFA/Drivers/USB/Class/Device/../../Core/AVR8/../AVR8/Endpoint_AVR8.h **** 			static inline uint8_t Endpoint_BytesToEPSizeMask(const uint16_t Bytes) ATTR_WARN_UNUSED_RESULT A
 123:lufa-lib-svn/LUFA/Drivers/USB/Class/Device/../../Core/AVR8/../AVR8/Endpoint_AVR8.h **** 			                                                                       ATTR_ALWAYS_INLINE;
 124:lufa-lib-svn/LUFA/Drivers/USB/Class/Device/../../Core/AVR8/../AVR8/Endpoint_AVR8.h **** 			static inline uint8_t Endpoint_BytesToEPSizeMask(const uint16_t Bytes)
 125:lufa-lib-svn/LUFA/Drivers/USB/Class/Device/../../Core/AVR8/../AVR8/Endpoint_AVR8.h **** 			{
 126:lufa-lib-svn/LUFA/Drivers/USB/Class/Device/../../Core/AVR8/../AVR8/Endpoint_AVR8.h **** 				uint8_t  MaskVal    = 0;
 127:lufa-lib-svn/LUFA/Drivers/USB/Class/Device/../../Core/AVR8/../AVR8/Endpoint_AVR8.h **** 				uint16_t CheckBytes = 8;
 131               		.loc 2 127 0 discriminator 3
 132 005e E8E0      		ldi r30,lo8(8)
 133 0060 F0E0      		ldi r31,0
 126:lufa-lib-svn/LUFA/Drivers/USB/Class/Device/../../Core/AVR8/../AVR8/Endpoint_AVR8.h **** 				uint8_t  MaskVal    = 0;
 134               		.loc 2 126 0 discriminator 3
 135 0062 50E0      		ldi r21,0
 136 0064 00C0      		rjmp .L9
 137               	.LVL19:
 138               	.L10:
 139               	.LBB95:
 140               	.LBB96:
 141               	.LBB97:
 142               	.LBB98:
 128:lufa-lib-svn/LUFA/Drivers/USB/Class/Device/../../Core/AVR8/../AVR8/Endpoint_AVR8.h **** 
 129:lufa-lib-svn/LUFA/Drivers/USB/Class/Device/../../Core/AVR8/../AVR8/Endpoint_AVR8.h **** 				while (CheckBytes < Bytes)
 130:lufa-lib-svn/LUFA/Drivers/USB/Class/Device/../../Core/AVR8/../AVR8/Endpoint_AVR8.h **** 				{
 131:lufa-lib-svn/LUFA/Drivers/USB/Class/Device/../../Core/AVR8/../AVR8/Endpoint_AVR8.h **** 					MaskVal++;
 143               		.loc 2 131 0
 144 0066 5F5F      		subi r21,lo8(-(1))
 145               	.LVL20:
 132:lufa-lib-svn/LUFA/Drivers/USB/Class/Device/../../Core/AVR8/../AVR8/Endpoint_AVR8.h **** 					CheckBytes <<= 1;
 146               		.loc 2 132 0
 147 0068 EE0F      		lsl r30
 148 006a FF1F      		rol r31
 149               	.LVL21:
 150               	.L9:
 129:lufa-lib-svn/LUFA/Drivers/USB/Class/Device/../../Core/AVR8/../AVR8/Endpoint_AVR8.h **** 				while (CheckBytes < Bytes)
 151               		.loc 2 129 0
 152 006c E217      		cp r30,r18
 153 006e F307      		cpc r31,r19
 154 0070 00F0      		brlo .L10
 155               	.LBE98:
 156               	.LBE97:
 133:lufa-lib-svn/LUFA/Drivers/USB/Class/Device/../../Core/AVR8/../AVR8/Endpoint_AVR8.h **** 				}
 134:lufa-lib-svn/LUFA/Drivers/USB/Class/Device/../../Core/AVR8/../AVR8/Endpoint_AVR8.h **** 
 135:lufa-lib-svn/LUFA/Drivers/USB/Class/Device/../../Core/AVR8/../AVR8/Endpoint_AVR8.h **** 				return (MaskVal << EPSIZE0);
 136:lufa-lib-svn/LUFA/Drivers/USB/Class/Device/../../Core/AVR8/../AVR8/Endpoint_AVR8.h **** 			}
 137:lufa-lib-svn/LUFA/Drivers/USB/Class/Device/../../Core/AVR8/../AVR8/Endpoint_AVR8.h **** 
 138:lufa-lib-svn/LUFA/Drivers/USB/Class/Device/../../Core/AVR8/../AVR8/Endpoint_AVR8.h **** 		/* Function Prototypes: */
 139:lufa-lib-svn/LUFA/Drivers/USB/Class/Device/../../Core/AVR8/../AVR8/Endpoint_AVR8.h **** 			void Endpoint_ClearEndpoints(void);
 140:lufa-lib-svn/LUFA/Drivers/USB/Class/Device/../../Core/AVR8/../AVR8/Endpoint_AVR8.h **** 			bool Endpoint_ConfigureEndpoint_Prv(const uint8_t Number,
 141:lufa-lib-svn/LUFA/Drivers/USB/Class/Device/../../Core/AVR8/../AVR8/Endpoint_AVR8.h **** 			                                    const uint8_t UECFG0XData,
 142:lufa-lib-svn/LUFA/Drivers/USB/Class/Device/../../Core/AVR8/../AVR8/Endpoint_AVR8.h **** 			                                    const uint8_t UECFG1XData);
 143:lufa-lib-svn/LUFA/Drivers/USB/Class/Device/../../Core/AVR8/../AVR8/Endpoint_AVR8.h **** 
 144:lufa-lib-svn/LUFA/Drivers/USB/Class/Device/../../Core/AVR8/../AVR8/Endpoint_AVR8.h **** 	#endif
 145:lufa-lib-svn/LUFA/Drivers/USB/Class/Device/../../Core/AVR8/../AVR8/Endpoint_AVR8.h **** 
 146:lufa-lib-svn/LUFA/Drivers/USB/Class/Device/../../Core/AVR8/../AVR8/Endpoint_AVR8.h **** 	/* Public Interface - May be used in end-application: */
 147:lufa-lib-svn/LUFA/Drivers/USB/Class/Device/../../Core/AVR8/../AVR8/Endpoint_AVR8.h **** 		/* Macros: */
 148:lufa-lib-svn/LUFA/Drivers/USB/Class/Device/../../Core/AVR8/../AVR8/Endpoint_AVR8.h **** 			/** \name Endpoint Bank Mode Masks */
 149:lufa-lib-svn/LUFA/Drivers/USB/Class/Device/../../Core/AVR8/../AVR8/Endpoint_AVR8.h **** 			//@{
 150:lufa-lib-svn/LUFA/Drivers/USB/Class/Device/../../Core/AVR8/../AVR8/Endpoint_AVR8.h **** 			/** Mask for the bank mode selection for the \ref Endpoint_ConfigureEndpoint() macro. This indic
 151:lufa-lib-svn/LUFA/Drivers/USB/Class/Device/../../Core/AVR8/../AVR8/Endpoint_AVR8.h **** 			 *  that the endpoint should have one single bank, which requires less USB FIFO memory but resul
 152:lufa-lib-svn/LUFA/Drivers/USB/Class/Device/../../Core/AVR8/../AVR8/Endpoint_AVR8.h **** 			 *  in slower transfers as only one USB device (the AVR or the host) can access the endpoint's
 153:lufa-lib-svn/LUFA/Drivers/USB/Class/Device/../../Core/AVR8/../AVR8/Endpoint_AVR8.h **** 			 *  bank at the one time.
 154:lufa-lib-svn/LUFA/Drivers/USB/Class/Device/../../Core/AVR8/../AVR8/Endpoint_AVR8.h **** 			 */
 155:lufa-lib-svn/LUFA/Drivers/USB/Class/Device/../../Core/AVR8/../AVR8/Endpoint_AVR8.h **** 			#define ENDPOINT_BANK_SINGLE                    (0 << EPBK0)
 156:lufa-lib-svn/LUFA/Drivers/USB/Class/Device/../../Core/AVR8/../AVR8/Endpoint_AVR8.h **** 
 157:lufa-lib-svn/LUFA/Drivers/USB/Class/Device/../../Core/AVR8/../AVR8/Endpoint_AVR8.h **** 			/** Mask for the bank mode selection for the \ref Endpoint_ConfigureEndpoint() macro. This indic
 158:lufa-lib-svn/LUFA/Drivers/USB/Class/Device/../../Core/AVR8/../AVR8/Endpoint_AVR8.h **** 			 *  that the endpoint should have two banks, which requires more USB FIFO memory but results
 159:lufa-lib-svn/LUFA/Drivers/USB/Class/Device/../../Core/AVR8/../AVR8/Endpoint_AVR8.h **** 			 *  in faster transfers as one USB device (the AVR or the host) can access one bank while the ot
 160:lufa-lib-svn/LUFA/Drivers/USB/Class/Device/../../Core/AVR8/../AVR8/Endpoint_AVR8.h **** 			 *  accesses the second bank.
 161:lufa-lib-svn/LUFA/Drivers/USB/Class/Device/../../Core/AVR8/../AVR8/Endpoint_AVR8.h **** 			 */
 162:lufa-lib-svn/LUFA/Drivers/USB/Class/Device/../../Core/AVR8/../AVR8/Endpoint_AVR8.h **** 			#define ENDPOINT_BANK_DOUBLE                    (1 << EPBK0)
 163:lufa-lib-svn/LUFA/Drivers/USB/Class/Device/../../Core/AVR8/../AVR8/Endpoint_AVR8.h **** 			//@}
 164:lufa-lib-svn/LUFA/Drivers/USB/Class/Device/../../Core/AVR8/../AVR8/Endpoint_AVR8.h **** 
 165:lufa-lib-svn/LUFA/Drivers/USB/Class/Device/../../Core/AVR8/../AVR8/Endpoint_AVR8.h **** 			#if (!defined(FIXED_CONTROL_ENDPOINT_SIZE) || defined(__DOXYGEN__))
 166:lufa-lib-svn/LUFA/Drivers/USB/Class/Device/../../Core/AVR8/../AVR8/Endpoint_AVR8.h **** 				/** Default size of the default control endpoint's bank, until altered by the control endpoint 
 167:lufa-lib-svn/LUFA/Drivers/USB/Class/Device/../../Core/AVR8/../AVR8/Endpoint_AVR8.h **** 				 *  value in the device descriptor. Not available if the \c FIXED_CONTROL_ENDPOINT_SIZE token i
 168:lufa-lib-svn/LUFA/Drivers/USB/Class/Device/../../Core/AVR8/../AVR8/Endpoint_AVR8.h **** 				 */
 169:lufa-lib-svn/LUFA/Drivers/USB/Class/Device/../../Core/AVR8/../AVR8/Endpoint_AVR8.h **** 				#define ENDPOINT_CONTROLEP_DEFAULT_SIZE     8
 170:lufa-lib-svn/LUFA/Drivers/USB/Class/Device/../../Core/AVR8/../AVR8/Endpoint_AVR8.h **** 			#endif
 171:lufa-lib-svn/LUFA/Drivers/USB/Class/Device/../../Core/AVR8/../AVR8/Endpoint_AVR8.h **** 
 172:lufa-lib-svn/LUFA/Drivers/USB/Class/Device/../../Core/AVR8/../AVR8/Endpoint_AVR8.h **** 			/** Retrieves the maximum bank size in bytes of a given endpoint.
 173:lufa-lib-svn/LUFA/Drivers/USB/Class/Device/../../Core/AVR8/../AVR8/Endpoint_AVR8.h **** 			 *
 174:lufa-lib-svn/LUFA/Drivers/USB/Class/Device/../../Core/AVR8/../AVR8/Endpoint_AVR8.h **** 			 *  \note This macro will only work correctly on endpoint indexes that are compile-time constant
 175:lufa-lib-svn/LUFA/Drivers/USB/Class/Device/../../Core/AVR8/../AVR8/Endpoint_AVR8.h **** 			 *        defined by the preprocessor.
 176:lufa-lib-svn/LUFA/Drivers/USB/Class/Device/../../Core/AVR8/../AVR8/Endpoint_AVR8.h **** 			 *
 177:lufa-lib-svn/LUFA/Drivers/USB/Class/Device/../../Core/AVR8/../AVR8/Endpoint_AVR8.h **** 			 *  \param[in] EPIndex  Endpoint number, a value between 0 and (\ref ENDPOINT_TOTAL_ENDPOINTS - 
 178:lufa-lib-svn/LUFA/Drivers/USB/Class/Device/../../Core/AVR8/../AVR8/Endpoint_AVR8.h **** 			 */
 179:lufa-lib-svn/LUFA/Drivers/USB/Class/Device/../../Core/AVR8/../AVR8/Endpoint_AVR8.h **** 			#define ENDPOINT_MAX_SIZE(EPIndex)              _ENDPOINT_GET_MAXSIZE(EPIndex)
 180:lufa-lib-svn/LUFA/Drivers/USB/Class/Device/../../Core/AVR8/../AVR8/Endpoint_AVR8.h **** 
 181:lufa-lib-svn/LUFA/Drivers/USB/Class/Device/../../Core/AVR8/../AVR8/Endpoint_AVR8.h **** 			/** Retrieves the total number of banks supported by the given endpoint.
 182:lufa-lib-svn/LUFA/Drivers/USB/Class/Device/../../Core/AVR8/../AVR8/Endpoint_AVR8.h **** 			 *
 183:lufa-lib-svn/LUFA/Drivers/USB/Class/Device/../../Core/AVR8/../AVR8/Endpoint_AVR8.h **** 			 *  \note This macro will only work correctly on endpoint indexes that are compile-time constant
 184:lufa-lib-svn/LUFA/Drivers/USB/Class/Device/../../Core/AVR8/../AVR8/Endpoint_AVR8.h **** 			 *        defined by the preprocessor.
 185:lufa-lib-svn/LUFA/Drivers/USB/Class/Device/../../Core/AVR8/../AVR8/Endpoint_AVR8.h **** 			 *
 186:lufa-lib-svn/LUFA/Drivers/USB/Class/Device/../../Core/AVR8/../AVR8/Endpoint_AVR8.h **** 			 *  \param[in] EPIndex  Endpoint number, a value between 0 and (\ref ENDPOINT_TOTAL_ENDPOINTS - 
 187:lufa-lib-svn/LUFA/Drivers/USB/Class/Device/../../Core/AVR8/../AVR8/Endpoint_AVR8.h **** 			 */
 188:lufa-lib-svn/LUFA/Drivers/USB/Class/Device/../../Core/AVR8/../AVR8/Endpoint_AVR8.h **** 			#define ENDPOINT_BANKS_SUPPORTED(EPIndex)       _ENDPOINT_GET_BANKS(EPIndex)
 189:lufa-lib-svn/LUFA/Drivers/USB/Class/Device/../../Core/AVR8/../AVR8/Endpoint_AVR8.h **** 
 190:lufa-lib-svn/LUFA/Drivers/USB/Class/Device/../../Core/AVR8/../AVR8/Endpoint_AVR8.h **** 			#if !defined(CONTROL_ONLY_DEVICE) || defined(__DOXYGEN__)
 191:lufa-lib-svn/LUFA/Drivers/USB/Class/Device/../../Core/AVR8/../AVR8/Endpoint_AVR8.h **** 				/** Total number of endpoints (including the default control endpoint at address 0) which may
 192:lufa-lib-svn/LUFA/Drivers/USB/Class/Device/../../Core/AVR8/../AVR8/Endpoint_AVR8.h **** 				 *  be used in the device. Different USB AVR models support different amounts of endpoints,
 193:lufa-lib-svn/LUFA/Drivers/USB/Class/Device/../../Core/AVR8/../AVR8/Endpoint_AVR8.h **** 				 *  this value reflects the maximum number of endpoints for the currently selected AVR model.
 194:lufa-lib-svn/LUFA/Drivers/USB/Class/Device/../../Core/AVR8/../AVR8/Endpoint_AVR8.h **** 				 */
 195:lufa-lib-svn/LUFA/Drivers/USB/Class/Device/../../Core/AVR8/../AVR8/Endpoint_AVR8.h **** 				#define ENDPOINT_TOTAL_ENDPOINTS            ENDPOINT_DETAILS_MAXEP
 196:lufa-lib-svn/LUFA/Drivers/USB/Class/Device/../../Core/AVR8/../AVR8/Endpoint_AVR8.h **** 			#else
 197:lufa-lib-svn/LUFA/Drivers/USB/Class/Device/../../Core/AVR8/../AVR8/Endpoint_AVR8.h **** 				#define ENDPOINT_TOTAL_ENDPOINTS            1
 198:lufa-lib-svn/LUFA/Drivers/USB/Class/Device/../../Core/AVR8/../AVR8/Endpoint_AVR8.h **** 			#endif
 199:lufa-lib-svn/LUFA/Drivers/USB/Class/Device/../../Core/AVR8/../AVR8/Endpoint_AVR8.h **** 
 200:lufa-lib-svn/LUFA/Drivers/USB/Class/Device/../../Core/AVR8/../AVR8/Endpoint_AVR8.h **** 		/* Enums: */
 201:lufa-lib-svn/LUFA/Drivers/USB/Class/Device/../../Core/AVR8/../AVR8/Endpoint_AVR8.h **** 			/** Enum for the possible error return codes of the \ref Endpoint_WaitUntilReady() function.
 202:lufa-lib-svn/LUFA/Drivers/USB/Class/Device/../../Core/AVR8/../AVR8/Endpoint_AVR8.h **** 			 *
 203:lufa-lib-svn/LUFA/Drivers/USB/Class/Device/../../Core/AVR8/../AVR8/Endpoint_AVR8.h **** 			 *  \ingroup Group_EndpointRW_AVR8
 204:lufa-lib-svn/LUFA/Drivers/USB/Class/Device/../../Core/AVR8/../AVR8/Endpoint_AVR8.h **** 			 */
 205:lufa-lib-svn/LUFA/Drivers/USB/Class/Device/../../Core/AVR8/../AVR8/Endpoint_AVR8.h **** 			enum Endpoint_WaitUntilReady_ErrorCodes_t
 206:lufa-lib-svn/LUFA/Drivers/USB/Class/Device/../../Core/AVR8/../AVR8/Endpoint_AVR8.h **** 			{
 207:lufa-lib-svn/LUFA/Drivers/USB/Class/Device/../../Core/AVR8/../AVR8/Endpoint_AVR8.h **** 				ENDPOINT_READYWAIT_NoError                 = 0, /**< Endpoint is ready for next packet, no erro
 208:lufa-lib-svn/LUFA/Drivers/USB/Class/Device/../../Core/AVR8/../AVR8/Endpoint_AVR8.h **** 				ENDPOINT_READYWAIT_EndpointStalled         = 1, /**< The endpoint was stalled during the stream
 209:lufa-lib-svn/LUFA/Drivers/USB/Class/Device/../../Core/AVR8/../AVR8/Endpoint_AVR8.h **** 				                                                 *   transfer by the host or device.
 210:lufa-lib-svn/LUFA/Drivers/USB/Class/Device/../../Core/AVR8/../AVR8/Endpoint_AVR8.h **** 				                                                 */
 211:lufa-lib-svn/LUFA/Drivers/USB/Class/Device/../../Core/AVR8/../AVR8/Endpoint_AVR8.h **** 				ENDPOINT_READYWAIT_DeviceDisconnected      = 2,	/**< Device was disconnected from the host whil
 212:lufa-lib-svn/LUFA/Drivers/USB/Class/Device/../../Core/AVR8/../AVR8/Endpoint_AVR8.h **** 				                                                 *   waiting for the endpoint to become ready.
 213:lufa-lib-svn/LUFA/Drivers/USB/Class/Device/../../Core/AVR8/../AVR8/Endpoint_AVR8.h **** 				                                                 */
 214:lufa-lib-svn/LUFA/Drivers/USB/Class/Device/../../Core/AVR8/../AVR8/Endpoint_AVR8.h **** 				ENDPOINT_READYWAIT_BusSuspended            = 3, /**< The USB bus has been suspended by the host
 215:lufa-lib-svn/LUFA/Drivers/USB/Class/Device/../../Core/AVR8/../AVR8/Endpoint_AVR8.h **** 				                                                 *   no USB endpoint traffic can occur until th
 216:lufa-lib-svn/LUFA/Drivers/USB/Class/Device/../../Core/AVR8/../AVR8/Endpoint_AVR8.h **** 				                                                 *   has resumed.
 217:lufa-lib-svn/LUFA/Drivers/USB/Class/Device/../../Core/AVR8/../AVR8/Endpoint_AVR8.h **** 				                                                 */
 218:lufa-lib-svn/LUFA/Drivers/USB/Class/Device/../../Core/AVR8/../AVR8/Endpoint_AVR8.h **** 				ENDPOINT_READYWAIT_Timeout                 = 4, /**< The host failed to accept or send the next
 219:lufa-lib-svn/LUFA/Drivers/USB/Class/Device/../../Core/AVR8/../AVR8/Endpoint_AVR8.h **** 				                                                 *   within the software timeout period set by 
 220:lufa-lib-svn/LUFA/Drivers/USB/Class/Device/../../Core/AVR8/../AVR8/Endpoint_AVR8.h **** 				                                                 *   \ref USB_STREAM_TIMEOUT_MS macro.
 221:lufa-lib-svn/LUFA/Drivers/USB/Class/Device/../../Core/AVR8/../AVR8/Endpoint_AVR8.h **** 				                                                 */
 222:lufa-lib-svn/LUFA/Drivers/USB/Class/Device/../../Core/AVR8/../AVR8/Endpoint_AVR8.h **** 				ENDPOINT_READYWAIT_TransmissionInProgress  = 5, /**< The bank for the USB endpoint is currently
 223:lufa-lib-svn/LUFA/Drivers/USB/Class/Device/../../Core/AVR8/../AVR8/Endpoint_AVR8.h ****                                                          *   and can't be written at the moment.
 224:lufa-lib-svn/LUFA/Drivers/USB/Class/Device/../../Core/AVR8/../AVR8/Endpoint_AVR8.h **** 				                                                 */
 225:lufa-lib-svn/LUFA/Drivers/USB/Class/Device/../../Core/AVR8/../AVR8/Endpoint_AVR8.h **** 
 226:lufa-lib-svn/LUFA/Drivers/USB/Class/Device/../../Core/AVR8/../AVR8/Endpoint_AVR8.h **** 			};
 227:lufa-lib-svn/LUFA/Drivers/USB/Class/Device/../../Core/AVR8/../AVR8/Endpoint_AVR8.h **** 
 228:lufa-lib-svn/LUFA/Drivers/USB/Class/Device/../../Core/AVR8/../AVR8/Endpoint_AVR8.h **** 		/* Inline Functions: */
 229:lufa-lib-svn/LUFA/Drivers/USB/Class/Device/../../Core/AVR8/../AVR8/Endpoint_AVR8.h **** 			/** Configures the specified endpoint number with the given endpoint type, direction, bank size
 230:lufa-lib-svn/LUFA/Drivers/USB/Class/Device/../../Core/AVR8/../AVR8/Endpoint_AVR8.h **** 			 *  and banking mode. Once configured, the endpoint may be read from or written to, depending
 231:lufa-lib-svn/LUFA/Drivers/USB/Class/Device/../../Core/AVR8/../AVR8/Endpoint_AVR8.h **** 			 *  on its direction.
 232:lufa-lib-svn/LUFA/Drivers/USB/Class/Device/../../Core/AVR8/../AVR8/Endpoint_AVR8.h **** 			 *
 233:lufa-lib-svn/LUFA/Drivers/USB/Class/Device/../../Core/AVR8/../AVR8/Endpoint_AVR8.h **** 			 *  \param[in] Number     Endpoint number to configure. This must be more than 0 and less than
 234:lufa-lib-svn/LUFA/Drivers/USB/Class/Device/../../Core/AVR8/../AVR8/Endpoint_AVR8.h **** 			 *                        \ref ENDPOINT_TOTAL_ENDPOINTS.
 235:lufa-lib-svn/LUFA/Drivers/USB/Class/Device/../../Core/AVR8/../AVR8/Endpoint_AVR8.h **** 			 *
 236:lufa-lib-svn/LUFA/Drivers/USB/Class/Device/../../Core/AVR8/../AVR8/Endpoint_AVR8.h **** 			 *  \param[in] Type       Type of endpoint to configure, a \c EP_TYPE_* mask. Not all endpoint t
 237:lufa-lib-svn/LUFA/Drivers/USB/Class/Device/../../Core/AVR8/../AVR8/Endpoint_AVR8.h **** 			 *                        are available on Low Speed USB devices - refer to the USB 2.0 specific
 238:lufa-lib-svn/LUFA/Drivers/USB/Class/Device/../../Core/AVR8/../AVR8/Endpoint_AVR8.h **** 			 *
 239:lufa-lib-svn/LUFA/Drivers/USB/Class/Device/../../Core/AVR8/../AVR8/Endpoint_AVR8.h **** 			 *  \param[in] Direction  Endpoint data direction, either \ref ENDPOINT_DIR_OUT or \ref ENDPOINT
 240:lufa-lib-svn/LUFA/Drivers/USB/Class/Device/../../Core/AVR8/../AVR8/Endpoint_AVR8.h **** 			 *                        All endpoints (except Control type) are unidirectional - data may only
 241:lufa-lib-svn/LUFA/Drivers/USB/Class/Device/../../Core/AVR8/../AVR8/Endpoint_AVR8.h **** 			 *                        from or written to the endpoint bank based on its direction, not both.
 242:lufa-lib-svn/LUFA/Drivers/USB/Class/Device/../../Core/AVR8/../AVR8/Endpoint_AVR8.h **** 			 *
 243:lufa-lib-svn/LUFA/Drivers/USB/Class/Device/../../Core/AVR8/../AVR8/Endpoint_AVR8.h **** 			 *  \param[in] Size       Size of the endpoint's bank, where packets are stored before they are 
 244:lufa-lib-svn/LUFA/Drivers/USB/Class/Device/../../Core/AVR8/../AVR8/Endpoint_AVR8.h **** 			 *                        to the USB host, or after they have been received from the USB host (d
 245:lufa-lib-svn/LUFA/Drivers/USB/Class/Device/../../Core/AVR8/../AVR8/Endpoint_AVR8.h **** 			 *                        the endpoint's data direction). The bank size must indicate the maximu
 246:lufa-lib-svn/LUFA/Drivers/USB/Class/Device/../../Core/AVR8/../AVR8/Endpoint_AVR8.h **** 			 *                        that the endpoint can handle.
 247:lufa-lib-svn/LUFA/Drivers/USB/Class/Device/../../Core/AVR8/../AVR8/Endpoint_AVR8.h **** 			 *
 248:lufa-lib-svn/LUFA/Drivers/USB/Class/Device/../../Core/AVR8/../AVR8/Endpoint_AVR8.h **** 			 *  \param[in] Banks      Number of banks to use for the endpoint being configured, an \c ENDPOI
 249:lufa-lib-svn/LUFA/Drivers/USB/Class/Device/../../Core/AVR8/../AVR8/Endpoint_AVR8.h **** 			 *                        More banks uses more USB DPRAM, but offers better performance. Isochro
 250:lufa-lib-svn/LUFA/Drivers/USB/Class/Device/../../Core/AVR8/../AVR8/Endpoint_AVR8.h **** 			 *                        endpoints <b>must</b> have at least two banks.
 251:lufa-lib-svn/LUFA/Drivers/USB/Class/Device/../../Core/AVR8/../AVR8/Endpoint_AVR8.h **** 			 *
 252:lufa-lib-svn/LUFA/Drivers/USB/Class/Device/../../Core/AVR8/../AVR8/Endpoint_AVR8.h **** 			 *  \note When the \c ORDERED_EP_CONFIG compile time option is used, Endpoints <b>must</b> be co
 253:lufa-lib-svn/LUFA/Drivers/USB/Class/Device/../../Core/AVR8/../AVR8/Endpoint_AVR8.h **** 			 *        ascending order, or bank corruption will occur.
 254:lufa-lib-svn/LUFA/Drivers/USB/Class/Device/../../Core/AVR8/../AVR8/Endpoint_AVR8.h **** 			 *        \n\n
 255:lufa-lib-svn/LUFA/Drivers/USB/Class/Device/../../Core/AVR8/../AVR8/Endpoint_AVR8.h **** 			 *
 256:lufa-lib-svn/LUFA/Drivers/USB/Class/Device/../../Core/AVR8/../AVR8/Endpoint_AVR8.h **** 			 *  \note Different endpoints may have different maximum packet sizes based on the endpoint's in
 257:lufa-lib-svn/LUFA/Drivers/USB/Class/Device/../../Core/AVR8/../AVR8/Endpoint_AVR8.h **** 			 *        the chosen microcontroller model's datasheet to determine the maximum bank size for ea
 258:lufa-lib-svn/LUFA/Drivers/USB/Class/Device/../../Core/AVR8/../AVR8/Endpoint_AVR8.h **** 			 *        \n\n
 259:lufa-lib-svn/LUFA/Drivers/USB/Class/Device/../../Core/AVR8/../AVR8/Endpoint_AVR8.h **** 			 *
 260:lufa-lib-svn/LUFA/Drivers/USB/Class/Device/../../Core/AVR8/../AVR8/Endpoint_AVR8.h **** 			 *  \note The default control endpoint should not be manually configured by the user application
 261:lufa-lib-svn/LUFA/Drivers/USB/Class/Device/../../Core/AVR8/../AVR8/Endpoint_AVR8.h **** 			 *        it is automatically configured by the library internally.
 262:lufa-lib-svn/LUFA/Drivers/USB/Class/Device/../../Core/AVR8/../AVR8/Endpoint_AVR8.h **** 			 *        \n\n
 263:lufa-lib-svn/LUFA/Drivers/USB/Class/Device/../../Core/AVR8/../AVR8/Endpoint_AVR8.h **** 			 *
 264:lufa-lib-svn/LUFA/Drivers/USB/Class/Device/../../Core/AVR8/../AVR8/Endpoint_AVR8.h **** 			 *  \note This routine will automatically select the specified endpoint upon success. Upon failu
 265:lufa-lib-svn/LUFA/Drivers/USB/Class/Device/../../Core/AVR8/../AVR8/Endpoint_AVR8.h **** 			 *        which failed to reconfigure correctly will be selected.
 266:lufa-lib-svn/LUFA/Drivers/USB/Class/Device/../../Core/AVR8/../AVR8/Endpoint_AVR8.h **** 			 *
 267:lufa-lib-svn/LUFA/Drivers/USB/Class/Device/../../Core/AVR8/../AVR8/Endpoint_AVR8.h **** 			 *  \return Boolean \c true if the configuration succeeded, \c false otherwise.
 268:lufa-lib-svn/LUFA/Drivers/USB/Class/Device/../../Core/AVR8/../AVR8/Endpoint_AVR8.h **** 			 */
 269:lufa-lib-svn/LUFA/Drivers/USB/Class/Device/../../Core/AVR8/../AVR8/Endpoint_AVR8.h **** 			static inline bool Endpoint_ConfigureEndpoint(const uint8_t Number,
 270:lufa-lib-svn/LUFA/Drivers/USB/Class/Device/../../Core/AVR8/../AVR8/Endpoint_AVR8.h **** 			                                              const uint8_t Type,
 271:lufa-lib-svn/LUFA/Drivers/USB/Class/Device/../../Core/AVR8/../AVR8/Endpoint_AVR8.h **** 			                                              const uint8_t Direction,
 272:lufa-lib-svn/LUFA/Drivers/USB/Class/Device/../../Core/AVR8/../AVR8/Endpoint_AVR8.h **** 			                                              const uint16_t Size,
 273:lufa-lib-svn/LUFA/Drivers/USB/Class/Device/../../Core/AVR8/../AVR8/Endpoint_AVR8.h **** 			                                              const uint8_t Banks) ATTR_ALWAYS_INLINE;
 274:lufa-lib-svn/LUFA/Drivers/USB/Class/Device/../../Core/AVR8/../AVR8/Endpoint_AVR8.h **** 			static inline bool Endpoint_ConfigureEndpoint(const uint8_t Number,
 275:lufa-lib-svn/LUFA/Drivers/USB/Class/Device/../../Core/AVR8/../AVR8/Endpoint_AVR8.h **** 			                                              const uint8_t Type,
 276:lufa-lib-svn/LUFA/Drivers/USB/Class/Device/../../Core/AVR8/../AVR8/Endpoint_AVR8.h **** 			                                              const uint8_t Direction,
 277:lufa-lib-svn/LUFA/Drivers/USB/Class/Device/../../Core/AVR8/../AVR8/Endpoint_AVR8.h **** 			                                              const uint16_t Size,
 278:lufa-lib-svn/LUFA/Drivers/USB/Class/Device/../../Core/AVR8/../AVR8/Endpoint_AVR8.h **** 			                                              const uint8_t Banks)
 279:lufa-lib-svn/LUFA/Drivers/USB/Class/Device/../../Core/AVR8/../AVR8/Endpoint_AVR8.h **** 			{
 280:lufa-lib-svn/LUFA/Drivers/USB/Class/Device/../../Core/AVR8/../AVR8/Endpoint_AVR8.h **** 				return Endpoint_ConfigureEndpoint_Prv(Number, ((Type << EPTYPE0) | (Direction ? (1 << EPDIR) : 
 157               		.loc 2 280 0
 158 0072 4260      		ori r20,lo8(2)
 159               	.LVL22:
 160               	.LBB100:
 161               	.LBB99:
 135:lufa-lib-svn/LUFA/Drivers/USB/Class/Device/../../Core/AVR8/../AVR8/Endpoint_AVR8.h **** 				return (MaskVal << EPSIZE0);
 162               		.loc 2 135 0
 163 0074 5295      		swap r21
 164               	.LVL23:
 165 0076 507F      		andi r21,lo8(-16)
 166               	.LBE99:
 167               	.LBE100:
 168               		.loc 2 280 0
 169 0078 452B      		or r20,r21
 170 007a B0E4      		ldi r27,lo8(64)
 171 007c 9B9F      		mul r25,r27
 172 007e 9001      		movw r18,r0
 173 0080 1124      		clr __zero_reg__
 174               	.LVL24:
 175 0082 61E0      		ldi r22,lo8(1)
 176 0084 8111      		cpse r24,__zero_reg__
 177 0086 00C0      		rjmp .L11
 178 0088 60E0      		ldi r22,0
 179               	.L11:
 180 008a 622B      		or r22,r18
 181 008c 812F      		mov r24,r17
 182               	.LVL25:
 183 008e 0E94 0000 		call Endpoint_ConfigureEndpoint_Prv
 184               	.LVL26:
 185               	.LBE96:
 186               	.LBE95:
 148:lufa-lib-svn/LUFA/Drivers/USB/Class/Device/CDCClassDevice.c **** 		if (!(Endpoint_ConfigureEndpoint(EndpointNum, Type, Direction, Size,
 187               		.loc 1 148 0
 188 0092 8111      		cpse r24,__zero_reg__
 189 0094 00C0      		rjmp .L12
 190               	.LVL27:
 191               	.L7:
 192               	/* epilogue start */
 193               	.LBE101:
 194               	.LBE93:
 156:lufa-lib-svn/LUFA/Drivers/USB/Class/Device/CDCClassDevice.c **** }
 195               		.loc 1 156 0
 196 0096 DF91      		pop r29
 197 0098 CF91      		pop r28
 198               	.LVL28:
 199 009a 1F91      		pop r17
 200 009c 0895      		ret
 201               		.cfi_endproc
 202               	.LFE100:
 204               		.section	.text.CDC_Device_SendString,"ax",@progbits
 205               	.global	CDC_Device_SendString
 207               	CDC_Device_SendString:
 208               	.LFB102:
 157:lufa-lib-svn/LUFA/Drivers/USB/Class/Device/CDCClassDevice.c **** 
 158:lufa-lib-svn/LUFA/Drivers/USB/Class/Device/CDCClassDevice.c **** void CDC_Device_USBTask(USB_ClassInfo_CDC_Device_t* const CDCInterfaceInfo)
 159:lufa-lib-svn/LUFA/Drivers/USB/Class/Device/CDCClassDevice.c **** {
 160:lufa-lib-svn/LUFA/Drivers/USB/Class/Device/CDCClassDevice.c **** 	if ((USB_DeviceState != DEVICE_STATE_Configured) || !(CDCInterfaceInfo->State.LineEncoding.BaudRat
 161:lufa-lib-svn/LUFA/Drivers/USB/Class/Device/CDCClassDevice.c **** 	  return;
 162:lufa-lib-svn/LUFA/Drivers/USB/Class/Device/CDCClassDevice.c **** 
 163:lufa-lib-svn/LUFA/Drivers/USB/Class/Device/CDCClassDevice.c **** 	#if !defined(NO_CLASS_DRIVER_AUTOFLUSH)
 164:lufa-lib-svn/LUFA/Drivers/USB/Class/Device/CDCClassDevice.c **** 	CDC_Device_Flush(CDCInterfaceInfo);
 165:lufa-lib-svn/LUFA/Drivers/USB/Class/Device/CDCClassDevice.c **** 	#endif
 166:lufa-lib-svn/LUFA/Drivers/USB/Class/Device/CDCClassDevice.c **** }
 167:lufa-lib-svn/LUFA/Drivers/USB/Class/Device/CDCClassDevice.c **** 
 168:lufa-lib-svn/LUFA/Drivers/USB/Class/Device/CDCClassDevice.c **** uint8_t CDC_Device_SendString(USB_ClassInfo_CDC_Device_t* const CDCInterfaceInfo,
 169:lufa-lib-svn/LUFA/Drivers/USB/Class/Device/CDCClassDevice.c ****                               const char* const String)
 170:lufa-lib-svn/LUFA/Drivers/USB/Class/Device/CDCClassDevice.c **** {
 209               		.loc 1 170 0
 210               		.cfi_startproc
 211               	.LVL29:
 212               	/* prologue: function */
 213               	/* frame size = 0 */
 214               	/* stack size = 0 */
 215               	.L__stack_usage = 0
 216 0000 FC01      		movw r30,r24
 217 0002 CB01      		movw r24,r22
 218               	.LVL30:
 171:lufa-lib-svn/LUFA/Drivers/USB/Class/Device/CDCClassDevice.c **** 	if ((USB_DeviceState != DEVICE_STATE_Configured) || !(CDCInterfaceInfo->State.LineEncoding.BaudRat
 219               		.loc 1 171 0
 220 0004 2EB3      		in r18,0x1e
 221 0006 2430      		cpi r18,lo8(4)
 222 0008 01F4      		brne .L17
 223               		.loc 1 171 0 is_stmt 0 discriminator 1
 224 000a 4189      		ldd r20,Z+17
 225 000c 5289      		ldd r21,Z+18
 226 000e 6389      		ldd r22,Z+19
 227 0010 7489      		ldd r23,Z+20
 228 0012 452B      		or r20,r21
 229 0014 462B      		or r20,r22
 230 0016 472B      		or r20,r23
 231 0018 01F0      		breq .L17
 172:lufa-lib-svn/LUFA/Drivers/USB/Class/Device/CDCClassDevice.c **** 	  return ENDPOINT_RWSTREAM_DeviceDisconnected;
 173:lufa-lib-svn/LUFA/Drivers/USB/Class/Device/CDCClassDevice.c **** 
 174:lufa-lib-svn/LUFA/Drivers/USB/Class/Device/CDCClassDevice.c **** 	Endpoint_SelectEndpoint(CDCInterfaceInfo->Config.DataINEndpointNumber);
 232               		.loc 1 174 0 is_stmt 1
 233 001a 2181      		ldd r18,Z+1
 234               	.LVL31:
 235               	.LBB102:
 236               	.LBB103:
 281:lufa-lib-svn/LUFA/Drivers/USB/Class/Device/../../Core/AVR8/../AVR8/Endpoint_AVR8.h **** 				                                      ((1 << ALLOC) | Banks | Endpoint_BytesToEPSizeMask(Size))
 282:lufa-lib-svn/LUFA/Drivers/USB/Class/Device/../../Core/AVR8/../AVR8/Endpoint_AVR8.h **** 			}
 283:lufa-lib-svn/LUFA/Drivers/USB/Class/Device/../../Core/AVR8/../AVR8/Endpoint_AVR8.h **** 
 284:lufa-lib-svn/LUFA/Drivers/USB/Class/Device/../../Core/AVR8/../AVR8/Endpoint_AVR8.h **** 			/** Indicates the number of bytes currently stored in the current endpoint's selected bank.
 285:lufa-lib-svn/LUFA/Drivers/USB/Class/Device/../../Core/AVR8/../AVR8/Endpoint_AVR8.h **** 			 *
 286:lufa-lib-svn/LUFA/Drivers/USB/Class/Device/../../Core/AVR8/../AVR8/Endpoint_AVR8.h **** 			 *  \note The return width of this function may differ, depending on the maximum endpoint bank s
 287:lufa-lib-svn/LUFA/Drivers/USB/Class/Device/../../Core/AVR8/../AVR8/Endpoint_AVR8.h **** 			 *        of the selected AVR model.
 288:lufa-lib-svn/LUFA/Drivers/USB/Class/Device/../../Core/AVR8/../AVR8/Endpoint_AVR8.h **** 			 *
 289:lufa-lib-svn/LUFA/Drivers/USB/Class/Device/../../Core/AVR8/../AVR8/Endpoint_AVR8.h **** 			 *  \ingroup Group_EndpointRW_AVR8
 290:lufa-lib-svn/LUFA/Drivers/USB/Class/Device/../../Core/AVR8/../AVR8/Endpoint_AVR8.h **** 			 *
 291:lufa-lib-svn/LUFA/Drivers/USB/Class/Device/../../Core/AVR8/../AVR8/Endpoint_AVR8.h **** 			 *  \return Total number of bytes in the currently selected Endpoint's FIFO buffer.
 292:lufa-lib-svn/LUFA/Drivers/USB/Class/Device/../../Core/AVR8/../AVR8/Endpoint_AVR8.h **** 			 */
 293:lufa-lib-svn/LUFA/Drivers/USB/Class/Device/../../Core/AVR8/../AVR8/Endpoint_AVR8.h **** 			static inline uint16_t Endpoint_BytesInEndpoint(void) ATTR_WARN_UNUSED_RESULT ATTR_ALWAYS_INLINE
 294:lufa-lib-svn/LUFA/Drivers/USB/Class/Device/../../Core/AVR8/../AVR8/Endpoint_AVR8.h **** 			static inline uint16_t Endpoint_BytesInEndpoint(void)
 295:lufa-lib-svn/LUFA/Drivers/USB/Class/Device/../../Core/AVR8/../AVR8/Endpoint_AVR8.h **** 			{
 296:lufa-lib-svn/LUFA/Drivers/USB/Class/Device/../../Core/AVR8/../AVR8/Endpoint_AVR8.h **** 				#if defined(USB_SERIES_6_AVR) || defined(USB_SERIES_7_AVR)
 297:lufa-lib-svn/LUFA/Drivers/USB/Class/Device/../../Core/AVR8/../AVR8/Endpoint_AVR8.h **** 					return UEBCX;
 298:lufa-lib-svn/LUFA/Drivers/USB/Class/Device/../../Core/AVR8/../AVR8/Endpoint_AVR8.h **** 				#elif defined(USB_SERIES_4_AVR)
 299:lufa-lib-svn/LUFA/Drivers/USB/Class/Device/../../Core/AVR8/../AVR8/Endpoint_AVR8.h **** 					return (((uint16_t)UEBCHX << 8) | UEBCLX);
 300:lufa-lib-svn/LUFA/Drivers/USB/Class/Device/../../Core/AVR8/../AVR8/Endpoint_AVR8.h **** 				#elif defined(USB_SERIES_2_AVR)
 301:lufa-lib-svn/LUFA/Drivers/USB/Class/Device/../../Core/AVR8/../AVR8/Endpoint_AVR8.h **** 					return UEBCLX;
 302:lufa-lib-svn/LUFA/Drivers/USB/Class/Device/../../Core/AVR8/../AVR8/Endpoint_AVR8.h **** 				#endif
 303:lufa-lib-svn/LUFA/Drivers/USB/Class/Device/../../Core/AVR8/../AVR8/Endpoint_AVR8.h **** 			}
 304:lufa-lib-svn/LUFA/Drivers/USB/Class/Device/../../Core/AVR8/../AVR8/Endpoint_AVR8.h **** 
 305:lufa-lib-svn/LUFA/Drivers/USB/Class/Device/../../Core/AVR8/../AVR8/Endpoint_AVR8.h **** 			/** Get the endpoint address of the currently selected endpoint. This is typically used to save
 306:lufa-lib-svn/LUFA/Drivers/USB/Class/Device/../../Core/AVR8/../AVR8/Endpoint_AVR8.h **** 			 *  the currently selected endpoint number so that it can be restored after another endpoint has
 307:lufa-lib-svn/LUFA/Drivers/USB/Class/Device/../../Core/AVR8/../AVR8/Endpoint_AVR8.h **** 			 *  been manipulated.
 308:lufa-lib-svn/LUFA/Drivers/USB/Class/Device/../../Core/AVR8/../AVR8/Endpoint_AVR8.h **** 			 *
 309:lufa-lib-svn/LUFA/Drivers/USB/Class/Device/../../Core/AVR8/../AVR8/Endpoint_AVR8.h **** 			 *  \return Index of the currently selected endpoint.
 310:lufa-lib-svn/LUFA/Drivers/USB/Class/Device/../../Core/AVR8/../AVR8/Endpoint_AVR8.h **** 			 */
 311:lufa-lib-svn/LUFA/Drivers/USB/Class/Device/../../Core/AVR8/../AVR8/Endpoint_AVR8.h **** 			static inline uint8_t Endpoint_GetCurrentEndpoint(void) ATTR_WARN_UNUSED_RESULT ATTR_ALWAYS_INLI
 312:lufa-lib-svn/LUFA/Drivers/USB/Class/Device/../../Core/AVR8/../AVR8/Endpoint_AVR8.h **** 			static inline uint8_t Endpoint_GetCurrentEndpoint(void)
 313:lufa-lib-svn/LUFA/Drivers/USB/Class/Device/../../Core/AVR8/../AVR8/Endpoint_AVR8.h **** 			{
 314:lufa-lib-svn/LUFA/Drivers/USB/Class/Device/../../Core/AVR8/../AVR8/Endpoint_AVR8.h **** 				#if !defined(CONTROL_ONLY_DEVICE)
 315:lufa-lib-svn/LUFA/Drivers/USB/Class/Device/../../Core/AVR8/../AVR8/Endpoint_AVR8.h **** 					return (UENUM & ENDPOINT_EPNUM_MASK);
 316:lufa-lib-svn/LUFA/Drivers/USB/Class/Device/../../Core/AVR8/../AVR8/Endpoint_AVR8.h **** 				#else
 317:lufa-lib-svn/LUFA/Drivers/USB/Class/Device/../../Core/AVR8/../AVR8/Endpoint_AVR8.h **** 					return ENDPOINT_CONTROLEP;
 318:lufa-lib-svn/LUFA/Drivers/USB/Class/Device/../../Core/AVR8/../AVR8/Endpoint_AVR8.h **** 				#endif
 319:lufa-lib-svn/LUFA/Drivers/USB/Class/Device/../../Core/AVR8/../AVR8/Endpoint_AVR8.h **** 			}
 320:lufa-lib-svn/LUFA/Drivers/USB/Class/Device/../../Core/AVR8/../AVR8/Endpoint_AVR8.h **** 
 321:lufa-lib-svn/LUFA/Drivers/USB/Class/Device/../../Core/AVR8/../AVR8/Endpoint_AVR8.h **** 			/** Selects the given endpoint number. If the address from the device descriptors is used, the
 322:lufa-lib-svn/LUFA/Drivers/USB/Class/Device/../../Core/AVR8/../AVR8/Endpoint_AVR8.h **** 			 *  value should be masked with the \ref ENDPOINT_EPNUM_MASK constant to extract only the endpoi
 323:lufa-lib-svn/LUFA/Drivers/USB/Class/Device/../../Core/AVR8/../AVR8/Endpoint_AVR8.h **** 			 *  number (and discarding the endpoint direction bit).
 324:lufa-lib-svn/LUFA/Drivers/USB/Class/Device/../../Core/AVR8/../AVR8/Endpoint_AVR8.h **** 			 *
 325:lufa-lib-svn/LUFA/Drivers/USB/Class/Device/../../Core/AVR8/../AVR8/Endpoint_AVR8.h **** 			 *  Any endpoint operations which do not require the endpoint number to be indicated will operat
 326:lufa-lib-svn/LUFA/Drivers/USB/Class/Device/../../Core/AVR8/../AVR8/Endpoint_AVR8.h **** 			 *  the currently selected endpoint.
 327:lufa-lib-svn/LUFA/Drivers/USB/Class/Device/../../Core/AVR8/../AVR8/Endpoint_AVR8.h **** 			 *
 328:lufa-lib-svn/LUFA/Drivers/USB/Class/Device/../../Core/AVR8/../AVR8/Endpoint_AVR8.h **** 			 *  \param[in] EndpointNumber Endpoint number to select.
 329:lufa-lib-svn/LUFA/Drivers/USB/Class/Device/../../Core/AVR8/../AVR8/Endpoint_AVR8.h **** 			 */
 330:lufa-lib-svn/LUFA/Drivers/USB/Class/Device/../../Core/AVR8/../AVR8/Endpoint_AVR8.h **** 			static inline void Endpoint_SelectEndpoint(const uint8_t EndpointNumber) ATTR_ALWAYS_INLINE;
 331:lufa-lib-svn/LUFA/Drivers/USB/Class/Device/../../Core/AVR8/../AVR8/Endpoint_AVR8.h **** 			static inline void Endpoint_SelectEndpoint(const uint8_t EndpointNumber)
 332:lufa-lib-svn/LUFA/Drivers/USB/Class/Device/../../Core/AVR8/../AVR8/Endpoint_AVR8.h **** 			{
 333:lufa-lib-svn/LUFA/Drivers/USB/Class/Device/../../Core/AVR8/../AVR8/Endpoint_AVR8.h **** 				#if !defined(CONTROL_ONLY_DEVICE)
 334:lufa-lib-svn/LUFA/Drivers/USB/Class/Device/../../Core/AVR8/../AVR8/Endpoint_AVR8.h **** 					UENUM = EndpointNumber;
 237               		.loc 2 334 0
 238 001c 2093 E900 		sts 233,r18
 239               	.LBE103:
 240               	.LBE102:
 175:lufa-lib-svn/LUFA/Drivers/USB/Class/Device/CDCClassDevice.c **** 	return Endpoint_Write_Stream_LE(String, strlen(String), NULL);
 241               		.loc 1 175 0
 242 0020 FC01      		movw r30,r24
 243               	.LVL32:
 244               		0:
 245 0022 0190      		ld __tmp_reg__,Z+
 246 0024 0020      		tst __tmp_reg__
 247 0026 01F4      		brne 0b
 248 0028 BF01      		movw r22,r30
 249               	.LVL33:
 250 002a 6150      		subi r22,1
 251 002c 7109      		sbc r23,__zero_reg__
 252 002e 681B      		sub r22,r24
 253 0030 790B      		sbc r23,r25
 254 0032 40E0      		ldi r20,0
 255 0034 50E0      		ldi r21,0
 256 0036 0C94 0000 		jmp Endpoint_Write_Stream_LE
 257               	.LVL34:
 258               	.L17:
 176:lufa-lib-svn/LUFA/Drivers/USB/Class/Device/CDCClassDevice.c **** }
 259               		.loc 1 176 0
 260 003a 82E0      		ldi r24,lo8(2)
 261 003c 0895      		ret
 262               		.cfi_endproc
 263               	.LFE102:
 265               		.section	.text.CDC_Device_SendData,"ax",@progbits
 266               	.global	CDC_Device_SendData
 268               	CDC_Device_SendData:
 269               	.LFB103:
 177:lufa-lib-svn/LUFA/Drivers/USB/Class/Device/CDCClassDevice.c **** 
 178:lufa-lib-svn/LUFA/Drivers/USB/Class/Device/CDCClassDevice.c **** uint8_t CDC_Device_SendData(USB_ClassInfo_CDC_Device_t* const CDCInterfaceInfo,
 179:lufa-lib-svn/LUFA/Drivers/USB/Class/Device/CDCClassDevice.c ****                             const char* const Buffer,
 180:lufa-lib-svn/LUFA/Drivers/USB/Class/Device/CDCClassDevice.c ****                             const uint16_t Length)
 181:lufa-lib-svn/LUFA/Drivers/USB/Class/Device/CDCClassDevice.c **** {
 270               		.loc 1 181 0
 271               		.cfi_startproc
 272               	.LVL35:
 273 0000 0F93      		push r16
 274               	.LCFI3:
 275               		.cfi_def_cfa_offset 3
 276               		.cfi_offset 16, -2
 277 0002 1F93      		push r17
 278               	.LCFI4:
 279               		.cfi_def_cfa_offset 4
 280               		.cfi_offset 17, -3
 281               	/* prologue: function */
 282               	/* frame size = 0 */
 283               	/* stack size = 2 */
 284               	.L__stack_usage = 2
 285 0004 FC01      		movw r30,r24
 286 0006 CB01      		movw r24,r22
 287               	.LVL36:
 288 0008 BA01      		movw r22,r20
 289               	.LVL37:
 182:lufa-lib-svn/LUFA/Drivers/USB/Class/Device/CDCClassDevice.c **** 	if ((USB_DeviceState != DEVICE_STATE_Configured) || !(CDCInterfaceInfo->State.LineEncoding.BaudRat
 290               		.loc 1 182 0
 291 000a 2EB3      		in r18,0x1e
 292 000c 2430      		cpi r18,lo8(4)
 293 000e 01F4      		brne .L22
 294               		.loc 1 182 0 is_stmt 0 discriminator 1
 295 0010 0189      		ldd r16,Z+17
 296 0012 1289      		ldd r17,Z+18
 297 0014 2389      		ldd r18,Z+19
 298 0016 3489      		ldd r19,Z+20
 299 0018 012B      		or r16,r17
 300 001a 022B      		or r16,r18
 301 001c 032B      		or r16,r19
 302 001e 01F0      		breq .L22
 183:lufa-lib-svn/LUFA/Drivers/USB/Class/Device/CDCClassDevice.c **** 	  return ENDPOINT_RWSTREAM_DeviceDisconnected;
 184:lufa-lib-svn/LUFA/Drivers/USB/Class/Device/CDCClassDevice.c **** 
 185:lufa-lib-svn/LUFA/Drivers/USB/Class/Device/CDCClassDevice.c **** 	Endpoint_SelectEndpoint(CDCInterfaceInfo->Config.DataINEndpointNumber);
 303               		.loc 1 185 0 is_stmt 1
 304 0020 2181      		ldd r18,Z+1
 305               	.LVL38:
 306               	.LBB104:
 307               	.LBB105:
 308               		.loc 2 334 0
 309 0022 2093 E900 		sts 233,r18
 310               	.LBE105:
 311               	.LBE104:
 186:lufa-lib-svn/LUFA/Drivers/USB/Class/Device/CDCClassDevice.c **** 	return Endpoint_Write_Stream_LE(Buffer, Length, NULL);
 312               		.loc 1 186 0
 313 0026 40E0      		ldi r20,0
 314 0028 50E0      		ldi r21,0
 315               	.LVL39:
 316               	/* epilogue start */
 187:lufa-lib-svn/LUFA/Drivers/USB/Class/Device/CDCClassDevice.c **** }
 317               		.loc 1 187 0
 318 002a 1F91      		pop r17
 319 002c 0F91      		pop r16
 186:lufa-lib-svn/LUFA/Drivers/USB/Class/Device/CDCClassDevice.c **** 	return Endpoint_Write_Stream_LE(Buffer, Length, NULL);
 320               		.loc 1 186 0
 321 002e 0C94 0000 		jmp Endpoint_Write_Stream_LE
 322               	.LVL40:
 323               	.L22:
 324               		.loc 1 187 0
 325 0032 82E0      		ldi r24,lo8(2)
 326               	.LVL41:
 327               	/* epilogue start */
 328 0034 1F91      		pop r17
 329 0036 0F91      		pop r16
 330 0038 0895      		ret
 331               		.cfi_endproc
 332               	.LFE103:
 334               		.section	.text.CDC_Device_SendByte,"ax",@progbits
 335               	.global	CDC_Device_SendByte
 337               	CDC_Device_SendByte:
 338               	.LFB104:
 188:lufa-lib-svn/LUFA/Drivers/USB/Class/Device/CDCClassDevice.c **** 
 189:lufa-lib-svn/LUFA/Drivers/USB/Class/Device/CDCClassDevice.c **** uint8_t CDC_Device_SendByte(USB_ClassInfo_CDC_Device_t* const CDCInterfaceInfo,
 190:lufa-lib-svn/LUFA/Drivers/USB/Class/Device/CDCClassDevice.c ****                             const uint8_t Data)
 191:lufa-lib-svn/LUFA/Drivers/USB/Class/Device/CDCClassDevice.c **** {
 339               		.loc 1 191 0
 340               		.cfi_startproc
 341               	.LVL42:
 342 0000 CF93      		push r28
 343               	.LCFI5:
 344               		.cfi_def_cfa_offset 3
 345               		.cfi_offset 28, -2
 346               	/* prologue: function */
 347               	/* frame size = 0 */
 348               	/* stack size = 1 */
 349               	.L__stack_usage = 1
 350 0002 C62F      		mov r28,r22
 192:lufa-lib-svn/LUFA/Drivers/USB/Class/Device/CDCClassDevice.c **** 	if ((USB_DeviceState != DEVICE_STATE_Configured) || !(CDCInterfaceInfo->State.LineEncoding.BaudRat
 351               		.loc 1 192 0
 352 0004 2EB3      		in r18,0x1e
 353 0006 2430      		cpi r18,lo8(4)
 354 0008 01F4      		brne .L31
 355               		.loc 1 192 0 is_stmt 0 discriminator 1
 356 000a FC01      		movw r30,r24
 357 000c 4189      		ldd r20,Z+17
 358 000e 5289      		ldd r21,Z+18
 359 0010 6389      		ldd r22,Z+19
 360 0012 7489      		ldd r23,Z+20
 361 0014 452B      		or r20,r21
 362 0016 462B      		or r20,r22
 363 0018 472B      		or r20,r23
 364 001a 01F0      		breq .L31
 193:lufa-lib-svn/LUFA/Drivers/USB/Class/Device/CDCClassDevice.c **** 	  return ENDPOINT_RWSTREAM_DeviceDisconnected;
 194:lufa-lib-svn/LUFA/Drivers/USB/Class/Device/CDCClassDevice.c **** 
 195:lufa-lib-svn/LUFA/Drivers/USB/Class/Device/CDCClassDevice.c **** 	Endpoint_SelectEndpoint(CDCInterfaceInfo->Config.DataINEndpointNumber);
 365               		.loc 1 195 0 is_stmt 1
 366 001c 8181      		ldd r24,Z+1
 367               	.LVL43:
 368               	.LBB106:
 369               	.LBB107:
 370               		.loc 2 334 0
 371 001e 8093 E900 		sts 233,r24
 372               	.LBE107:
 373               	.LBE106:
 374               	.LBB108:
 375               	.LBB109:
 335:lufa-lib-svn/LUFA/Drivers/USB/Class/Device/../../Core/AVR8/../AVR8/Endpoint_AVR8.h **** 				#endif
 336:lufa-lib-svn/LUFA/Drivers/USB/Class/Device/../../Core/AVR8/../AVR8/Endpoint_AVR8.h **** 			}
 337:lufa-lib-svn/LUFA/Drivers/USB/Class/Device/../../Core/AVR8/../AVR8/Endpoint_AVR8.h **** 
 338:lufa-lib-svn/LUFA/Drivers/USB/Class/Device/../../Core/AVR8/../AVR8/Endpoint_AVR8.h **** 			/** Resets the endpoint bank FIFO. This clears all the endpoint banks and resets the USB control
 339:lufa-lib-svn/LUFA/Drivers/USB/Class/Device/../../Core/AVR8/../AVR8/Endpoint_AVR8.h **** 			 *  data In and Out pointers to the bank's contents.
 340:lufa-lib-svn/LUFA/Drivers/USB/Class/Device/../../Core/AVR8/../AVR8/Endpoint_AVR8.h **** 			 *
 341:lufa-lib-svn/LUFA/Drivers/USB/Class/Device/../../Core/AVR8/../AVR8/Endpoint_AVR8.h **** 			 *  \param[in] EndpointNumber Endpoint number whose FIFO buffers are to be reset.
 342:lufa-lib-svn/LUFA/Drivers/USB/Class/Device/../../Core/AVR8/../AVR8/Endpoint_AVR8.h **** 			 */
 343:lufa-lib-svn/LUFA/Drivers/USB/Class/Device/../../Core/AVR8/../AVR8/Endpoint_AVR8.h **** 			static inline void Endpoint_ResetEndpoint(const uint8_t EndpointNumber) ATTR_ALWAYS_INLINE;
 344:lufa-lib-svn/LUFA/Drivers/USB/Class/Device/../../Core/AVR8/../AVR8/Endpoint_AVR8.h **** 			static inline void Endpoint_ResetEndpoint(const uint8_t EndpointNumber)
 345:lufa-lib-svn/LUFA/Drivers/USB/Class/Device/../../Core/AVR8/../AVR8/Endpoint_AVR8.h **** 			{
 346:lufa-lib-svn/LUFA/Drivers/USB/Class/Device/../../Core/AVR8/../AVR8/Endpoint_AVR8.h **** 				UERST = (1 << EndpointNumber);
 347:lufa-lib-svn/LUFA/Drivers/USB/Class/Device/../../Core/AVR8/../AVR8/Endpoint_AVR8.h **** 				UERST = 0;
 348:lufa-lib-svn/LUFA/Drivers/USB/Class/Device/../../Core/AVR8/../AVR8/Endpoint_AVR8.h **** 			}
 349:lufa-lib-svn/LUFA/Drivers/USB/Class/Device/../../Core/AVR8/../AVR8/Endpoint_AVR8.h **** 
 350:lufa-lib-svn/LUFA/Drivers/USB/Class/Device/../../Core/AVR8/../AVR8/Endpoint_AVR8.h **** 			/** Enables the currently selected endpoint so that data can be sent and received through it to
 351:lufa-lib-svn/LUFA/Drivers/USB/Class/Device/../../Core/AVR8/../AVR8/Endpoint_AVR8.h **** 			 *  and from a host.
 352:lufa-lib-svn/LUFA/Drivers/USB/Class/Device/../../Core/AVR8/../AVR8/Endpoint_AVR8.h **** 			 *
 353:lufa-lib-svn/LUFA/Drivers/USB/Class/Device/../../Core/AVR8/../AVR8/Endpoint_AVR8.h **** 			 *  \note Endpoints must first be configured properly via \ref Endpoint_ConfigureEndpoint().
 354:lufa-lib-svn/LUFA/Drivers/USB/Class/Device/../../Core/AVR8/../AVR8/Endpoint_AVR8.h **** 			 */
 355:lufa-lib-svn/LUFA/Drivers/USB/Class/Device/../../Core/AVR8/../AVR8/Endpoint_AVR8.h **** 			static inline void Endpoint_EnableEndpoint(void) ATTR_ALWAYS_INLINE;
 356:lufa-lib-svn/LUFA/Drivers/USB/Class/Device/../../Core/AVR8/../AVR8/Endpoint_AVR8.h **** 			static inline void Endpoint_EnableEndpoint(void)
 357:lufa-lib-svn/LUFA/Drivers/USB/Class/Device/../../Core/AVR8/../AVR8/Endpoint_AVR8.h **** 			{
 358:lufa-lib-svn/LUFA/Drivers/USB/Class/Device/../../Core/AVR8/../AVR8/Endpoint_AVR8.h **** 				UECONX |= (1 << EPEN);
 359:lufa-lib-svn/LUFA/Drivers/USB/Class/Device/../../Core/AVR8/../AVR8/Endpoint_AVR8.h **** 			}
 360:lufa-lib-svn/LUFA/Drivers/USB/Class/Device/../../Core/AVR8/../AVR8/Endpoint_AVR8.h **** 
 361:lufa-lib-svn/LUFA/Drivers/USB/Class/Device/../../Core/AVR8/../AVR8/Endpoint_AVR8.h **** 			/** Disables the currently selected endpoint so that data cannot be sent and received through it
 362:lufa-lib-svn/LUFA/Drivers/USB/Class/Device/../../Core/AVR8/../AVR8/Endpoint_AVR8.h **** 			 *  to and from a host.
 363:lufa-lib-svn/LUFA/Drivers/USB/Class/Device/../../Core/AVR8/../AVR8/Endpoint_AVR8.h **** 			 */
 364:lufa-lib-svn/LUFA/Drivers/USB/Class/Device/../../Core/AVR8/../AVR8/Endpoint_AVR8.h **** 			static inline void Endpoint_DisableEndpoint(void) ATTR_ALWAYS_INLINE;
 365:lufa-lib-svn/LUFA/Drivers/USB/Class/Device/../../Core/AVR8/../AVR8/Endpoint_AVR8.h **** 			static inline void Endpoint_DisableEndpoint(void)
 366:lufa-lib-svn/LUFA/Drivers/USB/Class/Device/../../Core/AVR8/../AVR8/Endpoint_AVR8.h **** 			{
 367:lufa-lib-svn/LUFA/Drivers/USB/Class/Device/../../Core/AVR8/../AVR8/Endpoint_AVR8.h **** 				UECONX &= ~(1 << EPEN);
 368:lufa-lib-svn/LUFA/Drivers/USB/Class/Device/../../Core/AVR8/../AVR8/Endpoint_AVR8.h **** 			}
 369:lufa-lib-svn/LUFA/Drivers/USB/Class/Device/../../Core/AVR8/../AVR8/Endpoint_AVR8.h **** 
 370:lufa-lib-svn/LUFA/Drivers/USB/Class/Device/../../Core/AVR8/../AVR8/Endpoint_AVR8.h **** 			/** Determines if the currently selected endpoint is enabled, but not necessarily configured.
 371:lufa-lib-svn/LUFA/Drivers/USB/Class/Device/../../Core/AVR8/../AVR8/Endpoint_AVR8.h **** 			 *
 372:lufa-lib-svn/LUFA/Drivers/USB/Class/Device/../../Core/AVR8/../AVR8/Endpoint_AVR8.h **** 			 * \return Boolean \c true if the currently selected endpoint is enabled, \c false otherwise.
 373:lufa-lib-svn/LUFA/Drivers/USB/Class/Device/../../Core/AVR8/../AVR8/Endpoint_AVR8.h **** 			 */
 374:lufa-lib-svn/LUFA/Drivers/USB/Class/Device/../../Core/AVR8/../AVR8/Endpoint_AVR8.h **** 			static inline bool Endpoint_IsEnabled(void) ATTR_WARN_UNUSED_RESULT ATTR_ALWAYS_INLINE;
 375:lufa-lib-svn/LUFA/Drivers/USB/Class/Device/../../Core/AVR8/../AVR8/Endpoint_AVR8.h **** 			static inline bool Endpoint_IsEnabled(void)
 376:lufa-lib-svn/LUFA/Drivers/USB/Class/Device/../../Core/AVR8/../AVR8/Endpoint_AVR8.h **** 			{
 377:lufa-lib-svn/LUFA/Drivers/USB/Class/Device/../../Core/AVR8/../AVR8/Endpoint_AVR8.h **** 				return ((UECONX & (1 << EPEN)) ? true : false);
 378:lufa-lib-svn/LUFA/Drivers/USB/Class/Device/../../Core/AVR8/../AVR8/Endpoint_AVR8.h **** 			}
 379:lufa-lib-svn/LUFA/Drivers/USB/Class/Device/../../Core/AVR8/../AVR8/Endpoint_AVR8.h **** 
 380:lufa-lib-svn/LUFA/Drivers/USB/Class/Device/../../Core/AVR8/../AVR8/Endpoint_AVR8.h **** 			/** Retrieves the number of busy banks in the currently selected endpoint, which have been queue
 381:lufa-lib-svn/LUFA/Drivers/USB/Class/Device/../../Core/AVR8/../AVR8/Endpoint_AVR8.h **** 			 *  transmission via the \ref Endpoint_ClearIN() command, or are awaiting acknowledgement via th
 382:lufa-lib-svn/LUFA/Drivers/USB/Class/Device/../../Core/AVR8/../AVR8/Endpoint_AVR8.h **** 			 *  \ref Endpoint_ClearOUT() command.
 383:lufa-lib-svn/LUFA/Drivers/USB/Class/Device/../../Core/AVR8/../AVR8/Endpoint_AVR8.h **** 			 *
 384:lufa-lib-svn/LUFA/Drivers/USB/Class/Device/../../Core/AVR8/../AVR8/Endpoint_AVR8.h **** 			 *  \ingroup Group_EndpointPacketManagement_AVR8
 385:lufa-lib-svn/LUFA/Drivers/USB/Class/Device/../../Core/AVR8/../AVR8/Endpoint_AVR8.h **** 			 *
 386:lufa-lib-svn/LUFA/Drivers/USB/Class/Device/../../Core/AVR8/../AVR8/Endpoint_AVR8.h **** 			 *  \return Total number of busy banks in the selected endpoint.
 387:lufa-lib-svn/LUFA/Drivers/USB/Class/Device/../../Core/AVR8/../AVR8/Endpoint_AVR8.h **** 			 */
 388:lufa-lib-svn/LUFA/Drivers/USB/Class/Device/../../Core/AVR8/../AVR8/Endpoint_AVR8.h **** 			static inline uint8_t Endpoint_GetBusyBanks(void) ATTR_ALWAYS_INLINE ATTR_WARN_UNUSED_RESULT;
 389:lufa-lib-svn/LUFA/Drivers/USB/Class/Device/../../Core/AVR8/../AVR8/Endpoint_AVR8.h **** 			static inline uint8_t Endpoint_GetBusyBanks(void)
 390:lufa-lib-svn/LUFA/Drivers/USB/Class/Device/../../Core/AVR8/../AVR8/Endpoint_AVR8.h **** 			{
 391:lufa-lib-svn/LUFA/Drivers/USB/Class/Device/../../Core/AVR8/../AVR8/Endpoint_AVR8.h **** 				return (UESTA0X & (0x03 << NBUSYBK0));
 392:lufa-lib-svn/LUFA/Drivers/USB/Class/Device/../../Core/AVR8/../AVR8/Endpoint_AVR8.h **** 			}
 393:lufa-lib-svn/LUFA/Drivers/USB/Class/Device/../../Core/AVR8/../AVR8/Endpoint_AVR8.h **** 
 394:lufa-lib-svn/LUFA/Drivers/USB/Class/Device/../../Core/AVR8/../AVR8/Endpoint_AVR8.h **** 			/** Aborts all pending IN transactions on the currently selected endpoint, once the bank
 395:lufa-lib-svn/LUFA/Drivers/USB/Class/Device/../../Core/AVR8/../AVR8/Endpoint_AVR8.h **** 			 *  has been queued for transmission to the host via \ref Endpoint_ClearIN(). This function
 396:lufa-lib-svn/LUFA/Drivers/USB/Class/Device/../../Core/AVR8/../AVR8/Endpoint_AVR8.h **** 			 *  will terminate all queued transactions, resetting the endpoint banks ready for a new
 397:lufa-lib-svn/LUFA/Drivers/USB/Class/Device/../../Core/AVR8/../AVR8/Endpoint_AVR8.h **** 			 *  packet.
 398:lufa-lib-svn/LUFA/Drivers/USB/Class/Device/../../Core/AVR8/../AVR8/Endpoint_AVR8.h **** 			 *
 399:lufa-lib-svn/LUFA/Drivers/USB/Class/Device/../../Core/AVR8/../AVR8/Endpoint_AVR8.h **** 			 *  \ingroup Group_EndpointPacketManagement_AVR8
 400:lufa-lib-svn/LUFA/Drivers/USB/Class/Device/../../Core/AVR8/../AVR8/Endpoint_AVR8.h **** 			 */
 401:lufa-lib-svn/LUFA/Drivers/USB/Class/Device/../../Core/AVR8/../AVR8/Endpoint_AVR8.h **** 			static inline void Endpoint_AbortPendingIN(void)
 402:lufa-lib-svn/LUFA/Drivers/USB/Class/Device/../../Core/AVR8/../AVR8/Endpoint_AVR8.h **** 			{
 403:lufa-lib-svn/LUFA/Drivers/USB/Class/Device/../../Core/AVR8/../AVR8/Endpoint_AVR8.h **** 				while (Endpoint_GetBusyBanks() != 0)
 404:lufa-lib-svn/LUFA/Drivers/USB/Class/Device/../../Core/AVR8/../AVR8/Endpoint_AVR8.h **** 				{
 405:lufa-lib-svn/LUFA/Drivers/USB/Class/Device/../../Core/AVR8/../AVR8/Endpoint_AVR8.h **** 					UEINTX |= (1 << RXOUTI);
 406:lufa-lib-svn/LUFA/Drivers/USB/Class/Device/../../Core/AVR8/../AVR8/Endpoint_AVR8.h **** 					while (UEINTX & (1 << RXOUTI));
 407:lufa-lib-svn/LUFA/Drivers/USB/Class/Device/../../Core/AVR8/../AVR8/Endpoint_AVR8.h **** 				}
 408:lufa-lib-svn/LUFA/Drivers/USB/Class/Device/../../Core/AVR8/../AVR8/Endpoint_AVR8.h **** 			}
 409:lufa-lib-svn/LUFA/Drivers/USB/Class/Device/../../Core/AVR8/../AVR8/Endpoint_AVR8.h **** 
 410:lufa-lib-svn/LUFA/Drivers/USB/Class/Device/../../Core/AVR8/../AVR8/Endpoint_AVR8.h **** 			/** Determines if the currently selected endpoint may be read from (if data is waiting in the en
 411:lufa-lib-svn/LUFA/Drivers/USB/Class/Device/../../Core/AVR8/../AVR8/Endpoint_AVR8.h **** 			 *  bank and the endpoint is an OUT direction, or if the bank is not yet full if the endpoint is
 412:lufa-lib-svn/LUFA/Drivers/USB/Class/Device/../../Core/AVR8/../AVR8/Endpoint_AVR8.h **** 			 *  direction). This function will return false if an error has occurred in the endpoint, if the
 413:lufa-lib-svn/LUFA/Drivers/USB/Class/Device/../../Core/AVR8/../AVR8/Endpoint_AVR8.h **** 			 *  is an OUT direction and no packet (or an empty packet) has been received, or if the endpoint
 414:lufa-lib-svn/LUFA/Drivers/USB/Class/Device/../../Core/AVR8/../AVR8/Endpoint_AVR8.h **** 			 *  direction and the endpoint bank is full.
 415:lufa-lib-svn/LUFA/Drivers/USB/Class/Device/../../Core/AVR8/../AVR8/Endpoint_AVR8.h **** 			 *
 416:lufa-lib-svn/LUFA/Drivers/USB/Class/Device/../../Core/AVR8/../AVR8/Endpoint_AVR8.h **** 			 *  \ingroup Group_EndpointPacketManagement_AVR8
 417:lufa-lib-svn/LUFA/Drivers/USB/Class/Device/../../Core/AVR8/../AVR8/Endpoint_AVR8.h **** 			 *
 418:lufa-lib-svn/LUFA/Drivers/USB/Class/Device/../../Core/AVR8/../AVR8/Endpoint_AVR8.h **** 			 *  \return Boolean \c true if the currently selected endpoint may be read from or written to, d
 419:lufa-lib-svn/LUFA/Drivers/USB/Class/Device/../../Core/AVR8/../AVR8/Endpoint_AVR8.h **** 			 *          on its direction.
 420:lufa-lib-svn/LUFA/Drivers/USB/Class/Device/../../Core/AVR8/../AVR8/Endpoint_AVR8.h **** 			 */
 421:lufa-lib-svn/LUFA/Drivers/USB/Class/Device/../../Core/AVR8/../AVR8/Endpoint_AVR8.h **** 			static inline bool Endpoint_IsReadWriteAllowed(void) ATTR_WARN_UNUSED_RESULT ATTR_ALWAYS_INLINE;
 422:lufa-lib-svn/LUFA/Drivers/USB/Class/Device/../../Core/AVR8/../AVR8/Endpoint_AVR8.h **** 			static inline bool Endpoint_IsReadWriteAllowed(void)
 423:lufa-lib-svn/LUFA/Drivers/USB/Class/Device/../../Core/AVR8/../AVR8/Endpoint_AVR8.h **** 			{
 424:lufa-lib-svn/LUFA/Drivers/USB/Class/Device/../../Core/AVR8/../AVR8/Endpoint_AVR8.h **** 				return ((UEINTX & (1 << RWAL)) ? true : false);
 376               		.loc 2 424 0
 377 0022 8091 E800 		lds r24,232
 378               	.LVL44:
 379               	.LBE109:
 380               	.LBE108:
 196:lufa-lib-svn/LUFA/Drivers/USB/Class/Device/CDCClassDevice.c **** 
 197:lufa-lib-svn/LUFA/Drivers/USB/Class/Device/CDCClassDevice.c **** 	if (!(Endpoint_IsReadWriteAllowed()))
 381               		.loc 1 197 0
 382 0026 85FF      		sbrs r24,5
 383 0028 00C0      		rjmp .L28
 384               	.LVL45:
 385               	.L29:
 386               	.LBB110:
 387               	.LBB111:
 425:lufa-lib-svn/LUFA/Drivers/USB/Class/Device/../../Core/AVR8/../AVR8/Endpoint_AVR8.h **** 			}
 426:lufa-lib-svn/LUFA/Drivers/USB/Class/Device/../../Core/AVR8/../AVR8/Endpoint_AVR8.h **** 
 427:lufa-lib-svn/LUFA/Drivers/USB/Class/Device/../../Core/AVR8/../AVR8/Endpoint_AVR8.h **** 			/** Determines if the currently selected endpoint is configured.
 428:lufa-lib-svn/LUFA/Drivers/USB/Class/Device/../../Core/AVR8/../AVR8/Endpoint_AVR8.h **** 			 *
 429:lufa-lib-svn/LUFA/Drivers/USB/Class/Device/../../Core/AVR8/../AVR8/Endpoint_AVR8.h **** 			 *  \return Boolean \c true if the currently selected endpoint has been configured, \c false oth
 430:lufa-lib-svn/LUFA/Drivers/USB/Class/Device/../../Core/AVR8/../AVR8/Endpoint_AVR8.h **** 			 */
 431:lufa-lib-svn/LUFA/Drivers/USB/Class/Device/../../Core/AVR8/../AVR8/Endpoint_AVR8.h **** 			static inline bool Endpoint_IsConfigured(void) ATTR_WARN_UNUSED_RESULT ATTR_ALWAYS_INLINE;
 432:lufa-lib-svn/LUFA/Drivers/USB/Class/Device/../../Core/AVR8/../AVR8/Endpoint_AVR8.h **** 			static inline bool Endpoint_IsConfigured(void)
 433:lufa-lib-svn/LUFA/Drivers/USB/Class/Device/../../Core/AVR8/../AVR8/Endpoint_AVR8.h **** 			{
 434:lufa-lib-svn/LUFA/Drivers/USB/Class/Device/../../Core/AVR8/../AVR8/Endpoint_AVR8.h **** 				return ((UESTA0X & (1 << CFGOK)) ? true : false);
 435:lufa-lib-svn/LUFA/Drivers/USB/Class/Device/../../Core/AVR8/../AVR8/Endpoint_AVR8.h **** 			}
 436:lufa-lib-svn/LUFA/Drivers/USB/Class/Device/../../Core/AVR8/../AVR8/Endpoint_AVR8.h **** 
 437:lufa-lib-svn/LUFA/Drivers/USB/Class/Device/../../Core/AVR8/../AVR8/Endpoint_AVR8.h **** 			/** Returns a mask indicating which INTERRUPT type endpoints have interrupted - i.e. their
 438:lufa-lib-svn/LUFA/Drivers/USB/Class/Device/../../Core/AVR8/../AVR8/Endpoint_AVR8.h **** 			 *  interrupt duration has elapsed. Which endpoints have interrupted can be determined by
 439:lufa-lib-svn/LUFA/Drivers/USB/Class/Device/../../Core/AVR8/../AVR8/Endpoint_AVR8.h **** 			 *  masking the return value against <tt>(1 << <i>{Endpoint Number}</i>)</tt>.
 440:lufa-lib-svn/LUFA/Drivers/USB/Class/Device/../../Core/AVR8/../AVR8/Endpoint_AVR8.h **** 			 *
 441:lufa-lib-svn/LUFA/Drivers/USB/Class/Device/../../Core/AVR8/../AVR8/Endpoint_AVR8.h **** 			 *  \return Mask whose bits indicate which endpoints have interrupted.
 442:lufa-lib-svn/LUFA/Drivers/USB/Class/Device/../../Core/AVR8/../AVR8/Endpoint_AVR8.h **** 			 */
 443:lufa-lib-svn/LUFA/Drivers/USB/Class/Device/../../Core/AVR8/../AVR8/Endpoint_AVR8.h **** 			static inline uint8_t Endpoint_GetEndpointInterrupts(void) ATTR_WARN_UNUSED_RESULT ATTR_ALWAYS_I
 444:lufa-lib-svn/LUFA/Drivers/USB/Class/Device/../../Core/AVR8/../AVR8/Endpoint_AVR8.h **** 			static inline uint8_t Endpoint_GetEndpointInterrupts(void)
 445:lufa-lib-svn/LUFA/Drivers/USB/Class/Device/../../Core/AVR8/../AVR8/Endpoint_AVR8.h **** 			{
 446:lufa-lib-svn/LUFA/Drivers/USB/Class/Device/../../Core/AVR8/../AVR8/Endpoint_AVR8.h **** 				return UEINT;
 447:lufa-lib-svn/LUFA/Drivers/USB/Class/Device/../../Core/AVR8/../AVR8/Endpoint_AVR8.h **** 			}
 448:lufa-lib-svn/LUFA/Drivers/USB/Class/Device/../../Core/AVR8/../AVR8/Endpoint_AVR8.h **** 
 449:lufa-lib-svn/LUFA/Drivers/USB/Class/Device/../../Core/AVR8/../AVR8/Endpoint_AVR8.h **** 			/** Determines if the specified endpoint number has interrupted (valid only for INTERRUPT type
 450:lufa-lib-svn/LUFA/Drivers/USB/Class/Device/../../Core/AVR8/../AVR8/Endpoint_AVR8.h **** 			 *  endpoints).
 451:lufa-lib-svn/LUFA/Drivers/USB/Class/Device/../../Core/AVR8/../AVR8/Endpoint_AVR8.h **** 			 *
 452:lufa-lib-svn/LUFA/Drivers/USB/Class/Device/../../Core/AVR8/../AVR8/Endpoint_AVR8.h **** 			 *  \param[in] EndpointNumber  Index of the endpoint whose interrupt flag should be tested.
 453:lufa-lib-svn/LUFA/Drivers/USB/Class/Device/../../Core/AVR8/../AVR8/Endpoint_AVR8.h **** 			 *
 454:lufa-lib-svn/LUFA/Drivers/USB/Class/Device/../../Core/AVR8/../AVR8/Endpoint_AVR8.h **** 			 *  \return Boolean \c true if the specified endpoint has interrupted, \c false otherwise.
 455:lufa-lib-svn/LUFA/Drivers/USB/Class/Device/../../Core/AVR8/../AVR8/Endpoint_AVR8.h **** 			 */
 456:lufa-lib-svn/LUFA/Drivers/USB/Class/Device/../../Core/AVR8/../AVR8/Endpoint_AVR8.h **** 			static inline bool Endpoint_HasEndpointInterrupted(const uint8_t EndpointNumber) ATTR_WARN_UNUSE
 457:lufa-lib-svn/LUFA/Drivers/USB/Class/Device/../../Core/AVR8/../AVR8/Endpoint_AVR8.h **** 			static inline bool Endpoint_HasEndpointInterrupted(const uint8_t EndpointNumber)
 458:lufa-lib-svn/LUFA/Drivers/USB/Class/Device/../../Core/AVR8/../AVR8/Endpoint_AVR8.h **** 			{
 459:lufa-lib-svn/LUFA/Drivers/USB/Class/Device/../../Core/AVR8/../AVR8/Endpoint_AVR8.h **** 				return ((Endpoint_GetEndpointInterrupts() & (1 << EndpointNumber)) ? true : false);
 460:lufa-lib-svn/LUFA/Drivers/USB/Class/Device/../../Core/AVR8/../AVR8/Endpoint_AVR8.h **** 			}
 461:lufa-lib-svn/LUFA/Drivers/USB/Class/Device/../../Core/AVR8/../AVR8/Endpoint_AVR8.h **** 
 462:lufa-lib-svn/LUFA/Drivers/USB/Class/Device/../../Core/AVR8/../AVR8/Endpoint_AVR8.h **** 			/** Determines if the selected IN endpoint is ready for a new packet to be sent to the host.
 463:lufa-lib-svn/LUFA/Drivers/USB/Class/Device/../../Core/AVR8/../AVR8/Endpoint_AVR8.h **** 			 *
 464:lufa-lib-svn/LUFA/Drivers/USB/Class/Device/../../Core/AVR8/../AVR8/Endpoint_AVR8.h **** 			 *  \ingroup Group_EndpointPacketManagement_AVR8
 465:lufa-lib-svn/LUFA/Drivers/USB/Class/Device/../../Core/AVR8/../AVR8/Endpoint_AVR8.h **** 			 *
 466:lufa-lib-svn/LUFA/Drivers/USB/Class/Device/../../Core/AVR8/../AVR8/Endpoint_AVR8.h **** 			 *  \return Boolean \c true if the current endpoint is ready for an IN packet, \c false otherwis
 467:lufa-lib-svn/LUFA/Drivers/USB/Class/Device/../../Core/AVR8/../AVR8/Endpoint_AVR8.h **** 			 */
 468:lufa-lib-svn/LUFA/Drivers/USB/Class/Device/../../Core/AVR8/../AVR8/Endpoint_AVR8.h **** 			static inline bool Endpoint_IsINReady(void) ATTR_WARN_UNUSED_RESULT ATTR_ALWAYS_INLINE;
 469:lufa-lib-svn/LUFA/Drivers/USB/Class/Device/../../Core/AVR8/../AVR8/Endpoint_AVR8.h **** 			static inline bool Endpoint_IsINReady(void)
 470:lufa-lib-svn/LUFA/Drivers/USB/Class/Device/../../Core/AVR8/../AVR8/Endpoint_AVR8.h **** 			{
 471:lufa-lib-svn/LUFA/Drivers/USB/Class/Device/../../Core/AVR8/../AVR8/Endpoint_AVR8.h **** 				return ((UEINTX & (1 << TXINI)) ? true : false);
 472:lufa-lib-svn/LUFA/Drivers/USB/Class/Device/../../Core/AVR8/../AVR8/Endpoint_AVR8.h **** 			}
 473:lufa-lib-svn/LUFA/Drivers/USB/Class/Device/../../Core/AVR8/../AVR8/Endpoint_AVR8.h **** 
 474:lufa-lib-svn/LUFA/Drivers/USB/Class/Device/../../Core/AVR8/../AVR8/Endpoint_AVR8.h **** 			/** Determines if the selected OUT endpoint has received new packet from the host.
 475:lufa-lib-svn/LUFA/Drivers/USB/Class/Device/../../Core/AVR8/../AVR8/Endpoint_AVR8.h **** 			 *
 476:lufa-lib-svn/LUFA/Drivers/USB/Class/Device/../../Core/AVR8/../AVR8/Endpoint_AVR8.h **** 			 *  \ingroup Group_EndpointPacketManagement_AVR8
 477:lufa-lib-svn/LUFA/Drivers/USB/Class/Device/../../Core/AVR8/../AVR8/Endpoint_AVR8.h **** 			 *
 478:lufa-lib-svn/LUFA/Drivers/USB/Class/Device/../../Core/AVR8/../AVR8/Endpoint_AVR8.h **** 			 *  \return Boolean \c true if current endpoint is has received an OUT packet, \c false otherwis
 479:lufa-lib-svn/LUFA/Drivers/USB/Class/Device/../../Core/AVR8/../AVR8/Endpoint_AVR8.h **** 			 */
 480:lufa-lib-svn/LUFA/Drivers/USB/Class/Device/../../Core/AVR8/../AVR8/Endpoint_AVR8.h **** 			static inline bool Endpoint_IsOUTReceived(void) ATTR_WARN_UNUSED_RESULT ATTR_ALWAYS_INLINE;
 481:lufa-lib-svn/LUFA/Drivers/USB/Class/Device/../../Core/AVR8/../AVR8/Endpoint_AVR8.h **** 			static inline bool Endpoint_IsOUTReceived(void)
 482:lufa-lib-svn/LUFA/Drivers/USB/Class/Device/../../Core/AVR8/../AVR8/Endpoint_AVR8.h **** 			{
 483:lufa-lib-svn/LUFA/Drivers/USB/Class/Device/../../Core/AVR8/../AVR8/Endpoint_AVR8.h **** 				return ((UEINTX & (1 << RXOUTI)) ? true : false);
 484:lufa-lib-svn/LUFA/Drivers/USB/Class/Device/../../Core/AVR8/../AVR8/Endpoint_AVR8.h **** 			}
 485:lufa-lib-svn/LUFA/Drivers/USB/Class/Device/../../Core/AVR8/../AVR8/Endpoint_AVR8.h **** 
 486:lufa-lib-svn/LUFA/Drivers/USB/Class/Device/../../Core/AVR8/../AVR8/Endpoint_AVR8.h **** 			/** Determines if the current CONTROL type endpoint has received a SETUP packet.
 487:lufa-lib-svn/LUFA/Drivers/USB/Class/Device/../../Core/AVR8/../AVR8/Endpoint_AVR8.h **** 			 *
 488:lufa-lib-svn/LUFA/Drivers/USB/Class/Device/../../Core/AVR8/../AVR8/Endpoint_AVR8.h **** 			 *  \ingroup Group_EndpointPacketManagement_AVR8
 489:lufa-lib-svn/LUFA/Drivers/USB/Class/Device/../../Core/AVR8/../AVR8/Endpoint_AVR8.h **** 			 *
 490:lufa-lib-svn/LUFA/Drivers/USB/Class/Device/../../Core/AVR8/../AVR8/Endpoint_AVR8.h **** 			 *  \return Boolean \c true if the selected endpoint has received a SETUP packet, \c false other
 491:lufa-lib-svn/LUFA/Drivers/USB/Class/Device/../../Core/AVR8/../AVR8/Endpoint_AVR8.h **** 			 */
 492:lufa-lib-svn/LUFA/Drivers/USB/Class/Device/../../Core/AVR8/../AVR8/Endpoint_AVR8.h **** 			static inline bool Endpoint_IsSETUPReceived(void) ATTR_WARN_UNUSED_RESULT ATTR_ALWAYS_INLINE;
 493:lufa-lib-svn/LUFA/Drivers/USB/Class/Device/../../Core/AVR8/../AVR8/Endpoint_AVR8.h **** 			static inline bool Endpoint_IsSETUPReceived(void)
 494:lufa-lib-svn/LUFA/Drivers/USB/Class/Device/../../Core/AVR8/../AVR8/Endpoint_AVR8.h **** 			{
 495:lufa-lib-svn/LUFA/Drivers/USB/Class/Device/../../Core/AVR8/../AVR8/Endpoint_AVR8.h **** 				return ((UEINTX & (1 << RXSTPI)) ? true : false);
 496:lufa-lib-svn/LUFA/Drivers/USB/Class/Device/../../Core/AVR8/../AVR8/Endpoint_AVR8.h **** 			}
 497:lufa-lib-svn/LUFA/Drivers/USB/Class/Device/../../Core/AVR8/../AVR8/Endpoint_AVR8.h **** 
 498:lufa-lib-svn/LUFA/Drivers/USB/Class/Device/../../Core/AVR8/../AVR8/Endpoint_AVR8.h **** 			/** Clears a received SETUP packet on the currently selected CONTROL type endpoint, freeing up t
 499:lufa-lib-svn/LUFA/Drivers/USB/Class/Device/../../Core/AVR8/../AVR8/Endpoint_AVR8.h **** 			 *  endpoint for the next packet.
 500:lufa-lib-svn/LUFA/Drivers/USB/Class/Device/../../Core/AVR8/../AVR8/Endpoint_AVR8.h **** 			 *
 501:lufa-lib-svn/LUFA/Drivers/USB/Class/Device/../../Core/AVR8/../AVR8/Endpoint_AVR8.h **** 			 *  \ingroup Group_EndpointPacketManagement_AVR8
 502:lufa-lib-svn/LUFA/Drivers/USB/Class/Device/../../Core/AVR8/../AVR8/Endpoint_AVR8.h **** 			 *
 503:lufa-lib-svn/LUFA/Drivers/USB/Class/Device/../../Core/AVR8/../AVR8/Endpoint_AVR8.h **** 			 *  \note This is not applicable for non CONTROL type endpoints.
 504:lufa-lib-svn/LUFA/Drivers/USB/Class/Device/../../Core/AVR8/../AVR8/Endpoint_AVR8.h **** 			 */
 505:lufa-lib-svn/LUFA/Drivers/USB/Class/Device/../../Core/AVR8/../AVR8/Endpoint_AVR8.h **** 			static inline void Endpoint_ClearSETUP(void) ATTR_ALWAYS_INLINE;
 506:lufa-lib-svn/LUFA/Drivers/USB/Class/Device/../../Core/AVR8/../AVR8/Endpoint_AVR8.h **** 			static inline void Endpoint_ClearSETUP(void)
 507:lufa-lib-svn/LUFA/Drivers/USB/Class/Device/../../Core/AVR8/../AVR8/Endpoint_AVR8.h **** 			{
 508:lufa-lib-svn/LUFA/Drivers/USB/Class/Device/../../Core/AVR8/../AVR8/Endpoint_AVR8.h **** 				UEINTX &= ~(1 << RXSTPI);
 509:lufa-lib-svn/LUFA/Drivers/USB/Class/Device/../../Core/AVR8/../AVR8/Endpoint_AVR8.h **** 			}
 510:lufa-lib-svn/LUFA/Drivers/USB/Class/Device/../../Core/AVR8/../AVR8/Endpoint_AVR8.h **** 
 511:lufa-lib-svn/LUFA/Drivers/USB/Class/Device/../../Core/AVR8/../AVR8/Endpoint_AVR8.h **** 			/** Sends an IN packet to the host on the currently selected endpoint, freeing up the endpoint f
 512:lufa-lib-svn/LUFA/Drivers/USB/Class/Device/../../Core/AVR8/../AVR8/Endpoint_AVR8.h **** 			 *  next packet and switching to the alternative endpoint bank if double banked.
 513:lufa-lib-svn/LUFA/Drivers/USB/Class/Device/../../Core/AVR8/../AVR8/Endpoint_AVR8.h **** 			 *
 514:lufa-lib-svn/LUFA/Drivers/USB/Class/Device/../../Core/AVR8/../AVR8/Endpoint_AVR8.h **** 			 *  \ingroup Group_EndpointPacketManagement_AVR8
 515:lufa-lib-svn/LUFA/Drivers/USB/Class/Device/../../Core/AVR8/../AVR8/Endpoint_AVR8.h **** 			 */
 516:lufa-lib-svn/LUFA/Drivers/USB/Class/Device/../../Core/AVR8/../AVR8/Endpoint_AVR8.h **** 			static inline void Endpoint_ClearIN(void) ATTR_ALWAYS_INLINE;
 517:lufa-lib-svn/LUFA/Drivers/USB/Class/Device/../../Core/AVR8/../AVR8/Endpoint_AVR8.h **** 			static inline void Endpoint_ClearIN(void)
 518:lufa-lib-svn/LUFA/Drivers/USB/Class/Device/../../Core/AVR8/../AVR8/Endpoint_AVR8.h **** 			{
 519:lufa-lib-svn/LUFA/Drivers/USB/Class/Device/../../Core/AVR8/../AVR8/Endpoint_AVR8.h **** 				#if !defined(CONTROL_ONLY_DEVICE)
 520:lufa-lib-svn/LUFA/Drivers/USB/Class/Device/../../Core/AVR8/../AVR8/Endpoint_AVR8.h **** 					UEINTX &= ~((1 << TXINI) | (1 << FIFOCON));
 521:lufa-lib-svn/LUFA/Drivers/USB/Class/Device/../../Core/AVR8/../AVR8/Endpoint_AVR8.h **** 				#else
 522:lufa-lib-svn/LUFA/Drivers/USB/Class/Device/../../Core/AVR8/../AVR8/Endpoint_AVR8.h **** 					UEINTX &= ~(1 << TXINI);
 523:lufa-lib-svn/LUFA/Drivers/USB/Class/Device/../../Core/AVR8/../AVR8/Endpoint_AVR8.h **** 				#endif
 524:lufa-lib-svn/LUFA/Drivers/USB/Class/Device/../../Core/AVR8/../AVR8/Endpoint_AVR8.h **** 			}
 525:lufa-lib-svn/LUFA/Drivers/USB/Class/Device/../../Core/AVR8/../AVR8/Endpoint_AVR8.h **** 
 526:lufa-lib-svn/LUFA/Drivers/USB/Class/Device/../../Core/AVR8/../AVR8/Endpoint_AVR8.h **** 			/** Acknowledges an OUT packet to the host on the currently selected endpoint, freeing up the en
 527:lufa-lib-svn/LUFA/Drivers/USB/Class/Device/../../Core/AVR8/../AVR8/Endpoint_AVR8.h **** 			 *  for the next packet and switching to the alternative endpoint bank if double banked.
 528:lufa-lib-svn/LUFA/Drivers/USB/Class/Device/../../Core/AVR8/../AVR8/Endpoint_AVR8.h **** 			 *
 529:lufa-lib-svn/LUFA/Drivers/USB/Class/Device/../../Core/AVR8/../AVR8/Endpoint_AVR8.h **** 			 *  \ingroup Group_EndpointPacketManagement_AVR8
 530:lufa-lib-svn/LUFA/Drivers/USB/Class/Device/../../Core/AVR8/../AVR8/Endpoint_AVR8.h **** 			 */
 531:lufa-lib-svn/LUFA/Drivers/USB/Class/Device/../../Core/AVR8/../AVR8/Endpoint_AVR8.h **** 			static inline void Endpoint_ClearOUT(void) ATTR_ALWAYS_INLINE;
 532:lufa-lib-svn/LUFA/Drivers/USB/Class/Device/../../Core/AVR8/../AVR8/Endpoint_AVR8.h **** 			static inline void Endpoint_ClearOUT(void)
 533:lufa-lib-svn/LUFA/Drivers/USB/Class/Device/../../Core/AVR8/../AVR8/Endpoint_AVR8.h **** 			{
 534:lufa-lib-svn/LUFA/Drivers/USB/Class/Device/../../Core/AVR8/../AVR8/Endpoint_AVR8.h **** 				#if !defined(CONTROL_ONLY_DEVICE)
 535:lufa-lib-svn/LUFA/Drivers/USB/Class/Device/../../Core/AVR8/../AVR8/Endpoint_AVR8.h **** 					UEINTX &= ~((1 << RXOUTI) | (1 << FIFOCON));
 536:lufa-lib-svn/LUFA/Drivers/USB/Class/Device/../../Core/AVR8/../AVR8/Endpoint_AVR8.h **** 				#else
 537:lufa-lib-svn/LUFA/Drivers/USB/Class/Device/../../Core/AVR8/../AVR8/Endpoint_AVR8.h **** 					UEINTX &= ~(1 << RXOUTI);
 538:lufa-lib-svn/LUFA/Drivers/USB/Class/Device/../../Core/AVR8/../AVR8/Endpoint_AVR8.h **** 				#endif
 539:lufa-lib-svn/LUFA/Drivers/USB/Class/Device/../../Core/AVR8/../AVR8/Endpoint_AVR8.h **** 			}
 540:lufa-lib-svn/LUFA/Drivers/USB/Class/Device/../../Core/AVR8/../AVR8/Endpoint_AVR8.h **** 
 541:lufa-lib-svn/LUFA/Drivers/USB/Class/Device/../../Core/AVR8/../AVR8/Endpoint_AVR8.h **** 			/** Stalls the current endpoint, indicating to the host that a logical problem occurred with the
 542:lufa-lib-svn/LUFA/Drivers/USB/Class/Device/../../Core/AVR8/../AVR8/Endpoint_AVR8.h **** 			 *  indicated endpoint and that the current transfer sequence should be aborted. This provides a
 543:lufa-lib-svn/LUFA/Drivers/USB/Class/Device/../../Core/AVR8/../AVR8/Endpoint_AVR8.h **** 			 *  way for devices to indicate invalid commands to the host so that the current transfer can be
 544:lufa-lib-svn/LUFA/Drivers/USB/Class/Device/../../Core/AVR8/../AVR8/Endpoint_AVR8.h **** 			 *  aborted and the host can begin its own recovery sequence.
 545:lufa-lib-svn/LUFA/Drivers/USB/Class/Device/../../Core/AVR8/../AVR8/Endpoint_AVR8.h **** 			 *
 546:lufa-lib-svn/LUFA/Drivers/USB/Class/Device/../../Core/AVR8/../AVR8/Endpoint_AVR8.h **** 			 *  The currently selected endpoint remains stalled until either the \ref Endpoint_ClearStall() 
 547:lufa-lib-svn/LUFA/Drivers/USB/Class/Device/../../Core/AVR8/../AVR8/Endpoint_AVR8.h **** 			 *  is called, or the host issues a CLEAR FEATURE request to the device for the currently select
 548:lufa-lib-svn/LUFA/Drivers/USB/Class/Device/../../Core/AVR8/../AVR8/Endpoint_AVR8.h **** 			 *  endpoint.
 549:lufa-lib-svn/LUFA/Drivers/USB/Class/Device/../../Core/AVR8/../AVR8/Endpoint_AVR8.h **** 			 *
 550:lufa-lib-svn/LUFA/Drivers/USB/Class/Device/../../Core/AVR8/../AVR8/Endpoint_AVR8.h **** 			 *  \ingroup Group_EndpointPacketManagement_AVR8
 551:lufa-lib-svn/LUFA/Drivers/USB/Class/Device/../../Core/AVR8/../AVR8/Endpoint_AVR8.h **** 			 */
 552:lufa-lib-svn/LUFA/Drivers/USB/Class/Device/../../Core/AVR8/../AVR8/Endpoint_AVR8.h **** 			static inline void Endpoint_StallTransaction(void) ATTR_ALWAYS_INLINE;
 553:lufa-lib-svn/LUFA/Drivers/USB/Class/Device/../../Core/AVR8/../AVR8/Endpoint_AVR8.h **** 			static inline void Endpoint_StallTransaction(void)
 554:lufa-lib-svn/LUFA/Drivers/USB/Class/Device/../../Core/AVR8/../AVR8/Endpoint_AVR8.h **** 			{
 555:lufa-lib-svn/LUFA/Drivers/USB/Class/Device/../../Core/AVR8/../AVR8/Endpoint_AVR8.h **** 				UECONX |= (1 << STALLRQ);
 556:lufa-lib-svn/LUFA/Drivers/USB/Class/Device/../../Core/AVR8/../AVR8/Endpoint_AVR8.h **** 			}
 557:lufa-lib-svn/LUFA/Drivers/USB/Class/Device/../../Core/AVR8/../AVR8/Endpoint_AVR8.h **** 
 558:lufa-lib-svn/LUFA/Drivers/USB/Class/Device/../../Core/AVR8/../AVR8/Endpoint_AVR8.h **** 			/** Clears the STALL condition on the currently selected endpoint.
 559:lufa-lib-svn/LUFA/Drivers/USB/Class/Device/../../Core/AVR8/../AVR8/Endpoint_AVR8.h **** 			 *
 560:lufa-lib-svn/LUFA/Drivers/USB/Class/Device/../../Core/AVR8/../AVR8/Endpoint_AVR8.h **** 			 *  \ingroup Group_EndpointPacketManagement_AVR8
 561:lufa-lib-svn/LUFA/Drivers/USB/Class/Device/../../Core/AVR8/../AVR8/Endpoint_AVR8.h **** 			 */
 562:lufa-lib-svn/LUFA/Drivers/USB/Class/Device/../../Core/AVR8/../AVR8/Endpoint_AVR8.h **** 			static inline void Endpoint_ClearStall(void) ATTR_ALWAYS_INLINE;
 563:lufa-lib-svn/LUFA/Drivers/USB/Class/Device/../../Core/AVR8/../AVR8/Endpoint_AVR8.h **** 			static inline void Endpoint_ClearStall(void)
 564:lufa-lib-svn/LUFA/Drivers/USB/Class/Device/../../Core/AVR8/../AVR8/Endpoint_AVR8.h **** 			{
 565:lufa-lib-svn/LUFA/Drivers/USB/Class/Device/../../Core/AVR8/../AVR8/Endpoint_AVR8.h **** 				UECONX |= (1 << STALLRQC);
 566:lufa-lib-svn/LUFA/Drivers/USB/Class/Device/../../Core/AVR8/../AVR8/Endpoint_AVR8.h **** 			}
 567:lufa-lib-svn/LUFA/Drivers/USB/Class/Device/../../Core/AVR8/../AVR8/Endpoint_AVR8.h **** 
 568:lufa-lib-svn/LUFA/Drivers/USB/Class/Device/../../Core/AVR8/../AVR8/Endpoint_AVR8.h **** 			/** Determines if the currently selected endpoint is stalled, false otherwise.
 569:lufa-lib-svn/LUFA/Drivers/USB/Class/Device/../../Core/AVR8/../AVR8/Endpoint_AVR8.h **** 			 *
 570:lufa-lib-svn/LUFA/Drivers/USB/Class/Device/../../Core/AVR8/../AVR8/Endpoint_AVR8.h **** 			 *  \ingroup Group_EndpointPacketManagement_AVR8
 571:lufa-lib-svn/LUFA/Drivers/USB/Class/Device/../../Core/AVR8/../AVR8/Endpoint_AVR8.h **** 			 *
 572:lufa-lib-svn/LUFA/Drivers/USB/Class/Device/../../Core/AVR8/../AVR8/Endpoint_AVR8.h **** 			 *  \return Boolean \c true if the currently selected endpoint is stalled, \c false otherwise.
 573:lufa-lib-svn/LUFA/Drivers/USB/Class/Device/../../Core/AVR8/../AVR8/Endpoint_AVR8.h **** 			 */
 574:lufa-lib-svn/LUFA/Drivers/USB/Class/Device/../../Core/AVR8/../AVR8/Endpoint_AVR8.h **** 			static inline bool Endpoint_IsStalled(void) ATTR_WARN_UNUSED_RESULT ATTR_ALWAYS_INLINE;
 575:lufa-lib-svn/LUFA/Drivers/USB/Class/Device/../../Core/AVR8/../AVR8/Endpoint_AVR8.h **** 			static inline bool Endpoint_IsStalled(void)
 576:lufa-lib-svn/LUFA/Drivers/USB/Class/Device/../../Core/AVR8/../AVR8/Endpoint_AVR8.h **** 			{
 577:lufa-lib-svn/LUFA/Drivers/USB/Class/Device/../../Core/AVR8/../AVR8/Endpoint_AVR8.h **** 				return ((UECONX & (1 << STALLRQ)) ? true : false);
 578:lufa-lib-svn/LUFA/Drivers/USB/Class/Device/../../Core/AVR8/../AVR8/Endpoint_AVR8.h **** 			}
 579:lufa-lib-svn/LUFA/Drivers/USB/Class/Device/../../Core/AVR8/../AVR8/Endpoint_AVR8.h **** 
 580:lufa-lib-svn/LUFA/Drivers/USB/Class/Device/../../Core/AVR8/../AVR8/Endpoint_AVR8.h **** 			/** Resets the data toggle of the currently selected endpoint. */
 581:lufa-lib-svn/LUFA/Drivers/USB/Class/Device/../../Core/AVR8/../AVR8/Endpoint_AVR8.h **** 			static inline void Endpoint_ResetDataToggle(void) ATTR_ALWAYS_INLINE;
 582:lufa-lib-svn/LUFA/Drivers/USB/Class/Device/../../Core/AVR8/../AVR8/Endpoint_AVR8.h **** 			static inline void Endpoint_ResetDataToggle(void)
 583:lufa-lib-svn/LUFA/Drivers/USB/Class/Device/../../Core/AVR8/../AVR8/Endpoint_AVR8.h **** 			{
 584:lufa-lib-svn/LUFA/Drivers/USB/Class/Device/../../Core/AVR8/../AVR8/Endpoint_AVR8.h **** 				UECONX |= (1 << RSTDT);
 585:lufa-lib-svn/LUFA/Drivers/USB/Class/Device/../../Core/AVR8/../AVR8/Endpoint_AVR8.h **** 			}
 586:lufa-lib-svn/LUFA/Drivers/USB/Class/Device/../../Core/AVR8/../AVR8/Endpoint_AVR8.h **** 
 587:lufa-lib-svn/LUFA/Drivers/USB/Class/Device/../../Core/AVR8/../AVR8/Endpoint_AVR8.h **** 			/** Determines the currently selected endpoint's direction.
 588:lufa-lib-svn/LUFA/Drivers/USB/Class/Device/../../Core/AVR8/../AVR8/Endpoint_AVR8.h **** 			 *
 589:lufa-lib-svn/LUFA/Drivers/USB/Class/Device/../../Core/AVR8/../AVR8/Endpoint_AVR8.h **** 			 *  \return The currently selected endpoint's direction, as a \c ENDPOINT_DIR_* mask.
 590:lufa-lib-svn/LUFA/Drivers/USB/Class/Device/../../Core/AVR8/../AVR8/Endpoint_AVR8.h **** 			 */
 591:lufa-lib-svn/LUFA/Drivers/USB/Class/Device/../../Core/AVR8/../AVR8/Endpoint_AVR8.h **** 			static inline uint8_t Endpoint_GetEndpointDirection(void) ATTR_WARN_UNUSED_RESULT ATTR_ALWAYS_IN
 592:lufa-lib-svn/LUFA/Drivers/USB/Class/Device/../../Core/AVR8/../AVR8/Endpoint_AVR8.h **** 			static inline uint8_t Endpoint_GetEndpointDirection(void)
 593:lufa-lib-svn/LUFA/Drivers/USB/Class/Device/../../Core/AVR8/../AVR8/Endpoint_AVR8.h **** 			{
 594:lufa-lib-svn/LUFA/Drivers/USB/Class/Device/../../Core/AVR8/../AVR8/Endpoint_AVR8.h **** 				return (UECFG0X & (1 << EPDIR)) ? ENDPOINT_DIR_IN : ENDPOINT_DIR_OUT;
 595:lufa-lib-svn/LUFA/Drivers/USB/Class/Device/../../Core/AVR8/../AVR8/Endpoint_AVR8.h **** 			}
 596:lufa-lib-svn/LUFA/Drivers/USB/Class/Device/../../Core/AVR8/../AVR8/Endpoint_AVR8.h **** 
 597:lufa-lib-svn/LUFA/Drivers/USB/Class/Device/../../Core/AVR8/../AVR8/Endpoint_AVR8.h **** 			/** Sets the direction of the currently selected endpoint.
 598:lufa-lib-svn/LUFA/Drivers/USB/Class/Device/../../Core/AVR8/../AVR8/Endpoint_AVR8.h **** 			 *
 599:lufa-lib-svn/LUFA/Drivers/USB/Class/Device/../../Core/AVR8/../AVR8/Endpoint_AVR8.h **** 			 *  \param[in] DirectionMask  New endpoint direction, as a \c ENDPOINT_DIR_* mask.
 600:lufa-lib-svn/LUFA/Drivers/USB/Class/Device/../../Core/AVR8/../AVR8/Endpoint_AVR8.h **** 			 */
 601:lufa-lib-svn/LUFA/Drivers/USB/Class/Device/../../Core/AVR8/../AVR8/Endpoint_AVR8.h **** 			static inline void Endpoint_SetEndpointDirection(const uint8_t DirectionMask) ATTR_ALWAYS_INLINE
 602:lufa-lib-svn/LUFA/Drivers/USB/Class/Device/../../Core/AVR8/../AVR8/Endpoint_AVR8.h **** 			static inline void Endpoint_SetEndpointDirection(const uint8_t DirectionMask)
 603:lufa-lib-svn/LUFA/Drivers/USB/Class/Device/../../Core/AVR8/../AVR8/Endpoint_AVR8.h **** 			{
 604:lufa-lib-svn/LUFA/Drivers/USB/Class/Device/../../Core/AVR8/../AVR8/Endpoint_AVR8.h **** 				UECFG0X = ((UECFG0X & ~(1 << EPDIR)) | (DirectionMask ? (1 << EPDIR) : 0));
 605:lufa-lib-svn/LUFA/Drivers/USB/Class/Device/../../Core/AVR8/../AVR8/Endpoint_AVR8.h **** 			}
 606:lufa-lib-svn/LUFA/Drivers/USB/Class/Device/../../Core/AVR8/../AVR8/Endpoint_AVR8.h **** 
 607:lufa-lib-svn/LUFA/Drivers/USB/Class/Device/../../Core/AVR8/../AVR8/Endpoint_AVR8.h **** 			/** Reads one byte from the currently selected endpoint's bank, for OUT direction endpoints.
 608:lufa-lib-svn/LUFA/Drivers/USB/Class/Device/../../Core/AVR8/../AVR8/Endpoint_AVR8.h **** 			 *
 609:lufa-lib-svn/LUFA/Drivers/USB/Class/Device/../../Core/AVR8/../AVR8/Endpoint_AVR8.h **** 			 *  \ingroup Group_EndpointPrimitiveRW_AVR8
 610:lufa-lib-svn/LUFA/Drivers/USB/Class/Device/../../Core/AVR8/../AVR8/Endpoint_AVR8.h **** 			 *
 611:lufa-lib-svn/LUFA/Drivers/USB/Class/Device/../../Core/AVR8/../AVR8/Endpoint_AVR8.h **** 			 *  \return Next byte in the currently selected endpoint's FIFO buffer.
 612:lufa-lib-svn/LUFA/Drivers/USB/Class/Device/../../Core/AVR8/../AVR8/Endpoint_AVR8.h **** 			 */
 613:lufa-lib-svn/LUFA/Drivers/USB/Class/Device/../../Core/AVR8/../AVR8/Endpoint_AVR8.h **** 			static inline uint8_t Endpoint_Read_8(void) ATTR_WARN_UNUSED_RESULT ATTR_ALWAYS_INLINE;
 614:lufa-lib-svn/LUFA/Drivers/USB/Class/Device/../../Core/AVR8/../AVR8/Endpoint_AVR8.h **** 			static inline uint8_t Endpoint_Read_8(void)
 615:lufa-lib-svn/LUFA/Drivers/USB/Class/Device/../../Core/AVR8/../AVR8/Endpoint_AVR8.h **** 			{
 616:lufa-lib-svn/LUFA/Drivers/USB/Class/Device/../../Core/AVR8/../AVR8/Endpoint_AVR8.h **** 				return UEDATX;
 617:lufa-lib-svn/LUFA/Drivers/USB/Class/Device/../../Core/AVR8/../AVR8/Endpoint_AVR8.h **** 			}
 618:lufa-lib-svn/LUFA/Drivers/USB/Class/Device/../../Core/AVR8/../AVR8/Endpoint_AVR8.h **** 
 619:lufa-lib-svn/LUFA/Drivers/USB/Class/Device/../../Core/AVR8/../AVR8/Endpoint_AVR8.h **** 			/** Writes one byte to the currently selected endpoint's bank, for IN direction endpoints.
 620:lufa-lib-svn/LUFA/Drivers/USB/Class/Device/../../Core/AVR8/../AVR8/Endpoint_AVR8.h **** 			 *
 621:lufa-lib-svn/LUFA/Drivers/USB/Class/Device/../../Core/AVR8/../AVR8/Endpoint_AVR8.h **** 			 *  \ingroup Group_EndpointPrimitiveRW_AVR8
 622:lufa-lib-svn/LUFA/Drivers/USB/Class/Device/../../Core/AVR8/../AVR8/Endpoint_AVR8.h **** 			 *
 623:lufa-lib-svn/LUFA/Drivers/USB/Class/Device/../../Core/AVR8/../AVR8/Endpoint_AVR8.h **** 			 *  \param[in] Data  Data to write into the the currently selected endpoint's FIFO buffer.
 624:lufa-lib-svn/LUFA/Drivers/USB/Class/Device/../../Core/AVR8/../AVR8/Endpoint_AVR8.h **** 			 */
 625:lufa-lib-svn/LUFA/Drivers/USB/Class/Device/../../Core/AVR8/../AVR8/Endpoint_AVR8.h **** 			static inline void Endpoint_Write_8(const uint8_t Data) ATTR_ALWAYS_INLINE;
 626:lufa-lib-svn/LUFA/Drivers/USB/Class/Device/../../Core/AVR8/../AVR8/Endpoint_AVR8.h **** 			static inline void Endpoint_Write_8(const uint8_t Data)
 627:lufa-lib-svn/LUFA/Drivers/USB/Class/Device/../../Core/AVR8/../AVR8/Endpoint_AVR8.h **** 			{
 628:lufa-lib-svn/LUFA/Drivers/USB/Class/Device/../../Core/AVR8/../AVR8/Endpoint_AVR8.h **** 				UEDATX = Data;
 388               		.loc 2 628 0
 389 002a C093 F100 		sts 241,r28
 390               	.LBE111:
 391               	.LBE110:
 198:lufa-lib-svn/LUFA/Drivers/USB/Class/Device/CDCClassDevice.c **** 	{
 199:lufa-lib-svn/LUFA/Drivers/USB/Class/Device/CDCClassDevice.c **** 		Endpoint_ClearIN();
 200:lufa-lib-svn/LUFA/Drivers/USB/Class/Device/CDCClassDevice.c **** 
 201:lufa-lib-svn/LUFA/Drivers/USB/Class/Device/CDCClassDevice.c **** 		uint8_t ErrorCode;
 202:lufa-lib-svn/LUFA/Drivers/USB/Class/Device/CDCClassDevice.c **** 
 203:lufa-lib-svn/LUFA/Drivers/USB/Class/Device/CDCClassDevice.c **** 		if ((ErrorCode = Endpoint_WaitUntilReady()) != ENDPOINT_READYWAIT_NoError)
 204:lufa-lib-svn/LUFA/Drivers/USB/Class/Device/CDCClassDevice.c **** 		  return ErrorCode;
 205:lufa-lib-svn/LUFA/Drivers/USB/Class/Device/CDCClassDevice.c **** 	}
 206:lufa-lib-svn/LUFA/Drivers/USB/Class/Device/CDCClassDevice.c **** 
 207:lufa-lib-svn/LUFA/Drivers/USB/Class/Device/CDCClassDevice.c **** 	Endpoint_Write_8(Data);
 208:lufa-lib-svn/LUFA/Drivers/USB/Class/Device/CDCClassDevice.c **** 	return ENDPOINT_READYWAIT_NoError;
 392               		.loc 1 208 0
 393 002e 80E0      		ldi r24,0
 394 0030 00C0      		rjmp .L27
 395               	.LVL46:
 396               	.L28:
 397               	.LBB112:
 398               	.LBB113:
 399               	.LBB114:
 520:lufa-lib-svn/LUFA/Drivers/USB/Class/Device/../../Core/AVR8/../AVR8/Endpoint_AVR8.h **** 					UEINTX &= ~((1 << TXINI) | (1 << FIFOCON));
 400               		.loc 2 520 0
 401 0032 8091 E800 		lds r24,232
 402 0036 8E77      		andi r24,lo8(126)
 403 0038 8093 E800 		sts 232,r24
 404               	.LBE114:
 405               	.LBE113:
 203:lufa-lib-svn/LUFA/Drivers/USB/Class/Device/CDCClassDevice.c **** 		if ((ErrorCode = Endpoint_WaitUntilReady()) != ENDPOINT_READYWAIT_NoError)
 406               		.loc 1 203 0
 407 003c 0E94 0000 		call Endpoint_WaitUntilReady
 408               	.LVL47:
 409 0040 8823      		tst r24
 410 0042 01F0      		breq .L29
 411 0044 00C0      		rjmp .L27
 412               	.LVL48:
 413               	.L31:
 414               	.LBE112:
 193:lufa-lib-svn/LUFA/Drivers/USB/Class/Device/CDCClassDevice.c **** 	  return ENDPOINT_RWSTREAM_DeviceDisconnected;
 415               		.loc 1 193 0
 416 0046 82E0      		ldi r24,lo8(2)
 417               	.LVL49:
 418               	.L27:
 419               	/* epilogue start */
 209:lufa-lib-svn/LUFA/Drivers/USB/Class/Device/CDCClassDevice.c **** }
 420               		.loc 1 209 0
 421 0048 CF91      		pop r28
 422               	.LVL50:
 423 004a 0895      		ret
 424               		.cfi_endproc
 425               	.LFE104:
 427               		.section	.text.CDC_Device_putchar,"ax",@progbits
 429               	CDC_Device_putchar:
 430               	.LFB111:
 210:lufa-lib-svn/LUFA/Drivers/USB/Class/Device/CDCClassDevice.c **** 
 211:lufa-lib-svn/LUFA/Drivers/USB/Class/Device/CDCClassDevice.c **** uint8_t CDC_Device_Flush(USB_ClassInfo_CDC_Device_t* const CDCInterfaceInfo)
 212:lufa-lib-svn/LUFA/Drivers/USB/Class/Device/CDCClassDevice.c **** {
 213:lufa-lib-svn/LUFA/Drivers/USB/Class/Device/CDCClassDevice.c **** 	if ((USB_DeviceState != DEVICE_STATE_Configured) || !(CDCInterfaceInfo->State.LineEncoding.BaudRat
 214:lufa-lib-svn/LUFA/Drivers/USB/Class/Device/CDCClassDevice.c **** 	  return ENDPOINT_RWSTREAM_DeviceDisconnected;
 215:lufa-lib-svn/LUFA/Drivers/USB/Class/Device/CDCClassDevice.c **** 
 216:lufa-lib-svn/LUFA/Drivers/USB/Class/Device/CDCClassDevice.c **** 	uint8_t ErrorCode;
 217:lufa-lib-svn/LUFA/Drivers/USB/Class/Device/CDCClassDevice.c **** 
 218:lufa-lib-svn/LUFA/Drivers/USB/Class/Device/CDCClassDevice.c **** 	Endpoint_SelectEndpoint(CDCInterfaceInfo->Config.DataINEndpointNumber);
 219:lufa-lib-svn/LUFA/Drivers/USB/Class/Device/CDCClassDevice.c **** 
 220:lufa-lib-svn/LUFA/Drivers/USB/Class/Device/CDCClassDevice.c **** 	if (!(Endpoint_BytesInEndpoint()))
 221:lufa-lib-svn/LUFA/Drivers/USB/Class/Device/CDCClassDevice.c **** 	  return ENDPOINT_READYWAIT_NoError;
 222:lufa-lib-svn/LUFA/Drivers/USB/Class/Device/CDCClassDevice.c **** 
 223:lufa-lib-svn/LUFA/Drivers/USB/Class/Device/CDCClassDevice.c **** 	bool BankFull = !(Endpoint_IsReadWriteAllowed());
 224:lufa-lib-svn/LUFA/Drivers/USB/Class/Device/CDCClassDevice.c **** 
 225:lufa-lib-svn/LUFA/Drivers/USB/Class/Device/CDCClassDevice.c **** 	Endpoint_ClearIN();
 226:lufa-lib-svn/LUFA/Drivers/USB/Class/Device/CDCClassDevice.c **** 
 227:lufa-lib-svn/LUFA/Drivers/USB/Class/Device/CDCClassDevice.c **** 	if (BankFull)
 228:lufa-lib-svn/LUFA/Drivers/USB/Class/Device/CDCClassDevice.c **** 	{
 229:lufa-lib-svn/LUFA/Drivers/USB/Class/Device/CDCClassDevice.c **** 		if ((ErrorCode = Endpoint_WaitUntilReady()) != ENDPOINT_READYWAIT_NoError)
 230:lufa-lib-svn/LUFA/Drivers/USB/Class/Device/CDCClassDevice.c **** 		  return ErrorCode;
 231:lufa-lib-svn/LUFA/Drivers/USB/Class/Device/CDCClassDevice.c **** 
 232:lufa-lib-svn/LUFA/Drivers/USB/Class/Device/CDCClassDevice.c **** 		Endpoint_ClearIN();
 233:lufa-lib-svn/LUFA/Drivers/USB/Class/Device/CDCClassDevice.c **** 	}
 234:lufa-lib-svn/LUFA/Drivers/USB/Class/Device/CDCClassDevice.c **** 
 235:lufa-lib-svn/LUFA/Drivers/USB/Class/Device/CDCClassDevice.c **** 	return ENDPOINT_READYWAIT_NoError;
 236:lufa-lib-svn/LUFA/Drivers/USB/Class/Device/CDCClassDevice.c **** }
 237:lufa-lib-svn/LUFA/Drivers/USB/Class/Device/CDCClassDevice.c **** 
 238:lufa-lib-svn/LUFA/Drivers/USB/Class/Device/CDCClassDevice.c **** uint16_t CDC_Device_BytesReceived(USB_ClassInfo_CDC_Device_t* const CDCInterfaceInfo)
 239:lufa-lib-svn/LUFA/Drivers/USB/Class/Device/CDCClassDevice.c **** {
 240:lufa-lib-svn/LUFA/Drivers/USB/Class/Device/CDCClassDevice.c **** 	if ((USB_DeviceState != DEVICE_STATE_Configured) || !(CDCInterfaceInfo->State.LineEncoding.BaudRat
 241:lufa-lib-svn/LUFA/Drivers/USB/Class/Device/CDCClassDevice.c **** 	  return 0;
 242:lufa-lib-svn/LUFA/Drivers/USB/Class/Device/CDCClassDevice.c **** 
 243:lufa-lib-svn/LUFA/Drivers/USB/Class/Device/CDCClassDevice.c **** 	Endpoint_SelectEndpoint(CDCInterfaceInfo->Config.DataOUTEndpointNumber);
 244:lufa-lib-svn/LUFA/Drivers/USB/Class/Device/CDCClassDevice.c **** 
 245:lufa-lib-svn/LUFA/Drivers/USB/Class/Device/CDCClassDevice.c **** 	if (Endpoint_IsOUTReceived())
 246:lufa-lib-svn/LUFA/Drivers/USB/Class/Device/CDCClassDevice.c **** 	{
 247:lufa-lib-svn/LUFA/Drivers/USB/Class/Device/CDCClassDevice.c **** 		if (!(Endpoint_BytesInEndpoint()))
 248:lufa-lib-svn/LUFA/Drivers/USB/Class/Device/CDCClassDevice.c **** 		{
 249:lufa-lib-svn/LUFA/Drivers/USB/Class/Device/CDCClassDevice.c **** 			Endpoint_ClearOUT();
 250:lufa-lib-svn/LUFA/Drivers/USB/Class/Device/CDCClassDevice.c **** 			return 0;
 251:lufa-lib-svn/LUFA/Drivers/USB/Class/Device/CDCClassDevice.c **** 		}
 252:lufa-lib-svn/LUFA/Drivers/USB/Class/Device/CDCClassDevice.c **** 		else
 253:lufa-lib-svn/LUFA/Drivers/USB/Class/Device/CDCClassDevice.c **** 		{
 254:lufa-lib-svn/LUFA/Drivers/USB/Class/Device/CDCClassDevice.c **** 			return Endpoint_BytesInEndpoint();
 255:lufa-lib-svn/LUFA/Drivers/USB/Class/Device/CDCClassDevice.c **** 		}
 256:lufa-lib-svn/LUFA/Drivers/USB/Class/Device/CDCClassDevice.c **** 	}
 257:lufa-lib-svn/LUFA/Drivers/USB/Class/Device/CDCClassDevice.c **** 	else
 258:lufa-lib-svn/LUFA/Drivers/USB/Class/Device/CDCClassDevice.c **** 	{
 259:lufa-lib-svn/LUFA/Drivers/USB/Class/Device/CDCClassDevice.c **** 		return 0;
 260:lufa-lib-svn/LUFA/Drivers/USB/Class/Device/CDCClassDevice.c **** 	}
 261:lufa-lib-svn/LUFA/Drivers/USB/Class/Device/CDCClassDevice.c **** }
 262:lufa-lib-svn/LUFA/Drivers/USB/Class/Device/CDCClassDevice.c **** 
 263:lufa-lib-svn/LUFA/Drivers/USB/Class/Device/CDCClassDevice.c **** int16_t CDC_Device_ReceiveByte(USB_ClassInfo_CDC_Device_t* const CDCInterfaceInfo)
 264:lufa-lib-svn/LUFA/Drivers/USB/Class/Device/CDCClassDevice.c **** {
 265:lufa-lib-svn/LUFA/Drivers/USB/Class/Device/CDCClassDevice.c **** 	if ((USB_DeviceState != DEVICE_STATE_Configured) || !(CDCInterfaceInfo->State.LineEncoding.BaudRat
 266:lufa-lib-svn/LUFA/Drivers/USB/Class/Device/CDCClassDevice.c **** 	  return -1;
 267:lufa-lib-svn/LUFA/Drivers/USB/Class/Device/CDCClassDevice.c **** 
 268:lufa-lib-svn/LUFA/Drivers/USB/Class/Device/CDCClassDevice.c **** 	int16_t ReceivedByte = -1;
 269:lufa-lib-svn/LUFA/Drivers/USB/Class/Device/CDCClassDevice.c **** 
 270:lufa-lib-svn/LUFA/Drivers/USB/Class/Device/CDCClassDevice.c **** 	Endpoint_SelectEndpoint(CDCInterfaceInfo->Config.DataOUTEndpointNumber);
 271:lufa-lib-svn/LUFA/Drivers/USB/Class/Device/CDCClassDevice.c **** 
 272:lufa-lib-svn/LUFA/Drivers/USB/Class/Device/CDCClassDevice.c **** 	if (Endpoint_IsOUTReceived())
 273:lufa-lib-svn/LUFA/Drivers/USB/Class/Device/CDCClassDevice.c **** 	{
 274:lufa-lib-svn/LUFA/Drivers/USB/Class/Device/CDCClassDevice.c **** 		if (Endpoint_BytesInEndpoint())
 275:lufa-lib-svn/LUFA/Drivers/USB/Class/Device/CDCClassDevice.c **** 		  ReceivedByte = Endpoint_Read_8();
 276:lufa-lib-svn/LUFA/Drivers/USB/Class/Device/CDCClassDevice.c **** 
 277:lufa-lib-svn/LUFA/Drivers/USB/Class/Device/CDCClassDevice.c **** 		if (!(Endpoint_BytesInEndpoint()))
 278:lufa-lib-svn/LUFA/Drivers/USB/Class/Device/CDCClassDevice.c **** 		  Endpoint_ClearOUT();
 279:lufa-lib-svn/LUFA/Drivers/USB/Class/Device/CDCClassDevice.c **** 	}
 280:lufa-lib-svn/LUFA/Drivers/USB/Class/Device/CDCClassDevice.c **** 
 281:lufa-lib-svn/LUFA/Drivers/USB/Class/Device/CDCClassDevice.c **** 	return ReceivedByte;
 282:lufa-lib-svn/LUFA/Drivers/USB/Class/Device/CDCClassDevice.c **** }
 283:lufa-lib-svn/LUFA/Drivers/USB/Class/Device/CDCClassDevice.c **** 
 284:lufa-lib-svn/LUFA/Drivers/USB/Class/Device/CDCClassDevice.c **** void CDC_Device_SendControlLineStateChange(USB_ClassInfo_CDC_Device_t* const CDCInterfaceInfo)
 285:lufa-lib-svn/LUFA/Drivers/USB/Class/Device/CDCClassDevice.c **** {
 286:lufa-lib-svn/LUFA/Drivers/USB/Class/Device/CDCClassDevice.c **** 	if ((USB_DeviceState != DEVICE_STATE_Configured) || !(CDCInterfaceInfo->State.LineEncoding.BaudRat
 287:lufa-lib-svn/LUFA/Drivers/USB/Class/Device/CDCClassDevice.c **** 	  return;
 288:lufa-lib-svn/LUFA/Drivers/USB/Class/Device/CDCClassDevice.c **** 
 289:lufa-lib-svn/LUFA/Drivers/USB/Class/Device/CDCClassDevice.c **** 	Endpoint_SelectEndpoint(CDCInterfaceInfo->Config.NotificationEndpointNumber);
 290:lufa-lib-svn/LUFA/Drivers/USB/Class/Device/CDCClassDevice.c **** 
 291:lufa-lib-svn/LUFA/Drivers/USB/Class/Device/CDCClassDevice.c **** 	USB_Request_Header_t Notification = (USB_Request_Header_t)
 292:lufa-lib-svn/LUFA/Drivers/USB/Class/Device/CDCClassDevice.c **** 		{
 293:lufa-lib-svn/LUFA/Drivers/USB/Class/Device/CDCClassDevice.c **** 			.bmRequestType = (REQDIR_DEVICETOHOST | REQTYPE_CLASS | REQREC_INTERFACE),
 294:lufa-lib-svn/LUFA/Drivers/USB/Class/Device/CDCClassDevice.c **** 			.bRequest      = CDC_NOTIF_SerialState,
 295:lufa-lib-svn/LUFA/Drivers/USB/Class/Device/CDCClassDevice.c **** 			.wValue        = CPU_TO_LE16(0),
 296:lufa-lib-svn/LUFA/Drivers/USB/Class/Device/CDCClassDevice.c **** 			.wIndex        = CPU_TO_LE16(0),
 297:lufa-lib-svn/LUFA/Drivers/USB/Class/Device/CDCClassDevice.c **** 			.wLength       = CPU_TO_LE16(sizeof(CDCInterfaceInfo->State.ControlLineStates.DeviceToHost)),
 298:lufa-lib-svn/LUFA/Drivers/USB/Class/Device/CDCClassDevice.c **** 		};
 299:lufa-lib-svn/LUFA/Drivers/USB/Class/Device/CDCClassDevice.c **** 
 300:lufa-lib-svn/LUFA/Drivers/USB/Class/Device/CDCClassDevice.c **** 	Endpoint_Write_Stream_LE(&Notification, sizeof(USB_Request_Header_t), NULL);
 301:lufa-lib-svn/LUFA/Drivers/USB/Class/Device/CDCClassDevice.c **** 	Endpoint_Write_Stream_LE(&CDCInterfaceInfo->State.ControlLineStates.DeviceToHost,
 302:lufa-lib-svn/LUFA/Drivers/USB/Class/Device/CDCClassDevice.c **** 	                         sizeof(CDCInterfaceInfo->State.ControlLineStates.DeviceToHost),
 303:lufa-lib-svn/LUFA/Drivers/USB/Class/Device/CDCClassDevice.c **** 	                         NULL);
 304:lufa-lib-svn/LUFA/Drivers/USB/Class/Device/CDCClassDevice.c **** 	Endpoint_ClearIN();
 305:lufa-lib-svn/LUFA/Drivers/USB/Class/Device/CDCClassDevice.c **** }
 306:lufa-lib-svn/LUFA/Drivers/USB/Class/Device/CDCClassDevice.c **** 
 307:lufa-lib-svn/LUFA/Drivers/USB/Class/Device/CDCClassDevice.c **** #if defined(FDEV_SETUP_STREAM)
 308:lufa-lib-svn/LUFA/Drivers/USB/Class/Device/CDCClassDevice.c **** void CDC_Device_CreateStream(USB_ClassInfo_CDC_Device_t* const CDCInterfaceInfo,
 309:lufa-lib-svn/LUFA/Drivers/USB/Class/Device/CDCClassDevice.c ****                              FILE* const Stream)
 310:lufa-lib-svn/LUFA/Drivers/USB/Class/Device/CDCClassDevice.c **** {
 311:lufa-lib-svn/LUFA/Drivers/USB/Class/Device/CDCClassDevice.c **** 	*Stream = (FILE)FDEV_SETUP_STREAM(CDC_Device_putchar, CDC_Device_getchar, _FDEV_SETUP_RW);
 312:lufa-lib-svn/LUFA/Drivers/USB/Class/Device/CDCClassDevice.c **** 	fdev_set_udata(Stream, CDCInterfaceInfo);
 313:lufa-lib-svn/LUFA/Drivers/USB/Class/Device/CDCClassDevice.c **** }
 314:lufa-lib-svn/LUFA/Drivers/USB/Class/Device/CDCClassDevice.c **** 
 315:lufa-lib-svn/LUFA/Drivers/USB/Class/Device/CDCClassDevice.c **** void CDC_Device_CreateBlockingStream(USB_ClassInfo_CDC_Device_t* const CDCInterfaceInfo,
 316:lufa-lib-svn/LUFA/Drivers/USB/Class/Device/CDCClassDevice.c ****                                      FILE* const Stream)
 317:lufa-lib-svn/LUFA/Drivers/USB/Class/Device/CDCClassDevice.c **** {
 318:lufa-lib-svn/LUFA/Drivers/USB/Class/Device/CDCClassDevice.c **** 	*Stream = (FILE)FDEV_SETUP_STREAM(CDC_Device_putchar, CDC_Device_getchar_Blocking, _FDEV_SETUP_RW)
 319:lufa-lib-svn/LUFA/Drivers/USB/Class/Device/CDCClassDevice.c **** 	fdev_set_udata(Stream, CDCInterfaceInfo);
 320:lufa-lib-svn/LUFA/Drivers/USB/Class/Device/CDCClassDevice.c **** }
 321:lufa-lib-svn/LUFA/Drivers/USB/Class/Device/CDCClassDevice.c **** 
 322:lufa-lib-svn/LUFA/Drivers/USB/Class/Device/CDCClassDevice.c **** static int CDC_Device_putchar(char c,
 323:lufa-lib-svn/LUFA/Drivers/USB/Class/Device/CDCClassDevice.c ****                               FILE* Stream)
 324:lufa-lib-svn/LUFA/Drivers/USB/Class/Device/CDCClassDevice.c **** {
 431               		.loc 1 324 0
 432               		.cfi_startproc
 433               	.LVL51:
 434               	/* prologue: function */
 435               	/* frame size = 0 */
 436               	/* stack size = 0 */
 437               	.L__stack_usage = 0
 438 0000 FB01      		movw r30,r22
 325:lufa-lib-svn/LUFA/Drivers/USB/Class/Device/CDCClassDevice.c **** 	return CDC_Device_SendByte((USB_ClassInfo_CDC_Device_t*)fdev_get_udata(Stream), c) ? _FDEV_ERR : 0
 439               		.loc 1 325 0
 440 0002 682F      		mov r22,r24
 441               	.LVL52:
 442 0004 8485      		ldd r24,Z+12
 443 0006 9585      		ldd r25,Z+13
 444               	.LVL53:
 445 0008 0E94 0000 		call CDC_Device_SendByte
 446               	.LVL54:
 447 000c 8823      		tst r24
 448 000e 01F0      		breq .L37
 449 0010 2FEF      		ldi r18,lo8(-1)
 450 0012 3FEF      		ldi r19,lo8(-1)
 451 0014 00C0      		rjmp .L36
 452               	.L37:
 453 0016 20E0      		ldi r18,0
 454 0018 30E0      		ldi r19,0
 455               	.L36:
 326:lufa-lib-svn/LUFA/Drivers/USB/Class/Device/CDCClassDevice.c **** }
 456               		.loc 1 326 0 discriminator 3
 457 001a C901      		movw r24,r18
 458 001c 0895      		ret
 459               		.cfi_endproc
 460               	.LFE111:
 462               		.section	.text.CDC_Device_Flush,"ax",@progbits
 463               	.global	CDC_Device_Flush
 465               	CDC_Device_Flush:
 466               	.LFB105:
 212:lufa-lib-svn/LUFA/Drivers/USB/Class/Device/CDCClassDevice.c **** {
 467               		.loc 1 212 0
 468               		.cfi_startproc
 469               	.LVL55:
 470               	/* prologue: function */
 471               	/* frame size = 0 */
 472               	/* stack size = 0 */
 473               	.L__stack_usage = 0
 213:lufa-lib-svn/LUFA/Drivers/USB/Class/Device/CDCClassDevice.c **** 	if ((USB_DeviceState != DEVICE_STATE_Configured) || !(CDCInterfaceInfo->State.LineEncoding.BaudRat
 474               		.loc 1 213 0
 475 0000 2EB3      		in r18,0x1e
 476 0002 2430      		cpi r18,lo8(4)
 477 0004 01F4      		brne .L43
 213:lufa-lib-svn/LUFA/Drivers/USB/Class/Device/CDCClassDevice.c **** 	if ((USB_DeviceState != DEVICE_STATE_Configured) || !(CDCInterfaceInfo->State.LineEncoding.BaudRat
 478               		.loc 1 213 0 is_stmt 0 discriminator 1
 479 0006 FC01      		movw r30,r24
 480 0008 4189      		ldd r20,Z+17
 481 000a 5289      		ldd r21,Z+18
 482 000c 6389      		ldd r22,Z+19
 483 000e 7489      		ldd r23,Z+20
 484 0010 452B      		or r20,r21
 485 0012 462B      		or r20,r22
 486 0014 472B      		or r20,r23
 487 0016 01F0      		breq .L43
 218:lufa-lib-svn/LUFA/Drivers/USB/Class/Device/CDCClassDevice.c **** 	Endpoint_SelectEndpoint(CDCInterfaceInfo->Config.DataINEndpointNumber);
 488               		.loc 1 218 0 is_stmt 1
 489 0018 8181      		ldd r24,Z+1
 490               	.LVL56:
 491               	.LBB115:
 492               	.LBB116:
 334:lufa-lib-svn/LUFA/Drivers/USB/Class/Device/../../Core/AVR8/../AVR8/Endpoint_AVR8.h **** 					UENUM = EndpointNumber;
 493               		.loc 2 334 0
 494 001a 8093 E900 		sts 233,r24
 495               	.LBE116:
 496               	.LBE115:
 497               	.LBB117:
 498               	.LBB118:
 299:lufa-lib-svn/LUFA/Drivers/USB/Class/Device/../../Core/AVR8/../AVR8/Endpoint_AVR8.h **** 					return (((uint16_t)UEBCHX << 8) | UEBCLX);
 499               		.loc 2 299 0
 500 001e 3091 F300 		lds r19,243
 501 0022 2091 F200 		lds r18,242
 502 0026 932F      		mov r25,r19
 503 0028 80E0      		ldi r24,0
 504               	.LVL57:
 505 002a 822B      		or r24,r18
 506               	.LBE118:
 507               	.LBE117:
 220:lufa-lib-svn/LUFA/Drivers/USB/Class/Device/CDCClassDevice.c **** 	if (!(Endpoint_BytesInEndpoint()))
 508               		.loc 1 220 0
 509 002c 892B      		or r24,r25
 510 002e 01F4      		brne .L40
 511               	.L41:
 221:lufa-lib-svn/LUFA/Drivers/USB/Class/Device/CDCClassDevice.c **** 	  return ENDPOINT_READYWAIT_NoError;
 512               		.loc 1 221 0
 513 0030 80E0      		ldi r24,0
 514 0032 0895      		ret
 515               	.L40:
 516               	.LBB119:
 517               	.LBB120:
 424:lufa-lib-svn/LUFA/Drivers/USB/Class/Device/../../Core/AVR8/../AVR8/Endpoint_AVR8.h **** 				return ((UEINTX & (1 << RWAL)) ? true : false);
 518               		.loc 2 424 0
 519 0034 9091 E800 		lds r25,232
 520               	.LVL58:
 521               	.LBE120:
 522               	.LBE119:
 523               	.LBB121:
 524               	.LBB122:
 520:lufa-lib-svn/LUFA/Drivers/USB/Class/Device/../../Core/AVR8/../AVR8/Endpoint_AVR8.h **** 					UEINTX &= ~((1 << TXINI) | (1 << FIFOCON));
 525               		.loc 2 520 0
 526 0038 8091 E800 		lds r24,232
 527 003c 8E77      		andi r24,lo8(126)
 528 003e 8093 E800 		sts 232,r24
 529               	.LBE122:
 530               	.LBE121:
 227:lufa-lib-svn/LUFA/Drivers/USB/Class/Device/CDCClassDevice.c **** 	if (BankFull)
 531               		.loc 1 227 0
 532 0042 95FD      		sbrc r25,5
 533 0044 00C0      		rjmp .L41
 229:lufa-lib-svn/LUFA/Drivers/USB/Class/Device/CDCClassDevice.c **** 		if ((ErrorCode = Endpoint_WaitUntilReady()) != ENDPOINT_READYWAIT_NoError)
 534               		.loc 1 229 0
 535 0046 0E94 0000 		call Endpoint_WaitUntilReady
 536               	.LVL59:
 537 004a 8111      		cpse r24,__zero_reg__
 538 004c 00C0      		rjmp .L39
 539               	.LBB123:
 540               	.LBB124:
 520:lufa-lib-svn/LUFA/Drivers/USB/Class/Device/../../Core/AVR8/../AVR8/Endpoint_AVR8.h **** 					UEINTX &= ~((1 << TXINI) | (1 << FIFOCON));
 541               		.loc 2 520 0
 542 004e 9091 E800 		lds r25,232
 543 0052 9E77      		andi r25,lo8(126)
 544 0054 9093 E800 		sts 232,r25
 545 0058 0895      		ret
 546               	.LVL60:
 547               	.L43:
 548               	.LBE124:
 549               	.LBE123:
 214:lufa-lib-svn/LUFA/Drivers/USB/Class/Device/CDCClassDevice.c **** 	  return ENDPOINT_RWSTREAM_DeviceDisconnected;
 550               		.loc 1 214 0
 551 005a 82E0      		ldi r24,lo8(2)
 552               	.LVL61:
 553               	.L39:
 236:lufa-lib-svn/LUFA/Drivers/USB/Class/Device/CDCClassDevice.c **** }
 554               		.loc 1 236 0
 555 005c 0895      		ret
 556               		.cfi_endproc
 557               	.LFE105:
 559               		.section	.text.CDC_Device_USBTask,"ax",@progbits
 560               	.global	CDC_Device_USBTask
 562               	CDC_Device_USBTask:
 563               	.LFB101:
 159:lufa-lib-svn/LUFA/Drivers/USB/Class/Device/CDCClassDevice.c **** {
 564               		.loc 1 159 0
 565               		.cfi_startproc
 566               	.LVL62:
 567               	/* prologue: function */
 568               	/* frame size = 0 */
 569               	/* stack size = 0 */
 570               	.L__stack_usage = 0
 160:lufa-lib-svn/LUFA/Drivers/USB/Class/Device/CDCClassDevice.c **** 	if ((USB_DeviceState != DEVICE_STATE_Configured) || !(CDCInterfaceInfo->State.LineEncoding.BaudRat
 571               		.loc 1 160 0
 572 0000 2EB3      		in r18,0x1e
 573 0002 2430      		cpi r18,lo8(4)
 574 0004 01F4      		brne .L44
 160:lufa-lib-svn/LUFA/Drivers/USB/Class/Device/CDCClassDevice.c **** 	if ((USB_DeviceState != DEVICE_STATE_Configured) || !(CDCInterfaceInfo->State.LineEncoding.BaudRat
 575               		.loc 1 160 0 is_stmt 0 discriminator 1
 576 0006 FC01      		movw r30,r24
 577 0008 4189      		ldd r20,Z+17
 578 000a 5289      		ldd r21,Z+18
 579 000c 6389      		ldd r22,Z+19
 580 000e 7489      		ldd r23,Z+20
 581 0010 452B      		or r20,r21
 582 0012 462B      		or r20,r22
 583 0014 472B      		or r20,r23
 584 0016 01F0      		breq .L44
 164:lufa-lib-svn/LUFA/Drivers/USB/Class/Device/CDCClassDevice.c **** 	CDC_Device_Flush(CDCInterfaceInfo);
 585               		.loc 1 164 0 is_stmt 1
 586 0018 0C94 0000 		jmp CDC_Device_Flush
 587               	.LVL63:
 588               	.L44:
 589 001c 0895      		ret
 590               		.cfi_endproc
 591               	.LFE101:
 593               		.section	.text.CDC_Device_BytesReceived,"ax",@progbits
 594               	.global	CDC_Device_BytesReceived
 596               	CDC_Device_BytesReceived:
 597               	.LFB106:
 239:lufa-lib-svn/LUFA/Drivers/USB/Class/Device/CDCClassDevice.c **** {
 598               		.loc 1 239 0
 599               		.cfi_startproc
 600               	.LVL64:
 601               	/* prologue: function */
 602               	/* frame size = 0 */
 603               	/* stack size = 0 */
 604               	.L__stack_usage = 0
 240:lufa-lib-svn/LUFA/Drivers/USB/Class/Device/CDCClassDevice.c **** 	if ((USB_DeviceState != DEVICE_STATE_Configured) || !(CDCInterfaceInfo->State.LineEncoding.BaudRat
 605               		.loc 1 240 0
 606 0000 2EB3      		in r18,0x1e
 607 0002 2430      		cpi r18,lo8(4)
 608 0004 01F0      		breq .L50
 609 0006 00C0      		rjmp .L60
 610               	.L50:
 240:lufa-lib-svn/LUFA/Drivers/USB/Class/Device/CDCClassDevice.c **** 	if ((USB_DeviceState != DEVICE_STATE_Configured) || !(CDCInterfaceInfo->State.LineEncoding.BaudRat
 611               		.loc 1 240 0 is_stmt 0 discriminator 1
 612 0008 FC01      		movw r30,r24
 613 000a 4189      		ldd r20,Z+17
 614 000c 5289      		ldd r21,Z+18
 615 000e 6389      		ldd r22,Z+19
 616 0010 7489      		ldd r23,Z+20
 617 0012 452B      		or r20,r21
 618 0014 462B      		or r20,r22
 619 0016 472B      		or r20,r23
 620 0018 01F0      		breq .L60
 243:lufa-lib-svn/LUFA/Drivers/USB/Class/Device/CDCClassDevice.c **** 	Endpoint_SelectEndpoint(CDCInterfaceInfo->Config.DataOUTEndpointNumber);
 621               		.loc 1 243 0 is_stmt 1
 622 001a 8581      		ldd r24,Z+5
 623               	.LVL65:
 624               	.LBB125:
 625               	.LBB126:
 334:lufa-lib-svn/LUFA/Drivers/USB/Class/Device/../../Core/AVR8/../AVR8/Endpoint_AVR8.h **** 					UENUM = EndpointNumber;
 626               		.loc 2 334 0
 627 001c 8093 E900 		sts 233,r24
 628               	.LBE126:
 629               	.LBE125:
 630               	.LBB127:
 631               	.LBB128:
 483:lufa-lib-svn/LUFA/Drivers/USB/Class/Device/../../Core/AVR8/../AVR8/Endpoint_AVR8.h **** 				return ((UEINTX & (1 << RXOUTI)) ? true : false);
 632               		.loc 2 483 0
 633 0020 8091 E800 		lds r24,232
 634               	.LVL66:
 635               	.LBE128:
 636               	.LBE127:
 245:lufa-lib-svn/LUFA/Drivers/USB/Class/Device/CDCClassDevice.c **** 	if (Endpoint_IsOUTReceived())
 637               		.loc 1 245 0
 638 0024 82FF      		sbrs r24,2
 639 0026 00C0      		rjmp .L60
 640               	.LBB129:
 641               	.LBB130:
 299:lufa-lib-svn/LUFA/Drivers/USB/Class/Device/../../Core/AVR8/../AVR8/Endpoint_AVR8.h **** 					return (((uint16_t)UEBCHX << 8) | UEBCLX);
 642               		.loc 2 299 0
 643 0028 3091 F300 		lds r19,243
 644 002c 2091 F200 		lds r18,242
 645 0030 932F      		mov r25,r19
 646 0032 80E0      		ldi r24,0
 647 0034 822B      		or r24,r18
 648               	.LBE130:
 649               	.LBE129:
 247:lufa-lib-svn/LUFA/Drivers/USB/Class/Device/CDCClassDevice.c **** 		if (!(Endpoint_BytesInEndpoint()))
 650               		.loc 1 247 0
 651 0036 892B      		or r24,r25
 652 0038 01F4      		brne .L53
 653               	.LBB131:
 654               	.LBB132:
 535:lufa-lib-svn/LUFA/Drivers/USB/Class/Device/../../Core/AVR8/../AVR8/Endpoint_AVR8.h **** 					UEINTX &= ~((1 << RXOUTI) | (1 << FIFOCON));
 655               		.loc 2 535 0
 656 003a 8091 E800 		lds r24,232
 657 003e 8B77      		andi r24,lo8(123)
 658 0040 8093 E800 		sts 232,r24
 659               	.LVL67:
 660               	.L60:
 661               	.LBE132:
 662               	.LBE131:
 250:lufa-lib-svn/LUFA/Drivers/USB/Class/Device/CDCClassDevice.c **** 			return 0;
 663               		.loc 1 250 0
 664 0044 20E0      		ldi r18,0
 665 0046 30E0      		ldi r19,0
 666 0048 00C0      		rjmp .L51
 667               	.LVL68:
 668               	.L53:
 669               	.LBB133:
 670               	.LBB134:
 299:lufa-lib-svn/LUFA/Drivers/USB/Class/Device/../../Core/AVR8/../AVR8/Endpoint_AVR8.h **** 					return (((uint16_t)UEBCHX << 8) | UEBCLX);
 671               		.loc 2 299 0
 672 004a 9091 F300 		lds r25,243
 673 004e 8091 F200 		lds r24,242
 674 0052 392F      		mov r19,r25
 675 0054 20E0      		ldi r18,0
 676 0056 282B      		or r18,r24
 677               	.LVL69:
 678               	.L51:
 679               	.LBE134:
 680               	.LBE133:
 261:lufa-lib-svn/LUFA/Drivers/USB/Class/Device/CDCClassDevice.c **** }
 681               		.loc 1 261 0
 682 0058 C901      		movw r24,r18
 683 005a 0895      		ret
 684               		.cfi_endproc
 685               	.LFE106:
 687               		.section	.text.CDC_Device_ReceiveByte,"ax",@progbits
 688               	.global	CDC_Device_ReceiveByte
 690               	CDC_Device_ReceiveByte:
 691               	.LFB107:
 264:lufa-lib-svn/LUFA/Drivers/USB/Class/Device/CDCClassDevice.c **** {
 692               		.loc 1 264 0
 693               		.cfi_startproc
 694               	.LVL70:
 695               	/* prologue: function */
 696               	/* frame size = 0 */
 697               	/* stack size = 0 */
 698               	.L__stack_usage = 0
 265:lufa-lib-svn/LUFA/Drivers/USB/Class/Device/CDCClassDevice.c **** 	if ((USB_DeviceState != DEVICE_STATE_Configured) || !(CDCInterfaceInfo->State.LineEncoding.BaudRat
 699               		.loc 1 265 0
 700 0000 2EB3      		in r18,0x1e
 701 0002 2430      		cpi r18,lo8(4)
 702 0004 01F0      		breq .L62
 703               	.LVL71:
 704               	.L64:
 266:lufa-lib-svn/LUFA/Drivers/USB/Class/Device/CDCClassDevice.c **** 	  return -1;
 705               		.loc 1 266 0
 706 0006 2FEF      		ldi r18,lo8(-1)
 707 0008 3FEF      		ldi r19,lo8(-1)
 708 000a 00C0      		rjmp .L63
 709               	.LVL72:
 710               	.L62:
 265:lufa-lib-svn/LUFA/Drivers/USB/Class/Device/CDCClassDevice.c **** 	if ((USB_DeviceState != DEVICE_STATE_Configured) || !(CDCInterfaceInfo->State.LineEncoding.BaudRat
 711               		.loc 1 265 0 discriminator 1
 712 000c FC01      		movw r30,r24
 713 000e 4189      		ldd r20,Z+17
 714 0010 5289      		ldd r21,Z+18
 715 0012 6389      		ldd r22,Z+19
 716 0014 7489      		ldd r23,Z+20
 717 0016 452B      		or r20,r21
 718 0018 462B      		or r20,r22
 719 001a 472B      		or r20,r23
 720 001c 01F0      		breq .L64
 721               	.LVL73:
 270:lufa-lib-svn/LUFA/Drivers/USB/Class/Device/CDCClassDevice.c **** 	Endpoint_SelectEndpoint(CDCInterfaceInfo->Config.DataOUTEndpointNumber);
 722               		.loc 1 270 0
 723 001e 8581      		ldd r24,Z+5
 724               	.LVL74:
 725               	.LBB135:
 726               	.LBB136:
 334:lufa-lib-svn/LUFA/Drivers/USB/Class/Device/../../Core/AVR8/../AVR8/Endpoint_AVR8.h **** 					UENUM = EndpointNumber;
 727               		.loc 2 334 0
 728 0020 8093 E900 		sts 233,r24
 729               	.LBE136:
 730               	.LBE135:
 731               	.LBB137:
 732               	.LBB138:
 483:lufa-lib-svn/LUFA/Drivers/USB/Class/Device/../../Core/AVR8/../AVR8/Endpoint_AVR8.h **** 				return ((UEINTX & (1 << RXOUTI)) ? true : false);
 733               		.loc 2 483 0
 734 0024 8091 E800 		lds r24,232
 735               	.LVL75:
 736               	.LBE138:
 737               	.LBE137:
 272:lufa-lib-svn/LUFA/Drivers/USB/Class/Device/CDCClassDevice.c **** 	if (Endpoint_IsOUTReceived())
 738               		.loc 1 272 0
 739 0028 82FF      		sbrs r24,2
 740 002a 00C0      		rjmp .L64
 741               	.LBB139:
 742               	.LBB140:
 299:lufa-lib-svn/LUFA/Drivers/USB/Class/Device/../../Core/AVR8/../AVR8/Endpoint_AVR8.h **** 					return (((uint16_t)UEBCHX << 8) | UEBCLX);
 743               		.loc 2 299 0
 744 002c 3091 F300 		lds r19,243
 745 0030 2091 F200 		lds r18,242
 746 0034 932F      		mov r25,r19
 747 0036 80E0      		ldi r24,0
 748 0038 822B      		or r24,r18
 749               	.LBE140:
 750               	.LBE139:
 274:lufa-lib-svn/LUFA/Drivers/USB/Class/Device/CDCClassDevice.c **** 		if (Endpoint_BytesInEndpoint())
 751               		.loc 1 274 0
 752 003a 892B      		or r24,r25
 753 003c 01F0      		breq .L66
 754               	.LBB141:
 755               	.LBB142:
 616:lufa-lib-svn/LUFA/Drivers/USB/Class/Device/../../Core/AVR8/../AVR8/Endpoint_AVR8.h **** 				return UEDATX;
 756               		.loc 2 616 0
 757 003e 2091 F100 		lds r18,241
 758               	.LBE142:
 759               	.LBE141:
 275:lufa-lib-svn/LUFA/Drivers/USB/Class/Device/CDCClassDevice.c **** 		  ReceivedByte = Endpoint_Read_8();
 760               		.loc 1 275 0
 761 0042 30E0      		ldi r19,0
 762               	.LVL76:
 763 0044 00C0      		rjmp .L65
 764               	.LVL77:
 765               	.L66:
 268:lufa-lib-svn/LUFA/Drivers/USB/Class/Device/CDCClassDevice.c **** 	int16_t ReceivedByte = -1;
 766               		.loc 1 268 0
 767 0046 2FEF      		ldi r18,lo8(-1)
 768 0048 3FEF      		ldi r19,lo8(-1)
 769               	.LVL78:
 770               	.L65:
 771               	.LBB143:
 772               	.LBB144:
 299:lufa-lib-svn/LUFA/Drivers/USB/Class/Device/../../Core/AVR8/../AVR8/Endpoint_AVR8.h **** 					return (((uint16_t)UEBCHX << 8) | UEBCLX);
 773               		.loc 2 299 0
 774 004a 5091 F300 		lds r21,243
 775 004e 4091 F200 		lds r20,242
 776 0052 952F      		mov r25,r21
 777 0054 80E0      		ldi r24,0
 778 0056 842B      		or r24,r20
 779               	.LBE144:
 780               	.LBE143:
 277:lufa-lib-svn/LUFA/Drivers/USB/Class/Device/CDCClassDevice.c **** 		if (!(Endpoint_BytesInEndpoint()))
 781               		.loc 1 277 0
 782 0058 892B      		or r24,r25
 783 005a 01F4      		brne .L63
 784               	.LBB145:
 785               	.LBB146:
 535:lufa-lib-svn/LUFA/Drivers/USB/Class/Device/../../Core/AVR8/../AVR8/Endpoint_AVR8.h **** 					UEINTX &= ~((1 << RXOUTI) | (1 << FIFOCON));
 786               		.loc 2 535 0
 787 005c 8091 E800 		lds r24,232
 788 0060 8B77      		andi r24,lo8(123)
 789 0062 8093 E800 		sts 232,r24
 790               	.LVL79:
 791               	.L63:
 792               	.LBE146:
 793               	.LBE145:
 282:lufa-lib-svn/LUFA/Drivers/USB/Class/Device/CDCClassDevice.c **** }
 794               		.loc 1 282 0
 795 0066 C901      		movw r24,r18
 796 0068 0895      		ret
 797               		.cfi_endproc
 798               	.LFE107:
 800               		.section	.text.CDC_Device_getchar_Blocking,"ax",@progbits
 802               	CDC_Device_getchar_Blocking:
 803               	.LFB113:
 327:lufa-lib-svn/LUFA/Drivers/USB/Class/Device/CDCClassDevice.c **** 
 328:lufa-lib-svn/LUFA/Drivers/USB/Class/Device/CDCClassDevice.c **** static int CDC_Device_getchar(FILE* Stream)
 329:lufa-lib-svn/LUFA/Drivers/USB/Class/Device/CDCClassDevice.c **** {
 330:lufa-lib-svn/LUFA/Drivers/USB/Class/Device/CDCClassDevice.c **** 	int16_t ReceivedByte = CDC_Device_ReceiveByte((USB_ClassInfo_CDC_Device_t*)fdev_get_udata(Stream))
 331:lufa-lib-svn/LUFA/Drivers/USB/Class/Device/CDCClassDevice.c **** 
 332:lufa-lib-svn/LUFA/Drivers/USB/Class/Device/CDCClassDevice.c **** 	if (ReceivedByte < 0)
 333:lufa-lib-svn/LUFA/Drivers/USB/Class/Device/CDCClassDevice.c **** 	  return _FDEV_EOF;
 334:lufa-lib-svn/LUFA/Drivers/USB/Class/Device/CDCClassDevice.c **** 
 335:lufa-lib-svn/LUFA/Drivers/USB/Class/Device/CDCClassDevice.c **** 	return ReceivedByte;
 336:lufa-lib-svn/LUFA/Drivers/USB/Class/Device/CDCClassDevice.c **** }
 337:lufa-lib-svn/LUFA/Drivers/USB/Class/Device/CDCClassDevice.c **** 
 338:lufa-lib-svn/LUFA/Drivers/USB/Class/Device/CDCClassDevice.c **** static int CDC_Device_getchar_Blocking(FILE* Stream)
 339:lufa-lib-svn/LUFA/Drivers/USB/Class/Device/CDCClassDevice.c **** {
 804               		.loc 1 339 0
 805               		.cfi_startproc
 806               	.LVL80:
 807 0000 CF93      		push r28
 808               	.LCFI6:
 809               		.cfi_def_cfa_offset 3
 810               		.cfi_offset 28, -2
 811 0002 DF93      		push r29
 812               	.LCFI7:
 813               		.cfi_def_cfa_offset 4
 814               		.cfi_offset 29, -3
 815               	/* prologue: function */
 816               	/* frame size = 0 */
 817               	/* stack size = 2 */
 818               	.L__stack_usage = 2
 819 0004 EC01      		movw r28,r24
 340:lufa-lib-svn/LUFA/Drivers/USB/Class/Device/CDCClassDevice.c **** 	int16_t ReceivedByte;
 341:lufa-lib-svn/LUFA/Drivers/USB/Class/Device/CDCClassDevice.c **** 
 342:lufa-lib-svn/LUFA/Drivers/USB/Class/Device/CDCClassDevice.c **** 	while ((ReceivedByte = CDC_Device_ReceiveByte((USB_ClassInfo_CDC_Device_t*)fdev_get_udata(Stream))
 820               		.loc 1 342 0
 821 0006 00C0      		rjmp .L74
 822               	.LVL81:
 823               	.L76:
 343:lufa-lib-svn/LUFA/Drivers/USB/Class/Device/CDCClassDevice.c **** 	{
 344:lufa-lib-svn/LUFA/Drivers/USB/Class/Device/CDCClassDevice.c **** 		if (USB_DeviceState == DEVICE_STATE_Unattached)
 824               		.loc 1 344 0
 825 0008 8EB3      		in r24,0x1e
 826 000a 8823      		tst r24
 827 000c 01F0      		breq .L77
 345:lufa-lib-svn/LUFA/Drivers/USB/Class/Device/CDCClassDevice.c **** 		  return _FDEV_EOF;
 346:lufa-lib-svn/LUFA/Drivers/USB/Class/Device/CDCClassDevice.c **** 
 347:lufa-lib-svn/LUFA/Drivers/USB/Class/Device/CDCClassDevice.c **** 		CDC_Device_USBTask((USB_ClassInfo_CDC_Device_t*)fdev_get_udata(Stream));
 828               		.loc 1 347 0
 829 000e 8C85      		ldd r24,Y+12
 830 0010 9D85      		ldd r25,Y+13
 831 0012 0E94 0000 		call CDC_Device_USBTask
 832               	.LVL82:
 348:lufa-lib-svn/LUFA/Drivers/USB/Class/Device/CDCClassDevice.c **** 		USB_USBTask();
 833               		.loc 1 348 0
 834 0016 0E94 0000 		call USB_USBTask
 835               	.LVL83:
 836               	.L74:
 342:lufa-lib-svn/LUFA/Drivers/USB/Class/Device/CDCClassDevice.c **** 	while ((ReceivedByte = CDC_Device_ReceiveByte((USB_ClassInfo_CDC_Device_t*)fdev_get_udata(Stream))
 837               		.loc 1 342 0 discriminator 1
 838 001a 8C85      		ldd r24,Y+12
 839 001c 9D85      		ldd r25,Y+13
 840 001e 0E94 0000 		call CDC_Device_ReceiveByte
 841               	.LVL84:
 842 0022 9C01      		movw r18,r24
 843               	.LVL85:
 844 0024 97FD      		sbrc r25,7
 845 0026 00C0      		rjmp .L76
 846 0028 00C0      		rjmp .L75
 847               	.L77:
 345:lufa-lib-svn/LUFA/Drivers/USB/Class/Device/CDCClassDevice.c **** 		  return _FDEV_EOF;
 848               		.loc 1 345 0
 849 002a 2EEF      		ldi r18,lo8(-2)
 850 002c 3FEF      		ldi r19,lo8(-1)
 851               	.LVL86:
 852               	.L75:
 349:lufa-lib-svn/LUFA/Drivers/USB/Class/Device/CDCClassDevice.c **** 	}
 350:lufa-lib-svn/LUFA/Drivers/USB/Class/Device/CDCClassDevice.c **** 
 351:lufa-lib-svn/LUFA/Drivers/USB/Class/Device/CDCClassDevice.c **** 	return ReceivedByte;
 352:lufa-lib-svn/LUFA/Drivers/USB/Class/Device/CDCClassDevice.c **** }
 853               		.loc 1 352 0
 854 002e C901      		movw r24,r18
 855               	/* epilogue start */
 856 0030 DF91      		pop r29
 857 0032 CF91      		pop r28
 858               	.LVL87:
 859 0034 0895      		ret
 860               		.cfi_endproc
 861               	.LFE113:
 863               		.section	.text.CDC_Device_getchar,"ax",@progbits
 865               	CDC_Device_getchar:
 866               	.LFB112:
 329:lufa-lib-svn/LUFA/Drivers/USB/Class/Device/CDCClassDevice.c **** {
 867               		.loc 1 329 0
 868               		.cfi_startproc
 869               	.LVL88:
 870               	/* prologue: function */
 871               	/* frame size = 0 */
 872               	/* stack size = 0 */
 873               	.L__stack_usage = 0
 330:lufa-lib-svn/LUFA/Drivers/USB/Class/Device/CDCClassDevice.c **** 	int16_t ReceivedByte = CDC_Device_ReceiveByte((USB_ClassInfo_CDC_Device_t*)fdev_get_udata(Stream))
 874               		.loc 1 330 0
 875 0000 FC01      		movw r30,r24
 876 0002 8485      		ldd r24,Z+12
 877 0004 9585      		ldd r25,Z+13
 878               	.LVL89:
 879 0006 0E94 0000 		call CDC_Device_ReceiveByte
 880               	.LVL90:
 881 000a 9C01      		movw r18,r24
 882               	.LVL91:
 332:lufa-lib-svn/LUFA/Drivers/USB/Class/Device/CDCClassDevice.c **** 	if (ReceivedByte < 0)
 883               		.loc 1 332 0
 884 000c 97FF      		sbrs r25,7
 885 000e 00C0      		rjmp .L79
 333:lufa-lib-svn/LUFA/Drivers/USB/Class/Device/CDCClassDevice.c **** 	  return _FDEV_EOF;
 886               		.loc 1 333 0
 887 0010 2EEF      		ldi r18,lo8(-2)
 888 0012 3FEF      		ldi r19,lo8(-1)
 889               	.LVL92:
 890               	.L79:
 336:lufa-lib-svn/LUFA/Drivers/USB/Class/Device/CDCClassDevice.c **** }
 891               		.loc 1 336 0
 892 0014 C901      		movw r24,r18
 893               	.LVL93:
 894 0016 0895      		ret
 895               		.cfi_endproc
 896               	.LFE112:
 898               		.section	.rodata
 899               	.LC0:
 900 0000 A1        		.byte	-95
 901 0001 20        		.byte	32
 902 0002 0000      		.word	0
 903 0004 0000      		.word	0
 904 0006 0200      		.word	2
 905               		.section	.text.CDC_Device_SendControlLineStateChange,"ax",@progbits
 906               	.global	CDC_Device_SendControlLineStateChange
 908               	CDC_Device_SendControlLineStateChange:
 909               	.LFB108:
 285:lufa-lib-svn/LUFA/Drivers/USB/Class/Device/CDCClassDevice.c **** {
 910               		.loc 1 285 0
 911               		.cfi_startproc
 912               	.LVL94:
 913 0000 0F93      		push r16
 914               	.LCFI8:
 915               		.cfi_def_cfa_offset 3
 916               		.cfi_offset 16, -2
 917 0002 1F93      		push r17
 918               	.LCFI9:
 919               		.cfi_def_cfa_offset 4
 920               		.cfi_offset 17, -3
 921 0004 CF93      		push r28
 922               	.LCFI10:
 923               		.cfi_def_cfa_offset 5
 924               		.cfi_offset 28, -4
 925 0006 DF93      		push r29
 926               	.LCFI11:
 927               		.cfi_def_cfa_offset 6
 928               		.cfi_offset 29, -5
 929 0008 CDB7      		in r28,__SP_L__
 930 000a DEB7      		in r29,__SP_H__
 931               	.LCFI12:
 932               		.cfi_def_cfa_register 28
 933 000c 2897      		sbiw r28,8
 934               	.LCFI13:
 935               		.cfi_def_cfa_offset 14
 936 000e 0FB6      		in __tmp_reg__,__SREG__
 937 0010 F894      		cli
 938 0012 DEBF      		out __SP_H__,r29
 939 0014 0FBE      		out __SREG__,__tmp_reg__
 940 0016 CDBF      		out __SP_L__,r28
 941               	/* prologue: function */
 942               	/* frame size = 8 */
 943               	/* stack size = 12 */
 944               	.L__stack_usage = 12
 945 0018 8C01      		movw r16,r24
 286:lufa-lib-svn/LUFA/Drivers/USB/Class/Device/CDCClassDevice.c **** 	if ((USB_DeviceState != DEVICE_STATE_Configured) || !(CDCInterfaceInfo->State.LineEncoding.BaudRat
 946               		.loc 1 286 0
 947 001a 8EB3      		in r24,0x1e
 948               	.LVL95:
 949 001c 8430      		cpi r24,lo8(4)
 950 001e 01F4      		brne .L80
 286:lufa-lib-svn/LUFA/Drivers/USB/Class/Device/CDCClassDevice.c **** 	if ((USB_DeviceState != DEVICE_STATE_Configured) || !(CDCInterfaceInfo->State.LineEncoding.BaudRat
 951               		.loc 1 286 0 is_stmt 0 discriminator 1
 952 0020 F801      		movw r30,r16
 953 0022 4189      		ldd r20,Z+17
 954 0024 5289      		ldd r21,Z+18
 955 0026 6389      		ldd r22,Z+19
 956 0028 7489      		ldd r23,Z+20
 957 002a 452B      		or r20,r21
 958 002c 462B      		or r20,r22
 959 002e 472B      		or r20,r23
 960 0030 01F0      		breq .L80
 289:lufa-lib-svn/LUFA/Drivers/USB/Class/Device/CDCClassDevice.c **** 	Endpoint_SelectEndpoint(CDCInterfaceInfo->Config.NotificationEndpointNumber);
 961               		.loc 1 289 0 is_stmt 1
 962 0032 8185      		ldd r24,Z+9
 963               	.LVL96:
 964               	.LBB147:
 965               	.LBB148:
 334:lufa-lib-svn/LUFA/Drivers/USB/Class/Device/../../Core/AVR8/../AVR8/Endpoint_AVR8.h **** 					UENUM = EndpointNumber;
 966               		.loc 2 334 0
 967 0034 8093 E900 		sts 233,r24
 968               	.LBE148:
 969               	.LBE147:
 291:lufa-lib-svn/LUFA/Drivers/USB/Class/Device/CDCClassDevice.c **** 	USB_Request_Header_t Notification = (USB_Request_Header_t)
 970               		.loc 1 291 0
 971 0038 88E0      		ldi r24,lo8(8)
 972               	.LVL97:
 973 003a E0E0      		ldi r30,lo8(.LC0)
 974 003c F0E0      		ldi r31,hi8(.LC0)
 975 003e DE01      		movw r26,r28
 976 0040 1196      		adiw r26,1
 977               		0:
 978 0042 0190      		ld r0,Z+
 979 0044 0D92      		st X+,r0
 980 0046 8A95      		dec r24
 981 0048 01F4      		brne 0b
 300:lufa-lib-svn/LUFA/Drivers/USB/Class/Device/CDCClassDevice.c **** 	Endpoint_Write_Stream_LE(&Notification, sizeof(USB_Request_Header_t), NULL);
 982               		.loc 1 300 0
 983 004a 40E0      		ldi r20,0
 984 004c 50E0      		ldi r21,0
 985 004e 68E0      		ldi r22,lo8(8)
 986 0050 70E0      		ldi r23,0
 987 0052 CE01      		movw r24,r28
 988 0054 0196      		adiw r24,1
 989 0056 0E94 0000 		call Endpoint_Write_Stream_LE
 990               	.LVL98:
 301:lufa-lib-svn/LUFA/Drivers/USB/Class/Device/CDCClassDevice.c **** 	Endpoint_Write_Stream_LE(&CDCInterfaceInfo->State.ControlLineStates.DeviceToHost,
 991               		.loc 1 301 0
 992 005a 40E0      		ldi r20,0
 993 005c 50E0      		ldi r21,0
 994 005e 62E0      		ldi r22,lo8(2)
 995 0060 70E0      		ldi r23,0
 996 0062 C801      		movw r24,r16
 997 0064 0F96      		adiw r24,15
 998 0066 0E94 0000 		call Endpoint_Write_Stream_LE
 999               	.LVL99:
 1000               	.LBB149:
 1001               	.LBB150:
 520:lufa-lib-svn/LUFA/Drivers/USB/Class/Device/../../Core/AVR8/../AVR8/Endpoint_AVR8.h **** 					UEINTX &= ~((1 << TXINI) | (1 << FIFOCON));
 1002               		.loc 2 520 0
 1003 006a 8091 E800 		lds r24,232
 1004 006e 8E77      		andi r24,lo8(126)
 1005 0070 8093 E800 		sts 232,r24
 1006               	.L80:
 1007               	/* epilogue start */
 1008               	.LBE150:
 1009               	.LBE149:
 305:lufa-lib-svn/LUFA/Drivers/USB/Class/Device/CDCClassDevice.c **** }
 1010               		.loc 1 305 0
 1011 0074 2896      		adiw r28,8
 1012 0076 0FB6      		in __tmp_reg__,__SREG__
 1013 0078 F894      		cli
 1014 007a DEBF      		out __SP_H__,r29
 1015 007c 0FBE      		out __SREG__,__tmp_reg__
 1016 007e CDBF      		out __SP_L__,r28
 1017 0080 DF91      		pop r29
 1018 0082 CF91      		pop r28
 1019 0084 1F91      		pop r17
 1020 0086 0F91      		pop r16
 1021               	.LVL100:
 1022 0088 0895      		ret
 1023               		.cfi_endproc
 1024               	.LFE108:
 1026               		.section	.text.CDC_Device_CreateStream,"ax",@progbits
 1027               	.global	CDC_Device_CreateStream
 1029               	CDC_Device_CreateStream:
 1030               	.LFB109:
 310:lufa-lib-svn/LUFA/Drivers/USB/Class/Device/CDCClassDevice.c **** {
 1031               		.loc 1 310 0
 1032               		.cfi_startproc
 1033               	.LVL101:
 1034               	/* prologue: function */
 1035               	/* frame size = 0 */
 1036               	/* stack size = 0 */
 1037               	.L__stack_usage = 0
 1038 0000 FB01      		movw r30,r22
 311:lufa-lib-svn/LUFA/Drivers/USB/Class/Device/CDCClassDevice.c **** 	*Stream = (FILE)FDEV_SETUP_STREAM(CDC_Device_putchar, CDC_Device_getchar, _FDEV_SETUP_RW);
 1039               		.loc 1 311 0
 1040 0002 2EE0      		ldi r18,lo8(14)
 1041 0004 DB01      		movw r26,r22
 1042               		0:
 1043 0006 1D92      		st X+,__zero_reg__
 1044 0008 2A95      		dec r18
 1045 000a 01F4      		brne 0b
 1046 000c 23E0      		ldi r18,lo8(3)
 1047 000e 2383      		std Z+3,r18
 1048 0010 20E0      		ldi r18,lo8(gs(CDC_Device_putchar))
 1049 0012 30E0      		ldi r19,hi8(gs(CDC_Device_putchar))
 1050 0014 3187      		std Z+9,r19
 1051 0016 2087      		std Z+8,r18
 1052 0018 20E0      		ldi r18,lo8(gs(CDC_Device_getchar))
 1053 001a 30E0      		ldi r19,hi8(gs(CDC_Device_getchar))
 1054 001c 3387      		std Z+11,r19
 1055 001e 2287      		std Z+10,r18
 312:lufa-lib-svn/LUFA/Drivers/USB/Class/Device/CDCClassDevice.c **** 	fdev_set_udata(Stream, CDCInterfaceInfo);
 1056               		.loc 1 312 0
 1057 0020 9587      		std Z+13,r25
 1058 0022 8487      		std Z+12,r24
 1059 0024 0895      		ret
 1060               		.cfi_endproc
 1061               	.LFE109:
 1063               		.section	.text.CDC_Device_CreateBlockingStream,"ax",@progbits
 1064               	.global	CDC_Device_CreateBlockingStream
 1066               	CDC_Device_CreateBlockingStream:
 1067               	.LFB110:
 317:lufa-lib-svn/LUFA/Drivers/USB/Class/Device/CDCClassDevice.c **** {
 1068               		.loc 1 317 0
 1069               		.cfi_startproc
 1070               	.LVL102:
 1071               	/* prologue: function */
 1072               	/* frame size = 0 */
 1073               	/* stack size = 0 */
 1074               	.L__stack_usage = 0
 1075 0000 FB01      		movw r30,r22
 318:lufa-lib-svn/LUFA/Drivers/USB/Class/Device/CDCClassDevice.c **** 	*Stream = (FILE)FDEV_SETUP_STREAM(CDC_Device_putchar, CDC_Device_getchar_Blocking, _FDEV_SETUP_RW)
 1076               		.loc 1 318 0
 1077 0002 2EE0      		ldi r18,lo8(14)
 1078 0004 DB01      		movw r26,r22
 1079               		0:
 1080 0006 1D92      		st X+,__zero_reg__
 1081 0008 2A95      		dec r18
 1082 000a 01F4      		brne 0b
 1083 000c 23E0      		ldi r18,lo8(3)
 1084 000e 2383      		std Z+3,r18
 1085 0010 20E0      		ldi r18,lo8(gs(CDC_Device_putchar))
 1086 0012 30E0      		ldi r19,hi8(gs(CDC_Device_putchar))
 1087 0014 3187      		std Z+9,r19
 1088 0016 2087      		std Z+8,r18
 1089 0018 20E0      		ldi r18,lo8(gs(CDC_Device_getchar_Blocking))
 1090 001a 30E0      		ldi r19,hi8(gs(CDC_Device_getchar_Blocking))
 1091 001c 3387      		std Z+11,r19
 1092 001e 2287      		std Z+10,r18
 319:lufa-lib-svn/LUFA/Drivers/USB/Class/Device/CDCClassDevice.c **** 	fdev_set_udata(Stream, CDCInterfaceInfo);
 1093               		.loc 1 319 0
 1094 0020 9587      		std Z+13,r25
 1095 0022 8487      		std Z+12,r24
 1096 0024 0895      		ret
 1097               		.cfi_endproc
 1098               	.LFE110:
 1100               		.section	.text.CDC_Device_Event_Stub,"ax",@progbits
 1101               	.global	CDC_Device_Event_Stub
 1103               	CDC_Device_Event_Stub:
 1104               	.LFB114:
 353:lufa-lib-svn/LUFA/Drivers/USB/Class/Device/CDCClassDevice.c **** #endif
 354:lufa-lib-svn/LUFA/Drivers/USB/Class/Device/CDCClassDevice.c **** 
 355:lufa-lib-svn/LUFA/Drivers/USB/Class/Device/CDCClassDevice.c **** void CDC_Device_Event_Stub(void)
 356:lufa-lib-svn/LUFA/Drivers/USB/Class/Device/CDCClassDevice.c **** {
 1105               		.loc 1 356 0
 1106               		.cfi_startproc
 1107               	/* prologue: function */
 1108               	/* frame size = 0 */
 1109               	/* stack size = 0 */
 1110               	.L__stack_usage = 0
 1111 0000 0895      		ret
 1112               		.cfi_endproc
 1113               	.LFE114:
 1115               		.weak	EVENT_CDC_Device_ControLineStateChanged
 1116               		.set	EVENT_CDC_Device_ControLineStateChanged,CDC_Device_Event_Stub
 1117               		.weak	EVENT_CDC_Device_BreakSent
 1118               		.set	EVENT_CDC_Device_BreakSent,CDC_Device_Event_Stub
 1119               		.weak	EVENT_CDC_Device_LineEncodingChanged
 1120               		.set	EVENT_CDC_Device_LineEncodingChanged,CDC_Device_Event_Stub
 1121               		.section	.text.CDC_Device_ProcessControlRequest,"ax",@progbits
 1122               	.global	CDC_Device_ProcessControlRequest
 1124               	CDC_Device_ProcessControlRequest:
 1125               	.LFB99:
  41:lufa-lib-svn/LUFA/Drivers/USB/Class/Device/CDCClassDevice.c **** {
 1126               		.loc 1 41 0
 1127               		.cfi_startproc
 1128               	.LVL103:
  41:lufa-lib-svn/LUFA/Drivers/USB/Class/Device/CDCClassDevice.c **** {
 1129               		.loc 1 41 0
 1130 0000 0F93      		push r16
 1131               	.LCFI14:
 1132               		.cfi_def_cfa_offset 3
 1133               		.cfi_offset 16, -2
 1134 0002 1F93      		push r17
 1135               	.LCFI15:
 1136               		.cfi_def_cfa_offset 4
 1137               		.cfi_offset 17, -3
 1138 0004 CF93      		push r28
 1139               	.LCFI16:
 1140               		.cfi_def_cfa_offset 5
 1141               		.cfi_offset 28, -4
 1142 0006 DF93      		push r29
 1143               	.LCFI17:
 1144               		.cfi_def_cfa_offset 6
 1145               		.cfi_offset 29, -5
 1146               	/* prologue: function */
 1147               	/* frame size = 0 */
 1148               	/* stack size = 4 */
 1149               	.L__stack_usage = 4
 1150 0008 EC01      		movw r28,r24
 1151               	.LBB151:
 1152               	.LBB152:
 495:lufa-lib-svn/LUFA/Drivers/USB/Class/Device/../../Core/AVR8/../AVR8/Endpoint_AVR8.h **** 				return ((UEINTX & (1 << RXSTPI)) ? true : false);
 1153               		.loc 2 495 0
 1154 000a 8091 E800 		lds r24,232
 1155               	.LVL104:
 1156               	.LBE152:
 1157               	.LBE151:
  42:lufa-lib-svn/LUFA/Drivers/USB/Class/Device/CDCClassDevice.c **** 	if (!(Endpoint_IsSETUPReceived()))
 1158               		.loc 1 42 0
 1159 000e 83FF      		sbrs r24,3
 1160 0010 00C0      		rjmp .L89
  45:lufa-lib-svn/LUFA/Drivers/USB/Class/Device/CDCClassDevice.c **** 	if (USB_ControlRequest.wIndex != CDCInterfaceInfo->Config.ControlInterfaceNumber)
 1161               		.loc 1 45 0
 1162 0012 8881      		ld r24,Y
 1163 0014 90E0      		ldi r25,0
 1164 0016 2091 0000 		lds r18,USB_ControlRequest+4
 1165 001a 3091 0000 		lds r19,USB_ControlRequest+4+1
 1166 001e 2817      		cp r18,r24
 1167 0020 3907      		cpc r19,r25
 1168 0022 01F0      		breq .+2
 1169 0024 00C0      		rjmp .L89
  48:lufa-lib-svn/LUFA/Drivers/USB/Class/Device/CDCClassDevice.c **** 	switch (USB_ControlRequest.bRequest)
 1170               		.loc 1 48 0
 1171 0026 8091 0000 		lds r24,USB_ControlRequest+1
 1172 002a 8132      		cpi r24,lo8(33)
 1173 002c 01F0      		breq .L92
 1174 002e 00F4      		brsh .L95
 1175 0030 8032      		cpi r24,lo8(32)
 1176 0032 01F0      		breq .+2
 1177 0034 00C0      		rjmp .L89
 1178 0036 00C0      		rjmp .L91
 1179               	.L95:
 1180 0038 8232      		cpi r24,lo8(34)
 1181 003a 01F4      		brne .+2
 1182 003c 00C0      		rjmp .L93
 1183 003e 8332      		cpi r24,lo8(35)
 1184 0040 01F0      		breq .+2
 1185 0042 00C0      		rjmp .L89
 1186 0044 00C0      		rjmp .L94
 1187               	.L92:
  51:lufa-lib-svn/LUFA/Drivers/USB/Class/Device/CDCClassDevice.c **** 			if (USB_ControlRequest.bmRequestType == (REQDIR_DEVICETOHOST | REQTYPE_CLASS | REQREC_INTERFACE)
 1188               		.loc 1 51 0
 1189 0046 8091 0000 		lds r24,USB_ControlRequest
 1190 004a 813A      		cpi r24,lo8(-95)
 1191 004c 01F0      		breq .+2
 1192 004e 00C0      		rjmp .L89
 1193               	.LBB153:
 1194               	.LBB154:
 508:lufa-lib-svn/LUFA/Drivers/USB/Class/Device/../../Core/AVR8/../AVR8/Endpoint_AVR8.h **** 				UEINTX &= ~(1 << RXSTPI);
 1195               		.loc 2 508 0
 1196 0050 8091 E800 		lds r24,232
 1197 0054 877F      		andi r24,lo8(-9)
 1198 0056 8093 E800 		sts 232,r24
 1199               	.L96:
 1200               	.LBE154:
 1201               	.LBE153:
 1202               	.LBB155:
 1203               	.LBB156:
 471:lufa-lib-svn/LUFA/Drivers/USB/Class/Device/../../Core/AVR8/../AVR8/Endpoint_AVR8.h **** 				return ((UEINTX & (1 << TXINI)) ? true : false);
 1204               		.loc 2 471 0 discriminator 1
 1205 005a 8091 E800 		lds r24,232
 1206               	.LBE156:
 1207               	.LBE155:
  55:lufa-lib-svn/LUFA/Drivers/USB/Class/Device/CDCClassDevice.c **** 				while (!(Endpoint_IsINReady()));
 1208               		.loc 1 55 0 discriminator 1
 1209 005e 80FF      		sbrs r24,0
 1210 0060 00C0      		rjmp .L96
  57:lufa-lib-svn/LUFA/Drivers/USB/Class/Device/CDCClassDevice.c **** 				Endpoint_Write_32_LE(CDCInterfaceInfo->State.LineEncoding.BaudRateBPS);
 1211               		.loc 1 57 0
 1212 0062 4989      		ldd r20,Y+17
 1213 0064 5A89      		ldd r21,Y+18
 1214 0066 6B89      		ldd r22,Y+19
 1215 0068 7C89      		ldd r23,Y+20
 1216               	.LVL105:
 1217               	.LBB157:
 1218               	.LBB158:
 629:lufa-lib-svn/LUFA/Drivers/USB/Class/Device/../../Core/AVR8/../AVR8/Endpoint_AVR8.h **** 			}
 630:lufa-lib-svn/LUFA/Drivers/USB/Class/Device/../../Core/AVR8/../AVR8/Endpoint_AVR8.h **** 
 631:lufa-lib-svn/LUFA/Drivers/USB/Class/Device/../../Core/AVR8/../AVR8/Endpoint_AVR8.h **** 			/** Discards one byte from the currently selected endpoint's bank, for OUT direction endpoints.
 632:lufa-lib-svn/LUFA/Drivers/USB/Class/Device/../../Core/AVR8/../AVR8/Endpoint_AVR8.h **** 			 *
 633:lufa-lib-svn/LUFA/Drivers/USB/Class/Device/../../Core/AVR8/../AVR8/Endpoint_AVR8.h **** 			 *  \ingroup Group_EndpointPrimitiveRW_AVR8
 634:lufa-lib-svn/LUFA/Drivers/USB/Class/Device/../../Core/AVR8/../AVR8/Endpoint_AVR8.h **** 			 */
 635:lufa-lib-svn/LUFA/Drivers/USB/Class/Device/../../Core/AVR8/../AVR8/Endpoint_AVR8.h **** 			static inline void Endpoint_Discard_8(void) ATTR_ALWAYS_INLINE;
 636:lufa-lib-svn/LUFA/Drivers/USB/Class/Device/../../Core/AVR8/../AVR8/Endpoint_AVR8.h **** 			static inline void Endpoint_Discard_8(void)
 637:lufa-lib-svn/LUFA/Drivers/USB/Class/Device/../../Core/AVR8/../AVR8/Endpoint_AVR8.h **** 			{
 638:lufa-lib-svn/LUFA/Drivers/USB/Class/Device/../../Core/AVR8/../AVR8/Endpoint_AVR8.h **** 				uint8_t Dummy;
 639:lufa-lib-svn/LUFA/Drivers/USB/Class/Device/../../Core/AVR8/../AVR8/Endpoint_AVR8.h **** 
 640:lufa-lib-svn/LUFA/Drivers/USB/Class/Device/../../Core/AVR8/../AVR8/Endpoint_AVR8.h **** 				Dummy = UEDATX;
 641:lufa-lib-svn/LUFA/Drivers/USB/Class/Device/../../Core/AVR8/../AVR8/Endpoint_AVR8.h **** 
 642:lufa-lib-svn/LUFA/Drivers/USB/Class/Device/../../Core/AVR8/../AVR8/Endpoint_AVR8.h **** 				(void)Dummy;
 643:lufa-lib-svn/LUFA/Drivers/USB/Class/Device/../../Core/AVR8/../AVR8/Endpoint_AVR8.h **** 			}
 644:lufa-lib-svn/LUFA/Drivers/USB/Class/Device/../../Core/AVR8/../AVR8/Endpoint_AVR8.h **** 
 645:lufa-lib-svn/LUFA/Drivers/USB/Class/Device/../../Core/AVR8/../AVR8/Endpoint_AVR8.h **** 			/** Reads two bytes from the currently selected endpoint's bank in little endian format, for OUT
 646:lufa-lib-svn/LUFA/Drivers/USB/Class/Device/../../Core/AVR8/../AVR8/Endpoint_AVR8.h **** 			 *  direction endpoints.
 647:lufa-lib-svn/LUFA/Drivers/USB/Class/Device/../../Core/AVR8/../AVR8/Endpoint_AVR8.h **** 			 *
 648:lufa-lib-svn/LUFA/Drivers/USB/Class/Device/../../Core/AVR8/../AVR8/Endpoint_AVR8.h **** 			 *  \ingroup Group_EndpointPrimitiveRW_AVR8
 649:lufa-lib-svn/LUFA/Drivers/USB/Class/Device/../../Core/AVR8/../AVR8/Endpoint_AVR8.h **** 			 *
 650:lufa-lib-svn/LUFA/Drivers/USB/Class/Device/../../Core/AVR8/../AVR8/Endpoint_AVR8.h **** 			 *  \return Next two bytes in the currently selected endpoint's FIFO buffer.
 651:lufa-lib-svn/LUFA/Drivers/USB/Class/Device/../../Core/AVR8/../AVR8/Endpoint_AVR8.h **** 			 */
 652:lufa-lib-svn/LUFA/Drivers/USB/Class/Device/../../Core/AVR8/../AVR8/Endpoint_AVR8.h **** 			static inline uint16_t Endpoint_Read_16_LE(void) ATTR_WARN_UNUSED_RESULT ATTR_ALWAYS_INLINE;
 653:lufa-lib-svn/LUFA/Drivers/USB/Class/Device/../../Core/AVR8/../AVR8/Endpoint_AVR8.h **** 			static inline uint16_t Endpoint_Read_16_LE(void)
 654:lufa-lib-svn/LUFA/Drivers/USB/Class/Device/../../Core/AVR8/../AVR8/Endpoint_AVR8.h **** 			{
 655:lufa-lib-svn/LUFA/Drivers/USB/Class/Device/../../Core/AVR8/../AVR8/Endpoint_AVR8.h **** 				union
 656:lufa-lib-svn/LUFA/Drivers/USB/Class/Device/../../Core/AVR8/../AVR8/Endpoint_AVR8.h **** 				{
 657:lufa-lib-svn/LUFA/Drivers/USB/Class/Device/../../Core/AVR8/../AVR8/Endpoint_AVR8.h **** 					uint16_t Value;
 658:lufa-lib-svn/LUFA/Drivers/USB/Class/Device/../../Core/AVR8/../AVR8/Endpoint_AVR8.h **** 					uint8_t  Bytes[2];
 659:lufa-lib-svn/LUFA/Drivers/USB/Class/Device/../../Core/AVR8/../AVR8/Endpoint_AVR8.h **** 				} Data;
 660:lufa-lib-svn/LUFA/Drivers/USB/Class/Device/../../Core/AVR8/../AVR8/Endpoint_AVR8.h **** 
 661:lufa-lib-svn/LUFA/Drivers/USB/Class/Device/../../Core/AVR8/../AVR8/Endpoint_AVR8.h **** 				Data.Bytes[0] = UEDATX;
 662:lufa-lib-svn/LUFA/Drivers/USB/Class/Device/../../Core/AVR8/../AVR8/Endpoint_AVR8.h **** 				Data.Bytes[1] = UEDATX;
 663:lufa-lib-svn/LUFA/Drivers/USB/Class/Device/../../Core/AVR8/../AVR8/Endpoint_AVR8.h **** 
 664:lufa-lib-svn/LUFA/Drivers/USB/Class/Device/../../Core/AVR8/../AVR8/Endpoint_AVR8.h **** 				return Data.Value;
 665:lufa-lib-svn/LUFA/Drivers/USB/Class/Device/../../Core/AVR8/../AVR8/Endpoint_AVR8.h **** 			}
 666:lufa-lib-svn/LUFA/Drivers/USB/Class/Device/../../Core/AVR8/../AVR8/Endpoint_AVR8.h **** 
 667:lufa-lib-svn/LUFA/Drivers/USB/Class/Device/../../Core/AVR8/../AVR8/Endpoint_AVR8.h **** 			/** Reads two bytes from the currently selected endpoint's bank in big endian format, for OUT
 668:lufa-lib-svn/LUFA/Drivers/USB/Class/Device/../../Core/AVR8/../AVR8/Endpoint_AVR8.h **** 			 *  direction endpoints.
 669:lufa-lib-svn/LUFA/Drivers/USB/Class/Device/../../Core/AVR8/../AVR8/Endpoint_AVR8.h **** 			 *
 670:lufa-lib-svn/LUFA/Drivers/USB/Class/Device/../../Core/AVR8/../AVR8/Endpoint_AVR8.h **** 			 *  \ingroup Group_EndpointPrimitiveRW_AVR8
 671:lufa-lib-svn/LUFA/Drivers/USB/Class/Device/../../Core/AVR8/../AVR8/Endpoint_AVR8.h **** 			 *
 672:lufa-lib-svn/LUFA/Drivers/USB/Class/Device/../../Core/AVR8/../AVR8/Endpoint_AVR8.h **** 			 *  \return Next two bytes in the currently selected endpoint's FIFO buffer.
 673:lufa-lib-svn/LUFA/Drivers/USB/Class/Device/../../Core/AVR8/../AVR8/Endpoint_AVR8.h **** 			 */
 674:lufa-lib-svn/LUFA/Drivers/USB/Class/Device/../../Core/AVR8/../AVR8/Endpoint_AVR8.h **** 			static inline uint16_t Endpoint_Read_16_BE(void) ATTR_WARN_UNUSED_RESULT ATTR_ALWAYS_INLINE;
 675:lufa-lib-svn/LUFA/Drivers/USB/Class/Device/../../Core/AVR8/../AVR8/Endpoint_AVR8.h **** 			static inline uint16_t Endpoint_Read_16_BE(void)
 676:lufa-lib-svn/LUFA/Drivers/USB/Class/Device/../../Core/AVR8/../AVR8/Endpoint_AVR8.h **** 			{
 677:lufa-lib-svn/LUFA/Drivers/USB/Class/Device/../../Core/AVR8/../AVR8/Endpoint_AVR8.h **** 				union
 678:lufa-lib-svn/LUFA/Drivers/USB/Class/Device/../../Core/AVR8/../AVR8/Endpoint_AVR8.h **** 				{
 679:lufa-lib-svn/LUFA/Drivers/USB/Class/Device/../../Core/AVR8/../AVR8/Endpoint_AVR8.h **** 					uint16_t Value;
 680:lufa-lib-svn/LUFA/Drivers/USB/Class/Device/../../Core/AVR8/../AVR8/Endpoint_AVR8.h **** 					uint8_t  Bytes[2];
 681:lufa-lib-svn/LUFA/Drivers/USB/Class/Device/../../Core/AVR8/../AVR8/Endpoint_AVR8.h **** 				} Data;
 682:lufa-lib-svn/LUFA/Drivers/USB/Class/Device/../../Core/AVR8/../AVR8/Endpoint_AVR8.h **** 
 683:lufa-lib-svn/LUFA/Drivers/USB/Class/Device/../../Core/AVR8/../AVR8/Endpoint_AVR8.h **** 				Data.Bytes[1] = UEDATX;
 684:lufa-lib-svn/LUFA/Drivers/USB/Class/Device/../../Core/AVR8/../AVR8/Endpoint_AVR8.h **** 				Data.Bytes[0] = UEDATX;
 685:lufa-lib-svn/LUFA/Drivers/USB/Class/Device/../../Core/AVR8/../AVR8/Endpoint_AVR8.h **** 
 686:lufa-lib-svn/LUFA/Drivers/USB/Class/Device/../../Core/AVR8/../AVR8/Endpoint_AVR8.h **** 				return Data.Value;
 687:lufa-lib-svn/LUFA/Drivers/USB/Class/Device/../../Core/AVR8/../AVR8/Endpoint_AVR8.h **** 			}
 688:lufa-lib-svn/LUFA/Drivers/USB/Class/Device/../../Core/AVR8/../AVR8/Endpoint_AVR8.h **** 
 689:lufa-lib-svn/LUFA/Drivers/USB/Class/Device/../../Core/AVR8/../AVR8/Endpoint_AVR8.h **** 			/** Writes two bytes to the currently selected endpoint's bank in little endian format, for IN
 690:lufa-lib-svn/LUFA/Drivers/USB/Class/Device/../../Core/AVR8/../AVR8/Endpoint_AVR8.h **** 			 *  direction endpoints.
 691:lufa-lib-svn/LUFA/Drivers/USB/Class/Device/../../Core/AVR8/../AVR8/Endpoint_AVR8.h **** 			 *
 692:lufa-lib-svn/LUFA/Drivers/USB/Class/Device/../../Core/AVR8/../AVR8/Endpoint_AVR8.h **** 			 *  \ingroup Group_EndpointPrimitiveRW_AVR8
 693:lufa-lib-svn/LUFA/Drivers/USB/Class/Device/../../Core/AVR8/../AVR8/Endpoint_AVR8.h **** 			 *
 694:lufa-lib-svn/LUFA/Drivers/USB/Class/Device/../../Core/AVR8/../AVR8/Endpoint_AVR8.h **** 			 *  \param[in] Data  Data to write to the currently selected endpoint's FIFO buffer.
 695:lufa-lib-svn/LUFA/Drivers/USB/Class/Device/../../Core/AVR8/../AVR8/Endpoint_AVR8.h **** 			 */
 696:lufa-lib-svn/LUFA/Drivers/USB/Class/Device/../../Core/AVR8/../AVR8/Endpoint_AVR8.h **** 			static inline void Endpoint_Write_16_LE(const uint16_t Data) ATTR_ALWAYS_INLINE;
 697:lufa-lib-svn/LUFA/Drivers/USB/Class/Device/../../Core/AVR8/../AVR8/Endpoint_AVR8.h **** 			static inline void Endpoint_Write_16_LE(const uint16_t Data)
 698:lufa-lib-svn/LUFA/Drivers/USB/Class/Device/../../Core/AVR8/../AVR8/Endpoint_AVR8.h **** 			{
 699:lufa-lib-svn/LUFA/Drivers/USB/Class/Device/../../Core/AVR8/../AVR8/Endpoint_AVR8.h **** 				UEDATX = (Data & 0xFF);
 700:lufa-lib-svn/LUFA/Drivers/USB/Class/Device/../../Core/AVR8/../AVR8/Endpoint_AVR8.h **** 				UEDATX = (Data >> 8);
 701:lufa-lib-svn/LUFA/Drivers/USB/Class/Device/../../Core/AVR8/../AVR8/Endpoint_AVR8.h **** 			}
 702:lufa-lib-svn/LUFA/Drivers/USB/Class/Device/../../Core/AVR8/../AVR8/Endpoint_AVR8.h **** 
 703:lufa-lib-svn/LUFA/Drivers/USB/Class/Device/../../Core/AVR8/../AVR8/Endpoint_AVR8.h **** 			/** Writes two bytes to the currently selected endpoint's bank in big endian format, for IN
 704:lufa-lib-svn/LUFA/Drivers/USB/Class/Device/../../Core/AVR8/../AVR8/Endpoint_AVR8.h **** 			 *  direction endpoints.
 705:lufa-lib-svn/LUFA/Drivers/USB/Class/Device/../../Core/AVR8/../AVR8/Endpoint_AVR8.h **** 			 *
 706:lufa-lib-svn/LUFA/Drivers/USB/Class/Device/../../Core/AVR8/../AVR8/Endpoint_AVR8.h **** 			 *  \ingroup Group_EndpointPrimitiveRW_AVR8
 707:lufa-lib-svn/LUFA/Drivers/USB/Class/Device/../../Core/AVR8/../AVR8/Endpoint_AVR8.h **** 			 *
 708:lufa-lib-svn/LUFA/Drivers/USB/Class/Device/../../Core/AVR8/../AVR8/Endpoint_AVR8.h **** 			 *  \param[in] Data  Data to write to the currently selected endpoint's FIFO buffer.
 709:lufa-lib-svn/LUFA/Drivers/USB/Class/Device/../../Core/AVR8/../AVR8/Endpoint_AVR8.h **** 			 */
 710:lufa-lib-svn/LUFA/Drivers/USB/Class/Device/../../Core/AVR8/../AVR8/Endpoint_AVR8.h **** 			static inline void Endpoint_Write_16_BE(const uint16_t Data) ATTR_ALWAYS_INLINE;
 711:lufa-lib-svn/LUFA/Drivers/USB/Class/Device/../../Core/AVR8/../AVR8/Endpoint_AVR8.h **** 			static inline void Endpoint_Write_16_BE(const uint16_t Data)
 712:lufa-lib-svn/LUFA/Drivers/USB/Class/Device/../../Core/AVR8/../AVR8/Endpoint_AVR8.h **** 			{
 713:lufa-lib-svn/LUFA/Drivers/USB/Class/Device/../../Core/AVR8/../AVR8/Endpoint_AVR8.h **** 				UEDATX = (Data >> 8);
 714:lufa-lib-svn/LUFA/Drivers/USB/Class/Device/../../Core/AVR8/../AVR8/Endpoint_AVR8.h **** 				UEDATX = (Data & 0xFF);
 715:lufa-lib-svn/LUFA/Drivers/USB/Class/Device/../../Core/AVR8/../AVR8/Endpoint_AVR8.h **** 			}
 716:lufa-lib-svn/LUFA/Drivers/USB/Class/Device/../../Core/AVR8/../AVR8/Endpoint_AVR8.h **** 
 717:lufa-lib-svn/LUFA/Drivers/USB/Class/Device/../../Core/AVR8/../AVR8/Endpoint_AVR8.h **** 			/** Discards two bytes from the currently selected endpoint's bank, for OUT direction endpoints.
 718:lufa-lib-svn/LUFA/Drivers/USB/Class/Device/../../Core/AVR8/../AVR8/Endpoint_AVR8.h **** 			 *
 719:lufa-lib-svn/LUFA/Drivers/USB/Class/Device/../../Core/AVR8/../AVR8/Endpoint_AVR8.h **** 			 *  \ingroup Group_EndpointPrimitiveRW_AVR8
 720:lufa-lib-svn/LUFA/Drivers/USB/Class/Device/../../Core/AVR8/../AVR8/Endpoint_AVR8.h **** 			 */
 721:lufa-lib-svn/LUFA/Drivers/USB/Class/Device/../../Core/AVR8/../AVR8/Endpoint_AVR8.h **** 			static inline void Endpoint_Discard_16(void) ATTR_ALWAYS_INLINE;
 722:lufa-lib-svn/LUFA/Drivers/USB/Class/Device/../../Core/AVR8/../AVR8/Endpoint_AVR8.h **** 			static inline void Endpoint_Discard_16(void)
 723:lufa-lib-svn/LUFA/Drivers/USB/Class/Device/../../Core/AVR8/../AVR8/Endpoint_AVR8.h **** 			{
 724:lufa-lib-svn/LUFA/Drivers/USB/Class/Device/../../Core/AVR8/../AVR8/Endpoint_AVR8.h **** 				uint8_t Dummy;
 725:lufa-lib-svn/LUFA/Drivers/USB/Class/Device/../../Core/AVR8/../AVR8/Endpoint_AVR8.h **** 
 726:lufa-lib-svn/LUFA/Drivers/USB/Class/Device/../../Core/AVR8/../AVR8/Endpoint_AVR8.h **** 				Dummy = UEDATX;
 727:lufa-lib-svn/LUFA/Drivers/USB/Class/Device/../../Core/AVR8/../AVR8/Endpoint_AVR8.h **** 				Dummy = UEDATX;
 728:lufa-lib-svn/LUFA/Drivers/USB/Class/Device/../../Core/AVR8/../AVR8/Endpoint_AVR8.h **** 
 729:lufa-lib-svn/LUFA/Drivers/USB/Class/Device/../../Core/AVR8/../AVR8/Endpoint_AVR8.h **** 				(void)Dummy;
 730:lufa-lib-svn/LUFA/Drivers/USB/Class/Device/../../Core/AVR8/../AVR8/Endpoint_AVR8.h **** 			}
 731:lufa-lib-svn/LUFA/Drivers/USB/Class/Device/../../Core/AVR8/../AVR8/Endpoint_AVR8.h **** 
 732:lufa-lib-svn/LUFA/Drivers/USB/Class/Device/../../Core/AVR8/../AVR8/Endpoint_AVR8.h **** 			/** Reads four bytes from the currently selected endpoint's bank in little endian format, for OU
 733:lufa-lib-svn/LUFA/Drivers/USB/Class/Device/../../Core/AVR8/../AVR8/Endpoint_AVR8.h **** 			 *  direction endpoints.
 734:lufa-lib-svn/LUFA/Drivers/USB/Class/Device/../../Core/AVR8/../AVR8/Endpoint_AVR8.h **** 			 *
 735:lufa-lib-svn/LUFA/Drivers/USB/Class/Device/../../Core/AVR8/../AVR8/Endpoint_AVR8.h **** 			 *  \ingroup Group_EndpointPrimitiveRW_AVR8
 736:lufa-lib-svn/LUFA/Drivers/USB/Class/Device/../../Core/AVR8/../AVR8/Endpoint_AVR8.h **** 			 *
 737:lufa-lib-svn/LUFA/Drivers/USB/Class/Device/../../Core/AVR8/../AVR8/Endpoint_AVR8.h **** 			 *  \return Next four bytes in the currently selected endpoint's FIFO buffer.
 738:lufa-lib-svn/LUFA/Drivers/USB/Class/Device/../../Core/AVR8/../AVR8/Endpoint_AVR8.h **** 			 */
 739:lufa-lib-svn/LUFA/Drivers/USB/Class/Device/../../Core/AVR8/../AVR8/Endpoint_AVR8.h **** 			static inline uint32_t Endpoint_Read_32_LE(void) ATTR_WARN_UNUSED_RESULT ATTR_ALWAYS_INLINE;
 740:lufa-lib-svn/LUFA/Drivers/USB/Class/Device/../../Core/AVR8/../AVR8/Endpoint_AVR8.h **** 			static inline uint32_t Endpoint_Read_32_LE(void)
 741:lufa-lib-svn/LUFA/Drivers/USB/Class/Device/../../Core/AVR8/../AVR8/Endpoint_AVR8.h **** 			{
 742:lufa-lib-svn/LUFA/Drivers/USB/Class/Device/../../Core/AVR8/../AVR8/Endpoint_AVR8.h **** 				union
 743:lufa-lib-svn/LUFA/Drivers/USB/Class/Device/../../Core/AVR8/../AVR8/Endpoint_AVR8.h **** 				{
 744:lufa-lib-svn/LUFA/Drivers/USB/Class/Device/../../Core/AVR8/../AVR8/Endpoint_AVR8.h **** 					uint32_t Value;
 745:lufa-lib-svn/LUFA/Drivers/USB/Class/Device/../../Core/AVR8/../AVR8/Endpoint_AVR8.h **** 					uint8_t  Bytes[4];
 746:lufa-lib-svn/LUFA/Drivers/USB/Class/Device/../../Core/AVR8/../AVR8/Endpoint_AVR8.h **** 				} Data;
 747:lufa-lib-svn/LUFA/Drivers/USB/Class/Device/../../Core/AVR8/../AVR8/Endpoint_AVR8.h **** 
 748:lufa-lib-svn/LUFA/Drivers/USB/Class/Device/../../Core/AVR8/../AVR8/Endpoint_AVR8.h **** 				Data.Bytes[0] = UEDATX;
 749:lufa-lib-svn/LUFA/Drivers/USB/Class/Device/../../Core/AVR8/../AVR8/Endpoint_AVR8.h **** 				Data.Bytes[1] = UEDATX;
 750:lufa-lib-svn/LUFA/Drivers/USB/Class/Device/../../Core/AVR8/../AVR8/Endpoint_AVR8.h **** 				Data.Bytes[2] = UEDATX;
 751:lufa-lib-svn/LUFA/Drivers/USB/Class/Device/../../Core/AVR8/../AVR8/Endpoint_AVR8.h **** 				Data.Bytes[3] = UEDATX;
 752:lufa-lib-svn/LUFA/Drivers/USB/Class/Device/../../Core/AVR8/../AVR8/Endpoint_AVR8.h **** 
 753:lufa-lib-svn/LUFA/Drivers/USB/Class/Device/../../Core/AVR8/../AVR8/Endpoint_AVR8.h **** 				return Data.Value;
 754:lufa-lib-svn/LUFA/Drivers/USB/Class/Device/../../Core/AVR8/../AVR8/Endpoint_AVR8.h **** 			}
 755:lufa-lib-svn/LUFA/Drivers/USB/Class/Device/../../Core/AVR8/../AVR8/Endpoint_AVR8.h **** 
 756:lufa-lib-svn/LUFA/Drivers/USB/Class/Device/../../Core/AVR8/../AVR8/Endpoint_AVR8.h **** 			/** Reads four bytes from the currently selected endpoint's bank in big endian format, for OUT
 757:lufa-lib-svn/LUFA/Drivers/USB/Class/Device/../../Core/AVR8/../AVR8/Endpoint_AVR8.h **** 			 *  direction endpoints.
 758:lufa-lib-svn/LUFA/Drivers/USB/Class/Device/../../Core/AVR8/../AVR8/Endpoint_AVR8.h **** 			 *
 759:lufa-lib-svn/LUFA/Drivers/USB/Class/Device/../../Core/AVR8/../AVR8/Endpoint_AVR8.h **** 			 *  \ingroup Group_EndpointPrimitiveRW_AVR8
 760:lufa-lib-svn/LUFA/Drivers/USB/Class/Device/../../Core/AVR8/../AVR8/Endpoint_AVR8.h **** 			 *
 761:lufa-lib-svn/LUFA/Drivers/USB/Class/Device/../../Core/AVR8/../AVR8/Endpoint_AVR8.h **** 			 *  \return Next four bytes in the currently selected endpoint's FIFO buffer.
 762:lufa-lib-svn/LUFA/Drivers/USB/Class/Device/../../Core/AVR8/../AVR8/Endpoint_AVR8.h **** 			 */
 763:lufa-lib-svn/LUFA/Drivers/USB/Class/Device/../../Core/AVR8/../AVR8/Endpoint_AVR8.h **** 			static inline uint32_t Endpoint_Read_32_BE(void) ATTR_WARN_UNUSED_RESULT ATTR_ALWAYS_INLINE;
 764:lufa-lib-svn/LUFA/Drivers/USB/Class/Device/../../Core/AVR8/../AVR8/Endpoint_AVR8.h **** 			static inline uint32_t Endpoint_Read_32_BE(void)
 765:lufa-lib-svn/LUFA/Drivers/USB/Class/Device/../../Core/AVR8/../AVR8/Endpoint_AVR8.h **** 			{
 766:lufa-lib-svn/LUFA/Drivers/USB/Class/Device/../../Core/AVR8/../AVR8/Endpoint_AVR8.h **** 				union
 767:lufa-lib-svn/LUFA/Drivers/USB/Class/Device/../../Core/AVR8/../AVR8/Endpoint_AVR8.h **** 				{
 768:lufa-lib-svn/LUFA/Drivers/USB/Class/Device/../../Core/AVR8/../AVR8/Endpoint_AVR8.h **** 					uint32_t Value;
 769:lufa-lib-svn/LUFA/Drivers/USB/Class/Device/../../Core/AVR8/../AVR8/Endpoint_AVR8.h **** 					uint8_t  Bytes[4];
 770:lufa-lib-svn/LUFA/Drivers/USB/Class/Device/../../Core/AVR8/../AVR8/Endpoint_AVR8.h **** 				} Data;
 771:lufa-lib-svn/LUFA/Drivers/USB/Class/Device/../../Core/AVR8/../AVR8/Endpoint_AVR8.h **** 
 772:lufa-lib-svn/LUFA/Drivers/USB/Class/Device/../../Core/AVR8/../AVR8/Endpoint_AVR8.h **** 				Data.Bytes[3] = UEDATX;
 773:lufa-lib-svn/LUFA/Drivers/USB/Class/Device/../../Core/AVR8/../AVR8/Endpoint_AVR8.h **** 				Data.Bytes[2] = UEDATX;
 774:lufa-lib-svn/LUFA/Drivers/USB/Class/Device/../../Core/AVR8/../AVR8/Endpoint_AVR8.h **** 				Data.Bytes[1] = UEDATX;
 775:lufa-lib-svn/LUFA/Drivers/USB/Class/Device/../../Core/AVR8/../AVR8/Endpoint_AVR8.h **** 				Data.Bytes[0] = UEDATX;
 776:lufa-lib-svn/LUFA/Drivers/USB/Class/Device/../../Core/AVR8/../AVR8/Endpoint_AVR8.h **** 
 777:lufa-lib-svn/LUFA/Drivers/USB/Class/Device/../../Core/AVR8/../AVR8/Endpoint_AVR8.h **** 				return Data.Value;
 778:lufa-lib-svn/LUFA/Drivers/USB/Class/Device/../../Core/AVR8/../AVR8/Endpoint_AVR8.h **** 			}
 779:lufa-lib-svn/LUFA/Drivers/USB/Class/Device/../../Core/AVR8/../AVR8/Endpoint_AVR8.h **** 
 780:lufa-lib-svn/LUFA/Drivers/USB/Class/Device/../../Core/AVR8/../AVR8/Endpoint_AVR8.h **** 			/** Writes four bytes to the currently selected endpoint's bank in little endian format, for IN
 781:lufa-lib-svn/LUFA/Drivers/USB/Class/Device/../../Core/AVR8/../AVR8/Endpoint_AVR8.h **** 			 *  direction endpoints.
 782:lufa-lib-svn/LUFA/Drivers/USB/Class/Device/../../Core/AVR8/../AVR8/Endpoint_AVR8.h **** 			 *
 783:lufa-lib-svn/LUFA/Drivers/USB/Class/Device/../../Core/AVR8/../AVR8/Endpoint_AVR8.h **** 			 *  \ingroup Group_EndpointPrimitiveRW_AVR8
 784:lufa-lib-svn/LUFA/Drivers/USB/Class/Device/../../Core/AVR8/../AVR8/Endpoint_AVR8.h **** 			 *
 785:lufa-lib-svn/LUFA/Drivers/USB/Class/Device/../../Core/AVR8/../AVR8/Endpoint_AVR8.h **** 			 *  \param[in] Data  Data to write to the currently selected endpoint's FIFO buffer.
 786:lufa-lib-svn/LUFA/Drivers/USB/Class/Device/../../Core/AVR8/../AVR8/Endpoint_AVR8.h **** 			 */
 787:lufa-lib-svn/LUFA/Drivers/USB/Class/Device/../../Core/AVR8/../AVR8/Endpoint_AVR8.h **** 			static inline void Endpoint_Write_32_LE(const uint32_t Data) ATTR_ALWAYS_INLINE;
 788:lufa-lib-svn/LUFA/Drivers/USB/Class/Device/../../Core/AVR8/../AVR8/Endpoint_AVR8.h **** 			static inline void Endpoint_Write_32_LE(const uint32_t Data)
 789:lufa-lib-svn/LUFA/Drivers/USB/Class/Device/../../Core/AVR8/../AVR8/Endpoint_AVR8.h **** 			{
 790:lufa-lib-svn/LUFA/Drivers/USB/Class/Device/../../Core/AVR8/../AVR8/Endpoint_AVR8.h **** 				UEDATX = (Data &  0xFF);
 1219               		.loc 2 790 0
 1220 006a 4093 F100 		sts 241,r20
 791:lufa-lib-svn/LUFA/Drivers/USB/Class/Device/../../Core/AVR8/../AVR8/Endpoint_AVR8.h **** 				UEDATX = (Data >> 8);
 1221               		.loc 2 791 0
 1222 006e 052F      		mov r16,r21
 1223 0070 162F      		mov r17,r22
 1224 0072 272F      		mov r18,r23
 1225 0074 3327      		clr r19
 1226 0076 0093 F100 		sts 241,r16
 792:lufa-lib-svn/LUFA/Drivers/USB/Class/Device/../../Core/AVR8/../AVR8/Endpoint_AVR8.h **** 				UEDATX = (Data >> 16);
 1227               		.loc 2 792 0
 1228 007a 8B01      		movw r16,r22
 1229 007c 2227      		clr r18
 1230 007e 3327      		clr r19
 1231 0080 0093 F100 		sts 241,r16
 793:lufa-lib-svn/LUFA/Drivers/USB/Class/Device/../../Core/AVR8/../AVR8/Endpoint_AVR8.h **** 				UEDATX = (Data >> 24);
 1232               		.loc 2 793 0
 1233 0084 472F      		mov r20,r23
 1234 0086 5527      		clr r21
 1235 0088 6627      		clr r22
 1236 008a 7727      		clr r23
 1237               	.LVL106:
 1238 008c 4093 F100 		sts 241,r20
 1239               	.LBE158:
 1240               	.LBE157:
  58:lufa-lib-svn/LUFA/Drivers/USB/Class/Device/CDCClassDevice.c **** 				Endpoint_Write_8(CDCInterfaceInfo->State.LineEncoding.CharFormat);
 1241               		.loc 1 58 0
 1242 0090 8D89      		ldd r24,Y+21
 1243               	.LVL107:
 1244               	.LBB159:
 1245               	.LBB160:
 628:lufa-lib-svn/LUFA/Drivers/USB/Class/Device/../../Core/AVR8/../AVR8/Endpoint_AVR8.h **** 				UEDATX = Data;
 1246               		.loc 2 628 0
 1247 0092 8093 F100 		sts 241,r24
 1248               	.LBE160:
 1249               	.LBE159:
  59:lufa-lib-svn/LUFA/Drivers/USB/Class/Device/CDCClassDevice.c **** 				Endpoint_Write_8(CDCInterfaceInfo->State.LineEncoding.ParityType);
 1250               		.loc 1 59 0
 1251 0096 8E89      		ldd r24,Y+22
 1252               	.LVL108:
 1253               	.LBB161:
 1254               	.LBB162:
 628:lufa-lib-svn/LUFA/Drivers/USB/Class/Device/../../Core/AVR8/../AVR8/Endpoint_AVR8.h **** 				UEDATX = Data;
 1255               		.loc 2 628 0
 1256 0098 8093 F100 		sts 241,r24
 1257               	.LBE162:
 1258               	.LBE161:
  60:lufa-lib-svn/LUFA/Drivers/USB/Class/Device/CDCClassDevice.c **** 				Endpoint_Write_8(CDCInterfaceInfo->State.LineEncoding.DataBits);
 1259               		.loc 1 60 0
 1260 009c 8F89      		ldd r24,Y+23
 1261               	.LVL109:
 1262               	.LBB163:
 1263               	.LBB164:
 628:lufa-lib-svn/LUFA/Drivers/USB/Class/Device/../../Core/AVR8/../AVR8/Endpoint_AVR8.h **** 				UEDATX = Data;
 1264               		.loc 2 628 0
 1265 009e 8093 F100 		sts 241,r24
 1266               	.LBE164:
 1267               	.LBE163:
 1268               	.LBB165:
 1269               	.LBB166:
 520:lufa-lib-svn/LUFA/Drivers/USB/Class/Device/../../Core/AVR8/../AVR8/Endpoint_AVR8.h **** 					UEINTX &= ~((1 << TXINI) | (1 << FIFOCON));
 1270               		.loc 2 520 0
 1271 00a2 8091 E800 		lds r24,232
 1272               	.LVL110:
 1273 00a6 8E77      		andi r24,lo8(126)
 1274 00a8 8093 E800 		sts 232,r24
 1275               	/* epilogue start */
 1276               	.LBE166:
 1277               	.LBE165:
 109:lufa-lib-svn/LUFA/Drivers/USB/Class/Device/CDCClassDevice.c **** }
 1278               		.loc 1 109 0
 1279 00ac DF91      		pop r29
 1280 00ae CF91      		pop r28
 1281               	.LVL111:
 1282 00b0 1F91      		pop r17
 1283 00b2 0F91      		pop r16
  63:lufa-lib-svn/LUFA/Drivers/USB/Class/Device/CDCClassDevice.c **** 				Endpoint_ClearStatusStage();
 1284               		.loc 1 63 0
 1285 00b4 0C94 0000 		jmp Endpoint_ClearStatusStage
 1286               	.LVL112:
 1287               	.L91:
  68:lufa-lib-svn/LUFA/Drivers/USB/Class/Device/CDCClassDevice.c **** 			if (USB_ControlRequest.bmRequestType == (REQDIR_HOSTTODEVICE | REQTYPE_CLASS | REQREC_INTERFACE)
 1288               		.loc 1 68 0
 1289 00b8 8091 0000 		lds r24,USB_ControlRequest
 1290 00bc 8132      		cpi r24,lo8(33)
 1291 00be 01F0      		breq .+2
 1292 00c0 00C0      		rjmp .L89
 1293               	.LBB167:
 1294               	.LBB168:
 508:lufa-lib-svn/LUFA/Drivers/USB/Class/Device/../../Core/AVR8/../AVR8/Endpoint_AVR8.h **** 				UEINTX &= ~(1 << RXSTPI);
 1295               		.loc 2 508 0
 1296 00c2 8091 E800 		lds r24,232
 1297 00c6 877F      		andi r24,lo8(-9)
 1298 00c8 8093 E800 		sts 232,r24
 1299               	.L97:
 1300               	.LBE168:
 1301               	.LBE167:
 1302               	.LBB169:
 1303               	.LBB170:
 483:lufa-lib-svn/LUFA/Drivers/USB/Class/Device/../../Core/AVR8/../AVR8/Endpoint_AVR8.h **** 				return ((UEINTX & (1 << RXOUTI)) ? true : false);
 1304               		.loc 2 483 0 discriminator 1
 1305 00cc 8091 E800 		lds r24,232
 1306               	.LBE170:
 1307               	.LBE169:
  72:lufa-lib-svn/LUFA/Drivers/USB/Class/Device/CDCClassDevice.c **** 				while (!(Endpoint_IsOUTReceived()));
 1308               		.loc 1 72 0 discriminator 1
 1309 00d0 82FF      		sbrs r24,2
 1310 00d2 00C0      		rjmp .L97
 1311               	.LBB171:
 1312               	.LBB172:
 748:lufa-lib-svn/LUFA/Drivers/USB/Class/Device/../../Core/AVR8/../AVR8/Endpoint_AVR8.h **** 				Data.Bytes[0] = UEDATX;
 1313               		.loc 2 748 0
 1314 00d4 3091 F100 		lds r19,241
 749:lufa-lib-svn/LUFA/Drivers/USB/Class/Device/../../Core/AVR8/../AVR8/Endpoint_AVR8.h **** 				Data.Bytes[1] = UEDATX;
 1315               		.loc 2 749 0
 1316 00d8 2091 F100 		lds r18,241
 750:lufa-lib-svn/LUFA/Drivers/USB/Class/Device/../../Core/AVR8/../AVR8/Endpoint_AVR8.h **** 				Data.Bytes[2] = UEDATX;
 1317               		.loc 2 750 0
 1318 00dc 9091 F100 		lds r25,241
 751:lufa-lib-svn/LUFA/Drivers/USB/Class/Device/../../Core/AVR8/../AVR8/Endpoint_AVR8.h **** 				Data.Bytes[3] = UEDATX;
 1319               		.loc 2 751 0
 1320 00e0 8091 F100 		lds r24,241
 1321               	.LBE172:
 1322               	.LBE171:
  74:lufa-lib-svn/LUFA/Drivers/USB/Class/Device/CDCClassDevice.c **** 				CDCInterfaceInfo->State.LineEncoding.BaudRateBPS = Endpoint_Read_32_LE();
 1323               		.loc 1 74 0
 1324 00e4 398B      		std Y+17,r19
 1325 00e6 2A8B      		std Y+18,r18
 1326 00e8 9B8B      		std Y+19,r25
 1327 00ea 8C8B      		std Y+20,r24
 1328               	.LBB173:
 1329               	.LBB174:
 616:lufa-lib-svn/LUFA/Drivers/USB/Class/Device/../../Core/AVR8/../AVR8/Endpoint_AVR8.h **** 				return UEDATX;
 1330               		.loc 2 616 0
 1331 00ec 8091 F100 		lds r24,241
 1332               	.LBE174:
 1333               	.LBE173:
  75:lufa-lib-svn/LUFA/Drivers/USB/Class/Device/CDCClassDevice.c **** 				CDCInterfaceInfo->State.LineEncoding.CharFormat  = Endpoint_Read_8();
 1334               		.loc 1 75 0
 1335 00f0 8D8B      		std Y+21,r24
 1336               	.LBB175:
 1337               	.LBB176:
 616:lufa-lib-svn/LUFA/Drivers/USB/Class/Device/../../Core/AVR8/../AVR8/Endpoint_AVR8.h **** 				return UEDATX;
 1338               		.loc 2 616 0
 1339 00f2 8091 F100 		lds r24,241
 1340               	.LBE176:
 1341               	.LBE175:
  76:lufa-lib-svn/LUFA/Drivers/USB/Class/Device/CDCClassDevice.c **** 				CDCInterfaceInfo->State.LineEncoding.ParityType  = Endpoint_Read_8();
 1342               		.loc 1 76 0
 1343 00f6 8E8B      		std Y+22,r24
 1344               	.LBB177:
 1345               	.LBB178:
 616:lufa-lib-svn/LUFA/Drivers/USB/Class/Device/../../Core/AVR8/../AVR8/Endpoint_AVR8.h **** 				return UEDATX;
 1346               		.loc 2 616 0
 1347 00f8 8091 F100 		lds r24,241
 1348               	.LBE178:
 1349               	.LBE177:
  77:lufa-lib-svn/LUFA/Drivers/USB/Class/Device/CDCClassDevice.c **** 				CDCInterfaceInfo->State.LineEncoding.DataBits    = Endpoint_Read_8();
 1350               		.loc 1 77 0
 1351 00fc 8F8B      		std Y+23,r24
 1352               	.LBB179:
 1353               	.LBB180:
 535:lufa-lib-svn/LUFA/Drivers/USB/Class/Device/../../Core/AVR8/../AVR8/Endpoint_AVR8.h **** 					UEINTX &= ~((1 << RXOUTI) | (1 << FIFOCON));
 1354               		.loc 2 535 0
 1355 00fe 8091 E800 		lds r24,232
 1356 0102 8B77      		andi r24,lo8(123)
 1357 0104 8093 E800 		sts 232,r24
 1358               	.LBE180:
 1359               	.LBE179:
  80:lufa-lib-svn/LUFA/Drivers/USB/Class/Device/CDCClassDevice.c **** 				Endpoint_ClearStatusStage();
 1360               		.loc 1 80 0
 1361 0108 0E94 0000 		call Endpoint_ClearStatusStage
 1362               	.LVL113:
  82:lufa-lib-svn/LUFA/Drivers/USB/Class/Device/CDCClassDevice.c **** 				EVENT_CDC_Device_LineEncodingChanged(CDCInterfaceInfo);
 1363               		.loc 1 82 0
 1364 010c CE01      		movw r24,r28
 1365               	/* epilogue start */
 109:lufa-lib-svn/LUFA/Drivers/USB/Class/Device/CDCClassDevice.c **** }
 1366               		.loc 1 109 0
 1367 010e DF91      		pop r29
 1368 0110 CF91      		pop r28
 1369               	.LVL114:
 1370 0112 1F91      		pop r17
 1371 0114 0F91      		pop r16
  82:lufa-lib-svn/LUFA/Drivers/USB/Class/Device/CDCClassDevice.c **** 				EVENT_CDC_Device_LineEncodingChanged(CDCInterfaceInfo);
 1372               		.loc 1 82 0
 1373 0116 0C94 0000 		jmp EVENT_CDC_Device_LineEncodingChanged
 1374               	.LVL115:
 1375               	.L93:
  87:lufa-lib-svn/LUFA/Drivers/USB/Class/Device/CDCClassDevice.c **** 			if (USB_ControlRequest.bmRequestType == (REQDIR_HOSTTODEVICE | REQTYPE_CLASS | REQREC_INTERFACE)
 1376               		.loc 1 87 0
 1377 011a 8091 0000 		lds r24,USB_ControlRequest
 1378 011e 8132      		cpi r24,lo8(33)
 1379 0120 01F4      		brne .L89
 1380               	.LBB181:
 1381               	.LBB182:
 508:lufa-lib-svn/LUFA/Drivers/USB/Class/Device/../../Core/AVR8/../AVR8/Endpoint_AVR8.h **** 				UEINTX &= ~(1 << RXSTPI);
 1382               		.loc 2 508 0
 1383 0122 8091 E800 		lds r24,232
 1384 0126 877F      		andi r24,lo8(-9)
 1385 0128 8093 E800 		sts 232,r24
 1386               	.LBE182:
 1387               	.LBE181:
  90:lufa-lib-svn/LUFA/Drivers/USB/Class/Device/CDCClassDevice.c **** 				Endpoint_ClearStatusStage();
 1388               		.loc 1 90 0
 1389 012c 0E94 0000 		call Endpoint_ClearStatusStage
 1390               	.LVL116:
  92:lufa-lib-svn/LUFA/Drivers/USB/Class/Device/CDCClassDevice.c **** 				CDCInterfaceInfo->State.ControlLineStates.HostToDevice = USB_ControlRequest.wValue;
 1391               		.loc 1 92 0
 1392 0130 8091 0000 		lds r24,USB_ControlRequest+2
 1393 0134 9091 0000 		lds r25,USB_ControlRequest+2+1
 1394 0138 9E87      		std Y+14,r25
 1395 013a 8D87      		std Y+13,r24
  94:lufa-lib-svn/LUFA/Drivers/USB/Class/Device/CDCClassDevice.c **** 				EVENT_CDC_Device_ControLineStateChanged(CDCInterfaceInfo);
 1396               		.loc 1 94 0
 1397 013c CE01      		movw r24,r28
 1398               	/* epilogue start */
 109:lufa-lib-svn/LUFA/Drivers/USB/Class/Device/CDCClassDevice.c **** }
 1399               		.loc 1 109 0
 1400 013e DF91      		pop r29
 1401 0140 CF91      		pop r28
 1402               	.LVL117:
 1403 0142 1F91      		pop r17
 1404 0144 0F91      		pop r16
  94:lufa-lib-svn/LUFA/Drivers/USB/Class/Device/CDCClassDevice.c **** 				EVENT_CDC_Device_ControLineStateChanged(CDCInterfaceInfo);
 1405               		.loc 1 94 0
 1406 0146 0C94 0000 		jmp EVENT_CDC_Device_ControLineStateChanged
 1407               	.LVL118:
 1408               	.L94:
  99:lufa-lib-svn/LUFA/Drivers/USB/Class/Device/CDCClassDevice.c **** 			if (USB_ControlRequest.bmRequestType == (REQDIR_HOSTTODEVICE | REQTYPE_CLASS | REQREC_INTERFACE)
 1409               		.loc 1 99 0
 1410 014a 8091 0000 		lds r24,USB_ControlRequest
 1411 014e 8132      		cpi r24,lo8(33)
 1412 0150 01F4      		brne .L89
 1413               	.LBB183:
 1414               	.LBB184:
 508:lufa-lib-svn/LUFA/Drivers/USB/Class/Device/../../Core/AVR8/../AVR8/Endpoint_AVR8.h **** 				UEINTX &= ~(1 << RXSTPI);
 1415               		.loc 2 508 0
 1416 0152 8091 E800 		lds r24,232
 1417 0156 877F      		andi r24,lo8(-9)
 1418 0158 8093 E800 		sts 232,r24
 1419               	.LBE184:
 1420               	.LBE183:
 102:lufa-lib-svn/LUFA/Drivers/USB/Class/Device/CDCClassDevice.c **** 				Endpoint_ClearStatusStage();
 1421               		.loc 1 102 0
 1422 015c 0E94 0000 		call Endpoint_ClearStatusStage
 1423               	.LVL119:
 104:lufa-lib-svn/LUFA/Drivers/USB/Class/Device/CDCClassDevice.c **** 				EVENT_CDC_Device_BreakSent(CDCInterfaceInfo, (uint8_t)USB_ControlRequest.wValue);
 1424               		.loc 1 104 0
 1425 0160 6091 0000 		lds r22,USB_ControlRequest+2
 1426 0164 CE01      		movw r24,r28
 1427               	/* epilogue start */
 109:lufa-lib-svn/LUFA/Drivers/USB/Class/Device/CDCClassDevice.c **** }
 1428               		.loc 1 109 0
 1429 0166 DF91      		pop r29
 1430 0168 CF91      		pop r28
 1431               	.LVL120:
 1432 016a 1F91      		pop r17
 1433 016c 0F91      		pop r16
 104:lufa-lib-svn/LUFA/Drivers/USB/Class/Device/CDCClassDevice.c **** 				EVENT_CDC_Device_BreakSent(CDCInterfaceInfo, (uint8_t)USB_ControlRequest.wValue);
 1434               		.loc 1 104 0
 1435 016e 0C94 0000 		jmp EVENT_CDC_Device_BreakSent
 1436               	.LVL121:
 1437               	.L89:
 1438               	/* epilogue start */
 109:lufa-lib-svn/LUFA/Drivers/USB/Class/Device/CDCClassDevice.c **** }
 1439               		.loc 1 109 0
 1440 0172 DF91      		pop r29
 1441 0174 CF91      		pop r28
 1442               	.LVL122:
 1443 0176 1F91      		pop r17
 1444 0178 0F91      		pop r16
 1445 017a 0895      		ret
 1446               		.cfi_endproc
 1447               	.LFE99:
 1449               		.text
 1450               	.Letext0:
 1451               		.file 3 "/usr/lib/gcc/avr/4.7.0/../../../../avr/include/stdint.h"
 1452               		.file 4 "lufa-lib-svn/LUFA/Drivers/USB/Class/Device/../../Core/AVR8/../Device.h"
 1453               		.file 5 "lufa-lib-svn/LUFA/Drivers/USB/Class/Device/../../Core/AVR8/../StdRequestType.h"
 1454               		.file 6 "lufa-lib-svn/LUFA/Drivers/USB/Class/Device/../../Core/AVR8/../EndpointStream.h"
 1455               		.file 7 "lufa-lib-svn/LUFA/Drivers/USB/Class/Device/../../Class/Device/../Common/CDCClassCommon.h"
 1456               		.file 8 "/usr/lib/gcc/avr/4.7.0/../../../../avr/include/stdio.h"
 1457               		.file 9 "lufa-lib-svn/LUFA/Drivers/USB/Class/Device/CDCClassDevice.h"
 1458               		.file 10 "lufa-lib-svn/LUFA/Drivers/USB/Class/Device/../../Core/AVR8/../AVR8/EndpointStream_AVR8.h
 1459               		.file 11 "lufa-lib-svn/LUFA/Drivers/USB/Class/Device/../../Core/USBTask.h"