   1               		.file	"MassStorageClassDevice.c"
   2               	__SP_H__ = 0x3e
   3               	__SP_L__ = 0x3d
   4               	__SREG__ = 0x3f
   5               	__tmp_reg__ = 0
   6               	__zero_reg__ = 1
   7               		.text
   8               	.Ltext0:
   9               		.cfi_sections	.debug_frame
  10               		.section	.text.MS_Device_ProcessControlRequest,"ax",@progbits
  11               	.global	MS_Device_ProcessControlRequest
  13               	MS_Device_ProcessControlRequest:
  14               	.LFB99:
  15               		.file 1 "lufa-lib-svn/LUFA/Drivers/USB/Class/Device/MassStorageClassDevice.c"
   1:lufa-lib-svn/LUFA/Drivers/USB/Class/Device/MassStorageClassDevice.c **** /*
   2:lufa-lib-svn/LUFA/Drivers/USB/Class/Device/MassStorageClassDevice.c ****              LUFA Library
   3:lufa-lib-svn/LUFA/Drivers/USB/Class/Device/MassStorageClassDevice.c ****      Copyright (C) Dean Camera, 2011.
   4:lufa-lib-svn/LUFA/Drivers/USB/Class/Device/MassStorageClassDevice.c **** 
   5:lufa-lib-svn/LUFA/Drivers/USB/Class/Device/MassStorageClassDevice.c ****   dean [at] fourwalledcubicle [dot] com
   6:lufa-lib-svn/LUFA/Drivers/USB/Class/Device/MassStorageClassDevice.c ****            www.lufa-lib.org
   7:lufa-lib-svn/LUFA/Drivers/USB/Class/Device/MassStorageClassDevice.c **** */
   8:lufa-lib-svn/LUFA/Drivers/USB/Class/Device/MassStorageClassDevice.c **** 
   9:lufa-lib-svn/LUFA/Drivers/USB/Class/Device/MassStorageClassDevice.c **** /*
  10:lufa-lib-svn/LUFA/Drivers/USB/Class/Device/MassStorageClassDevice.c ****   Copyright 2011  Dean Camera (dean [at] fourwalledcubicle [dot] com)
  11:lufa-lib-svn/LUFA/Drivers/USB/Class/Device/MassStorageClassDevice.c **** 
  12:lufa-lib-svn/LUFA/Drivers/USB/Class/Device/MassStorageClassDevice.c ****   Permission to use, copy, modify, distribute, and sell this
  13:lufa-lib-svn/LUFA/Drivers/USB/Class/Device/MassStorageClassDevice.c ****   software and its documentation for any purpose is hereby granted
  14:lufa-lib-svn/LUFA/Drivers/USB/Class/Device/MassStorageClassDevice.c ****   without fee, provided that the above copyright notice appear in
  15:lufa-lib-svn/LUFA/Drivers/USB/Class/Device/MassStorageClassDevice.c ****   all copies and that both that the copyright notice and this
  16:lufa-lib-svn/LUFA/Drivers/USB/Class/Device/MassStorageClassDevice.c ****   permission notice and warranty disclaimer appear in supporting
  17:lufa-lib-svn/LUFA/Drivers/USB/Class/Device/MassStorageClassDevice.c ****   documentation, and that the name of the author not be used in
  18:lufa-lib-svn/LUFA/Drivers/USB/Class/Device/MassStorageClassDevice.c ****   advertising or publicity pertaining to distribution of the
  19:lufa-lib-svn/LUFA/Drivers/USB/Class/Device/MassStorageClassDevice.c ****   software without specific, written prior permission.
  20:lufa-lib-svn/LUFA/Drivers/USB/Class/Device/MassStorageClassDevice.c **** 
  21:lufa-lib-svn/LUFA/Drivers/USB/Class/Device/MassStorageClassDevice.c ****   The author disclaim all warranties with regard to this
  22:lufa-lib-svn/LUFA/Drivers/USB/Class/Device/MassStorageClassDevice.c ****   software, including all implied warranties of merchantability
  23:lufa-lib-svn/LUFA/Drivers/USB/Class/Device/MassStorageClassDevice.c ****   and fitness.  In no event shall the author be liable for any
  24:lufa-lib-svn/LUFA/Drivers/USB/Class/Device/MassStorageClassDevice.c ****   special, indirect or consequential damages or any damages
  25:lufa-lib-svn/LUFA/Drivers/USB/Class/Device/MassStorageClassDevice.c ****   whatsoever resulting from loss of use, data or profits, whether
  26:lufa-lib-svn/LUFA/Drivers/USB/Class/Device/MassStorageClassDevice.c ****   in an action of contract, negligence or other tortious action,
  27:lufa-lib-svn/LUFA/Drivers/USB/Class/Device/MassStorageClassDevice.c ****   arising out of or in connection with the use or performance of
  28:lufa-lib-svn/LUFA/Drivers/USB/Class/Device/MassStorageClassDevice.c ****   this software.
  29:lufa-lib-svn/LUFA/Drivers/USB/Class/Device/MassStorageClassDevice.c **** */
  30:lufa-lib-svn/LUFA/Drivers/USB/Class/Device/MassStorageClassDevice.c **** 
  31:lufa-lib-svn/LUFA/Drivers/USB/Class/Device/MassStorageClassDevice.c **** #define  __INCLUDE_FROM_USB_DRIVER
  32:lufa-lib-svn/LUFA/Drivers/USB/Class/Device/MassStorageClassDevice.c **** #include "../../Core/USBMode.h"
  33:lufa-lib-svn/LUFA/Drivers/USB/Class/Device/MassStorageClassDevice.c **** 
  34:lufa-lib-svn/LUFA/Drivers/USB/Class/Device/MassStorageClassDevice.c **** #if defined(USB_CAN_BE_DEVICE)
  35:lufa-lib-svn/LUFA/Drivers/USB/Class/Device/MassStorageClassDevice.c **** 
  36:lufa-lib-svn/LUFA/Drivers/USB/Class/Device/MassStorageClassDevice.c **** #define  __INCLUDE_FROM_MS_DRIVER
  37:lufa-lib-svn/LUFA/Drivers/USB/Class/Device/MassStorageClassDevice.c **** #define  __INCLUDE_FROM_MASSSTORAGE_DEVICE_C
  38:lufa-lib-svn/LUFA/Drivers/USB/Class/Device/MassStorageClassDevice.c **** #include "MassStorageClassDevice.h"
  39:lufa-lib-svn/LUFA/Drivers/USB/Class/Device/MassStorageClassDevice.c **** 
  40:lufa-lib-svn/LUFA/Drivers/USB/Class/Device/MassStorageClassDevice.c **** void MS_Device_ProcessControlRequest(USB_ClassInfo_MS_Device_t* const MSInterfaceInfo)
  41:lufa-lib-svn/LUFA/Drivers/USB/Class/Device/MassStorageClassDevice.c **** {
  16               		.loc 1 41 0
  17               		.cfi_startproc
  18               	.LVL0:
  19 0000 CF93      		push r28
  20               	.LCFI0:
  21               		.cfi_def_cfa_offset 3
  22               		.cfi_offset 28, -2
  23 0002 DF93      		push r29
  24               	.LCFI1:
  25               		.cfi_def_cfa_offset 4
  26               		.cfi_offset 29, -3
  27               	/* prologue: function */
  28               	/* frame size = 0 */
  29               	/* stack size = 2 */
  30               	.L__stack_usage = 2
  31 0004 EC01      		movw r28,r24
  32               	.LBB67:
  33               	.LBB68:
  34               		.file 2 "lufa-lib-svn/LUFA/Drivers/USB/Class/Device/../../Core/AVR8/../AVR8/Endpoint_AVR8.h"
   1:lufa-lib-svn/LUFA/Drivers/USB/Class/Device/../../Core/AVR8/../AVR8/Endpoint_AVR8.h **** /*
   2:lufa-lib-svn/LUFA/Drivers/USB/Class/Device/../../Core/AVR8/../AVR8/Endpoint_AVR8.h ****              LUFA Library
   3:lufa-lib-svn/LUFA/Drivers/USB/Class/Device/../../Core/AVR8/../AVR8/Endpoint_AVR8.h ****      Copyright (C) Dean Camera, 2011.
   4:lufa-lib-svn/LUFA/Drivers/USB/Class/Device/../../Core/AVR8/../AVR8/Endpoint_AVR8.h **** 
   5:lufa-lib-svn/LUFA/Drivers/USB/Class/Device/../../Core/AVR8/../AVR8/Endpoint_AVR8.h ****   dean [at] fourwalledcubicle [dot] com
   6:lufa-lib-svn/LUFA/Drivers/USB/Class/Device/../../Core/AVR8/../AVR8/Endpoint_AVR8.h ****            www.lufa-lib.org
   7:lufa-lib-svn/LUFA/Drivers/USB/Class/Device/../../Core/AVR8/../AVR8/Endpoint_AVR8.h **** */
   8:lufa-lib-svn/LUFA/Drivers/USB/Class/Device/../../Core/AVR8/../AVR8/Endpoint_AVR8.h **** 
   9:lufa-lib-svn/LUFA/Drivers/USB/Class/Device/../../Core/AVR8/../AVR8/Endpoint_AVR8.h **** /*
  10:lufa-lib-svn/LUFA/Drivers/USB/Class/Device/../../Core/AVR8/../AVR8/Endpoint_AVR8.h ****   Copyright 2011  Dean Camera (dean [at] fourwalledcubicle [dot] com)
  11:lufa-lib-svn/LUFA/Drivers/USB/Class/Device/../../Core/AVR8/../AVR8/Endpoint_AVR8.h **** 
  12:lufa-lib-svn/LUFA/Drivers/USB/Class/Device/../../Core/AVR8/../AVR8/Endpoint_AVR8.h ****   Permission to use, copy, modify, distribute, and sell this
  13:lufa-lib-svn/LUFA/Drivers/USB/Class/Device/../../Core/AVR8/../AVR8/Endpoint_AVR8.h ****   software and its documentation for any purpose is hereby granted
  14:lufa-lib-svn/LUFA/Drivers/USB/Class/Device/../../Core/AVR8/../AVR8/Endpoint_AVR8.h ****   without fee, provided that the above copyright notice appear in
  15:lufa-lib-svn/LUFA/Drivers/USB/Class/Device/../../Core/AVR8/../AVR8/Endpoint_AVR8.h ****   all copies and that both that the copyright notice and this
  16:lufa-lib-svn/LUFA/Drivers/USB/Class/Device/../../Core/AVR8/../AVR8/Endpoint_AVR8.h ****   permission notice and warranty disclaimer appear in supporting
  17:lufa-lib-svn/LUFA/Drivers/USB/Class/Device/../../Core/AVR8/../AVR8/Endpoint_AVR8.h ****   documentation, and that the name of the author not be used in
  18:lufa-lib-svn/LUFA/Drivers/USB/Class/Device/../../Core/AVR8/../AVR8/Endpoint_AVR8.h ****   advertising or publicity pertaining to distribution of the
  19:lufa-lib-svn/LUFA/Drivers/USB/Class/Device/../../Core/AVR8/../AVR8/Endpoint_AVR8.h ****   software without specific, written prior permission.
  20:lufa-lib-svn/LUFA/Drivers/USB/Class/Device/../../Core/AVR8/../AVR8/Endpoint_AVR8.h **** 
  21:lufa-lib-svn/LUFA/Drivers/USB/Class/Device/../../Core/AVR8/../AVR8/Endpoint_AVR8.h ****   The author disclaim all warranties with regard to this
  22:lufa-lib-svn/LUFA/Drivers/USB/Class/Device/../../Core/AVR8/../AVR8/Endpoint_AVR8.h ****   software, including all implied warranties of merchantability
  23:lufa-lib-svn/LUFA/Drivers/USB/Class/Device/../../Core/AVR8/../AVR8/Endpoint_AVR8.h ****   and fitness.  In no event shall the author be liable for any
  24:lufa-lib-svn/LUFA/Drivers/USB/Class/Device/../../Core/AVR8/../AVR8/Endpoint_AVR8.h ****   special, indirect or consequential damages or any damages
  25:lufa-lib-svn/LUFA/Drivers/USB/Class/Device/../../Core/AVR8/../AVR8/Endpoint_AVR8.h ****   whatsoever resulting from loss of use, data or profits, whether
  26:lufa-lib-svn/LUFA/Drivers/USB/Class/Device/../../Core/AVR8/../AVR8/Endpoint_AVR8.h ****   in an action of contract, negligence or other tortious action,
  27:lufa-lib-svn/LUFA/Drivers/USB/Class/Device/../../Core/AVR8/../AVR8/Endpoint_AVR8.h ****   arising out of or in connection with the use or performance of
  28:lufa-lib-svn/LUFA/Drivers/USB/Class/Device/../../Core/AVR8/../AVR8/Endpoint_AVR8.h ****   this software.
  29:lufa-lib-svn/LUFA/Drivers/USB/Class/Device/../../Core/AVR8/../AVR8/Endpoint_AVR8.h **** */
  30:lufa-lib-svn/LUFA/Drivers/USB/Class/Device/../../Core/AVR8/../AVR8/Endpoint_AVR8.h **** 
  31:lufa-lib-svn/LUFA/Drivers/USB/Class/Device/../../Core/AVR8/../AVR8/Endpoint_AVR8.h **** /** \file
  32:lufa-lib-svn/LUFA/Drivers/USB/Class/Device/../../Core/AVR8/../AVR8/Endpoint_AVR8.h ****  *  \brief USB Endpoint definitions for the AVR8 microcontrollers.
  33:lufa-lib-svn/LUFA/Drivers/USB/Class/Device/../../Core/AVR8/../AVR8/Endpoint_AVR8.h ****  *  \copydetails Group_EndpointManagement_AVR8
  34:lufa-lib-svn/LUFA/Drivers/USB/Class/Device/../../Core/AVR8/../AVR8/Endpoint_AVR8.h ****  *
  35:lufa-lib-svn/LUFA/Drivers/USB/Class/Device/../../Core/AVR8/../AVR8/Endpoint_AVR8.h ****  *  \note This file should not be included directly. It is automatically included as needed by the 
  36:lufa-lib-svn/LUFA/Drivers/USB/Class/Device/../../Core/AVR8/../AVR8/Endpoint_AVR8.h ****  *        dispatch header located in LUFA/Drivers/USB/USB.h.
  37:lufa-lib-svn/LUFA/Drivers/USB/Class/Device/../../Core/AVR8/../AVR8/Endpoint_AVR8.h ****  */
  38:lufa-lib-svn/LUFA/Drivers/USB/Class/Device/../../Core/AVR8/../AVR8/Endpoint_AVR8.h **** 
  39:lufa-lib-svn/LUFA/Drivers/USB/Class/Device/../../Core/AVR8/../AVR8/Endpoint_AVR8.h **** /** \ingroup Group_EndpointRW
  40:lufa-lib-svn/LUFA/Drivers/USB/Class/Device/../../Core/AVR8/../AVR8/Endpoint_AVR8.h ****  *  \defgroup Group_EndpointRW_AVR8 Endpoint Data Reading and Writing (AVR8)
  41:lufa-lib-svn/LUFA/Drivers/USB/Class/Device/../../Core/AVR8/../AVR8/Endpoint_AVR8.h ****  *  \brief Endpoint data read/write definitions for the Atmel AVR8 architecture.
  42:lufa-lib-svn/LUFA/Drivers/USB/Class/Device/../../Core/AVR8/../AVR8/Endpoint_AVR8.h ****  *
  43:lufa-lib-svn/LUFA/Drivers/USB/Class/Device/../../Core/AVR8/../AVR8/Endpoint_AVR8.h ****  *  Functions, macros, variables, enums and types related to data reading and writing from and to e
  44:lufa-lib-svn/LUFA/Drivers/USB/Class/Device/../../Core/AVR8/../AVR8/Endpoint_AVR8.h ****  */
  45:lufa-lib-svn/LUFA/Drivers/USB/Class/Device/../../Core/AVR8/../AVR8/Endpoint_AVR8.h **** 
  46:lufa-lib-svn/LUFA/Drivers/USB/Class/Device/../../Core/AVR8/../AVR8/Endpoint_AVR8.h **** /** \ingroup Group_EndpointPrimitiveRW
  47:lufa-lib-svn/LUFA/Drivers/USB/Class/Device/../../Core/AVR8/../AVR8/Endpoint_AVR8.h ****  *  \defgroup Group_EndpointPrimitiveRW_AVR8 Read/Write of Primitive Data Types (AVR8)
  48:lufa-lib-svn/LUFA/Drivers/USB/Class/Device/../../Core/AVR8/../AVR8/Endpoint_AVR8.h ****  *  \brief Endpoint primitive read/write definitions for the Atmel AVR8 architecture.
  49:lufa-lib-svn/LUFA/Drivers/USB/Class/Device/../../Core/AVR8/../AVR8/Endpoint_AVR8.h ****  *
  50:lufa-lib-svn/LUFA/Drivers/USB/Class/Device/../../Core/AVR8/../AVR8/Endpoint_AVR8.h ****  *  Functions, macros, variables, enums and types related to data reading and writing of primitive 
  51:lufa-lib-svn/LUFA/Drivers/USB/Class/Device/../../Core/AVR8/../AVR8/Endpoint_AVR8.h ****  *  from and to endpoints.
  52:lufa-lib-svn/LUFA/Drivers/USB/Class/Device/../../Core/AVR8/../AVR8/Endpoint_AVR8.h ****  */
  53:lufa-lib-svn/LUFA/Drivers/USB/Class/Device/../../Core/AVR8/../AVR8/Endpoint_AVR8.h **** 
  54:lufa-lib-svn/LUFA/Drivers/USB/Class/Device/../../Core/AVR8/../AVR8/Endpoint_AVR8.h **** /** \ingroup Group_EndpointPacketManagement
  55:lufa-lib-svn/LUFA/Drivers/USB/Class/Device/../../Core/AVR8/../AVR8/Endpoint_AVR8.h ****  *  \defgroup Group_EndpointPacketManagement_AVR8 Endpoint Packet Management (AVR8)
  56:lufa-lib-svn/LUFA/Drivers/USB/Class/Device/../../Core/AVR8/../AVR8/Endpoint_AVR8.h ****  *  \brief Endpoint packet management definitions for the Atmel AVR8 architecture.
  57:lufa-lib-svn/LUFA/Drivers/USB/Class/Device/../../Core/AVR8/../AVR8/Endpoint_AVR8.h ****  *
  58:lufa-lib-svn/LUFA/Drivers/USB/Class/Device/../../Core/AVR8/../AVR8/Endpoint_AVR8.h ****  *  Functions, macros, variables, enums and types related to packet management of endpoints.
  59:lufa-lib-svn/LUFA/Drivers/USB/Class/Device/../../Core/AVR8/../AVR8/Endpoint_AVR8.h ****  */
  60:lufa-lib-svn/LUFA/Drivers/USB/Class/Device/../../Core/AVR8/../AVR8/Endpoint_AVR8.h **** 
  61:lufa-lib-svn/LUFA/Drivers/USB/Class/Device/../../Core/AVR8/../AVR8/Endpoint_AVR8.h **** /** \ingroup Group_EndpointManagement
  62:lufa-lib-svn/LUFA/Drivers/USB/Class/Device/../../Core/AVR8/../AVR8/Endpoint_AVR8.h ****  *  \defgroup Group_EndpointManagement_AVR8 Endpoint Management (AVR8)
  63:lufa-lib-svn/LUFA/Drivers/USB/Class/Device/../../Core/AVR8/../AVR8/Endpoint_AVR8.h ****  *  \brief Endpoint management definitions for the Atmel AVR8 architecture.
  64:lufa-lib-svn/LUFA/Drivers/USB/Class/Device/../../Core/AVR8/../AVR8/Endpoint_AVR8.h ****  *
  65:lufa-lib-svn/LUFA/Drivers/USB/Class/Device/../../Core/AVR8/../AVR8/Endpoint_AVR8.h ****  *  Functions, macros and enums related to endpoint management when in USB Device mode. This
  66:lufa-lib-svn/LUFA/Drivers/USB/Class/Device/../../Core/AVR8/../AVR8/Endpoint_AVR8.h ****  *  module contains the endpoint management macros, as well as endpoint interrupt and data
  67:lufa-lib-svn/LUFA/Drivers/USB/Class/Device/../../Core/AVR8/../AVR8/Endpoint_AVR8.h ****  *  send/receive functions for various data types.
  68:lufa-lib-svn/LUFA/Drivers/USB/Class/Device/../../Core/AVR8/../AVR8/Endpoint_AVR8.h ****  *
  69:lufa-lib-svn/LUFA/Drivers/USB/Class/Device/../../Core/AVR8/../AVR8/Endpoint_AVR8.h ****  *  @{
  70:lufa-lib-svn/LUFA/Drivers/USB/Class/Device/../../Core/AVR8/../AVR8/Endpoint_AVR8.h ****  */
  71:lufa-lib-svn/LUFA/Drivers/USB/Class/Device/../../Core/AVR8/../AVR8/Endpoint_AVR8.h **** 
  72:lufa-lib-svn/LUFA/Drivers/USB/Class/Device/../../Core/AVR8/../AVR8/Endpoint_AVR8.h **** #ifndef __ENDPOINT_AVR8_H__
  73:lufa-lib-svn/LUFA/Drivers/USB/Class/Device/../../Core/AVR8/../AVR8/Endpoint_AVR8.h **** #define __ENDPOINT_AVR8_H__
  74:lufa-lib-svn/LUFA/Drivers/USB/Class/Device/../../Core/AVR8/../AVR8/Endpoint_AVR8.h **** 
  75:lufa-lib-svn/LUFA/Drivers/USB/Class/Device/../../Core/AVR8/../AVR8/Endpoint_AVR8.h **** 	/* Includes: */
  76:lufa-lib-svn/LUFA/Drivers/USB/Class/Device/../../Core/AVR8/../AVR8/Endpoint_AVR8.h **** 		#include "../../../../Common/Common.h"
  77:lufa-lib-svn/LUFA/Drivers/USB/Class/Device/../../Core/AVR8/../AVR8/Endpoint_AVR8.h **** 		#include "../USBTask.h"
  78:lufa-lib-svn/LUFA/Drivers/USB/Class/Device/../../Core/AVR8/../AVR8/Endpoint_AVR8.h **** 		#include "../USBInterrupt.h"
  79:lufa-lib-svn/LUFA/Drivers/USB/Class/Device/../../Core/AVR8/../AVR8/Endpoint_AVR8.h **** 
  80:lufa-lib-svn/LUFA/Drivers/USB/Class/Device/../../Core/AVR8/../AVR8/Endpoint_AVR8.h **** 	/* Enable C linkage for C++ Compilers: */
  81:lufa-lib-svn/LUFA/Drivers/USB/Class/Device/../../Core/AVR8/../AVR8/Endpoint_AVR8.h **** 		#if defined(__cplusplus)
  82:lufa-lib-svn/LUFA/Drivers/USB/Class/Device/../../Core/AVR8/../AVR8/Endpoint_AVR8.h **** 			extern "C" {
  83:lufa-lib-svn/LUFA/Drivers/USB/Class/Device/../../Core/AVR8/../AVR8/Endpoint_AVR8.h **** 		#endif
  84:lufa-lib-svn/LUFA/Drivers/USB/Class/Device/../../Core/AVR8/../AVR8/Endpoint_AVR8.h **** 
  85:lufa-lib-svn/LUFA/Drivers/USB/Class/Device/../../Core/AVR8/../AVR8/Endpoint_AVR8.h **** 	/* Preprocessor Checks: */
  86:lufa-lib-svn/LUFA/Drivers/USB/Class/Device/../../Core/AVR8/../AVR8/Endpoint_AVR8.h **** 		#if !defined(__INCLUDE_FROM_USB_DRIVER)
  87:lufa-lib-svn/LUFA/Drivers/USB/Class/Device/../../Core/AVR8/../AVR8/Endpoint_AVR8.h **** 			#error Do not include this file directly. Include LUFA/Drivers/USB/USB.h instead.
  88:lufa-lib-svn/LUFA/Drivers/USB/Class/Device/../../Core/AVR8/../AVR8/Endpoint_AVR8.h **** 		#endif
  89:lufa-lib-svn/LUFA/Drivers/USB/Class/Device/../../Core/AVR8/../AVR8/Endpoint_AVR8.h **** 
  90:lufa-lib-svn/LUFA/Drivers/USB/Class/Device/../../Core/AVR8/../AVR8/Endpoint_AVR8.h **** 	/* Private Interface - For use in library only: */
  91:lufa-lib-svn/LUFA/Drivers/USB/Class/Device/../../Core/AVR8/../AVR8/Endpoint_AVR8.h **** 	#if !defined(__DOXYGEN__)
  92:lufa-lib-svn/LUFA/Drivers/USB/Class/Device/../../Core/AVR8/../AVR8/Endpoint_AVR8.h **** 		/* Macros: */
  93:lufa-lib-svn/LUFA/Drivers/USB/Class/Device/../../Core/AVR8/../AVR8/Endpoint_AVR8.h **** 			#define _ENDPOINT_GET_MAXSIZE(EPIndex)         _ENDPOINT_GET_MAXSIZE2(ENDPOINT_DETAILS_EP ## EPI
  94:lufa-lib-svn/LUFA/Drivers/USB/Class/Device/../../Core/AVR8/../AVR8/Endpoint_AVR8.h **** 			#define _ENDPOINT_GET_MAXSIZE2(EPDetails)      _ENDPOINT_GET_MAXSIZE3(EPDetails)
  95:lufa-lib-svn/LUFA/Drivers/USB/Class/Device/../../Core/AVR8/../AVR8/Endpoint_AVR8.h **** 			#define _ENDPOINT_GET_MAXSIZE3(MaxSize, Banks) (MaxSize)
  96:lufa-lib-svn/LUFA/Drivers/USB/Class/Device/../../Core/AVR8/../AVR8/Endpoint_AVR8.h **** 
  97:lufa-lib-svn/LUFA/Drivers/USB/Class/Device/../../Core/AVR8/../AVR8/Endpoint_AVR8.h **** 			#define _ENDPOINT_GET_BANKS(EPIndex)           _ENDPOINT_GET_BANKS2(ENDPOINT_DETAILS_EP ## EPInd
  98:lufa-lib-svn/LUFA/Drivers/USB/Class/Device/../../Core/AVR8/../AVR8/Endpoint_AVR8.h **** 			#define _ENDPOINT_GET_BANKS2(EPDetails)        _ENDPOINT_GET_BANKS3(EPDetails)
  99:lufa-lib-svn/LUFA/Drivers/USB/Class/Device/../../Core/AVR8/../AVR8/Endpoint_AVR8.h **** 			#define _ENDPOINT_GET_BANKS3(MaxSize, Banks)   (Banks)
 100:lufa-lib-svn/LUFA/Drivers/USB/Class/Device/../../Core/AVR8/../AVR8/Endpoint_AVR8.h **** 
 101:lufa-lib-svn/LUFA/Drivers/USB/Class/Device/../../Core/AVR8/../AVR8/Endpoint_AVR8.h **** 			#if defined(USB_SERIES_4_AVR) || defined(USB_SERIES_6_AVR) || defined(USB_SERIES_7_AVR)
 102:lufa-lib-svn/LUFA/Drivers/USB/Class/Device/../../Core/AVR8/../AVR8/Endpoint_AVR8.h **** 				#define ENDPOINT_DETAILS_MAXEP             7
 103:lufa-lib-svn/LUFA/Drivers/USB/Class/Device/../../Core/AVR8/../AVR8/Endpoint_AVR8.h **** 
 104:lufa-lib-svn/LUFA/Drivers/USB/Class/Device/../../Core/AVR8/../AVR8/Endpoint_AVR8.h **** 				#define ENDPOINT_DETAILS_EP0               64,  1
 105:lufa-lib-svn/LUFA/Drivers/USB/Class/Device/../../Core/AVR8/../AVR8/Endpoint_AVR8.h **** 				#define ENDPOINT_DETAILS_EP1               256, 2
 106:lufa-lib-svn/LUFA/Drivers/USB/Class/Device/../../Core/AVR8/../AVR8/Endpoint_AVR8.h **** 				#define ENDPOINT_DETAILS_EP2               64,  2
 107:lufa-lib-svn/LUFA/Drivers/USB/Class/Device/../../Core/AVR8/../AVR8/Endpoint_AVR8.h **** 				#define ENDPOINT_DETAILS_EP3               64,  2
 108:lufa-lib-svn/LUFA/Drivers/USB/Class/Device/../../Core/AVR8/../AVR8/Endpoint_AVR8.h **** 				#define ENDPOINT_DETAILS_EP4               64,  2
 109:lufa-lib-svn/LUFA/Drivers/USB/Class/Device/../../Core/AVR8/../AVR8/Endpoint_AVR8.h **** 				#define ENDPOINT_DETAILS_EP5               64,  2
 110:lufa-lib-svn/LUFA/Drivers/USB/Class/Device/../../Core/AVR8/../AVR8/Endpoint_AVR8.h **** 				#define ENDPOINT_DETAILS_EP6               64,  2
 111:lufa-lib-svn/LUFA/Drivers/USB/Class/Device/../../Core/AVR8/../AVR8/Endpoint_AVR8.h **** 			#else
 112:lufa-lib-svn/LUFA/Drivers/USB/Class/Device/../../Core/AVR8/../AVR8/Endpoint_AVR8.h **** 				#define ENDPOINT_DETAILS_MAXEP             5
 113:lufa-lib-svn/LUFA/Drivers/USB/Class/Device/../../Core/AVR8/../AVR8/Endpoint_AVR8.h **** 
 114:lufa-lib-svn/LUFA/Drivers/USB/Class/Device/../../Core/AVR8/../AVR8/Endpoint_AVR8.h **** 				#define ENDPOINT_DETAILS_EP0               64,  1
 115:lufa-lib-svn/LUFA/Drivers/USB/Class/Device/../../Core/AVR8/../AVR8/Endpoint_AVR8.h **** 				#define ENDPOINT_DETAILS_EP1               64,  1
 116:lufa-lib-svn/LUFA/Drivers/USB/Class/Device/../../Core/AVR8/../AVR8/Endpoint_AVR8.h **** 				#define ENDPOINT_DETAILS_EP2               64,  1
 117:lufa-lib-svn/LUFA/Drivers/USB/Class/Device/../../Core/AVR8/../AVR8/Endpoint_AVR8.h **** 				#define ENDPOINT_DETAILS_EP3               64,  2
 118:lufa-lib-svn/LUFA/Drivers/USB/Class/Device/../../Core/AVR8/../AVR8/Endpoint_AVR8.h **** 				#define ENDPOINT_DETAILS_EP4               64,  2
 119:lufa-lib-svn/LUFA/Drivers/USB/Class/Device/../../Core/AVR8/../AVR8/Endpoint_AVR8.h **** 			#endif
 120:lufa-lib-svn/LUFA/Drivers/USB/Class/Device/../../Core/AVR8/../AVR8/Endpoint_AVR8.h **** 
 121:lufa-lib-svn/LUFA/Drivers/USB/Class/Device/../../Core/AVR8/../AVR8/Endpoint_AVR8.h **** 		/* Inline Functions: */
 122:lufa-lib-svn/LUFA/Drivers/USB/Class/Device/../../Core/AVR8/../AVR8/Endpoint_AVR8.h **** 			static inline uint8_t Endpoint_BytesToEPSizeMask(const uint16_t Bytes) ATTR_WARN_UNUSED_RESULT A
 123:lufa-lib-svn/LUFA/Drivers/USB/Class/Device/../../Core/AVR8/../AVR8/Endpoint_AVR8.h **** 			                                                                       ATTR_ALWAYS_INLINE;
 124:lufa-lib-svn/LUFA/Drivers/USB/Class/Device/../../Core/AVR8/../AVR8/Endpoint_AVR8.h **** 			static inline uint8_t Endpoint_BytesToEPSizeMask(const uint16_t Bytes)
 125:lufa-lib-svn/LUFA/Drivers/USB/Class/Device/../../Core/AVR8/../AVR8/Endpoint_AVR8.h **** 			{
 126:lufa-lib-svn/LUFA/Drivers/USB/Class/Device/../../Core/AVR8/../AVR8/Endpoint_AVR8.h **** 				uint8_t  MaskVal    = 0;
 127:lufa-lib-svn/LUFA/Drivers/USB/Class/Device/../../Core/AVR8/../AVR8/Endpoint_AVR8.h **** 				uint16_t CheckBytes = 8;
 128:lufa-lib-svn/LUFA/Drivers/USB/Class/Device/../../Core/AVR8/../AVR8/Endpoint_AVR8.h **** 
 129:lufa-lib-svn/LUFA/Drivers/USB/Class/Device/../../Core/AVR8/../AVR8/Endpoint_AVR8.h **** 				while (CheckBytes < Bytes)
 130:lufa-lib-svn/LUFA/Drivers/USB/Class/Device/../../Core/AVR8/../AVR8/Endpoint_AVR8.h **** 				{
 131:lufa-lib-svn/LUFA/Drivers/USB/Class/Device/../../Core/AVR8/../AVR8/Endpoint_AVR8.h **** 					MaskVal++;
 132:lufa-lib-svn/LUFA/Drivers/USB/Class/Device/../../Core/AVR8/../AVR8/Endpoint_AVR8.h **** 					CheckBytes <<= 1;
 133:lufa-lib-svn/LUFA/Drivers/USB/Class/Device/../../Core/AVR8/../AVR8/Endpoint_AVR8.h **** 				}
 134:lufa-lib-svn/LUFA/Drivers/USB/Class/Device/../../Core/AVR8/../AVR8/Endpoint_AVR8.h **** 
 135:lufa-lib-svn/LUFA/Drivers/USB/Class/Device/../../Core/AVR8/../AVR8/Endpoint_AVR8.h **** 				return (MaskVal << EPSIZE0);
 136:lufa-lib-svn/LUFA/Drivers/USB/Class/Device/../../Core/AVR8/../AVR8/Endpoint_AVR8.h **** 			}
 137:lufa-lib-svn/LUFA/Drivers/USB/Class/Device/../../Core/AVR8/../AVR8/Endpoint_AVR8.h **** 
 138:lufa-lib-svn/LUFA/Drivers/USB/Class/Device/../../Core/AVR8/../AVR8/Endpoint_AVR8.h **** 		/* Function Prototypes: */
 139:lufa-lib-svn/LUFA/Drivers/USB/Class/Device/../../Core/AVR8/../AVR8/Endpoint_AVR8.h **** 			void Endpoint_ClearEndpoints(void);
 140:lufa-lib-svn/LUFA/Drivers/USB/Class/Device/../../Core/AVR8/../AVR8/Endpoint_AVR8.h **** 			bool Endpoint_ConfigureEndpoint_Prv(const uint8_t Number,
 141:lufa-lib-svn/LUFA/Drivers/USB/Class/Device/../../Core/AVR8/../AVR8/Endpoint_AVR8.h **** 			                                    const uint8_t UECFG0XData,
 142:lufa-lib-svn/LUFA/Drivers/USB/Class/Device/../../Core/AVR8/../AVR8/Endpoint_AVR8.h **** 			                                    const uint8_t UECFG1XData);
 143:lufa-lib-svn/LUFA/Drivers/USB/Class/Device/../../Core/AVR8/../AVR8/Endpoint_AVR8.h **** 
 144:lufa-lib-svn/LUFA/Drivers/USB/Class/Device/../../Core/AVR8/../AVR8/Endpoint_AVR8.h **** 	#endif
 145:lufa-lib-svn/LUFA/Drivers/USB/Class/Device/../../Core/AVR8/../AVR8/Endpoint_AVR8.h **** 
 146:lufa-lib-svn/LUFA/Drivers/USB/Class/Device/../../Core/AVR8/../AVR8/Endpoint_AVR8.h **** 	/* Public Interface - May be used in end-application: */
 147:lufa-lib-svn/LUFA/Drivers/USB/Class/Device/../../Core/AVR8/../AVR8/Endpoint_AVR8.h **** 		/* Macros: */
 148:lufa-lib-svn/LUFA/Drivers/USB/Class/Device/../../Core/AVR8/../AVR8/Endpoint_AVR8.h **** 			/** \name Endpoint Bank Mode Masks */
 149:lufa-lib-svn/LUFA/Drivers/USB/Class/Device/../../Core/AVR8/../AVR8/Endpoint_AVR8.h **** 			//@{
 150:lufa-lib-svn/LUFA/Drivers/USB/Class/Device/../../Core/AVR8/../AVR8/Endpoint_AVR8.h **** 			/** Mask for the bank mode selection for the \ref Endpoint_ConfigureEndpoint() macro. This indic
 151:lufa-lib-svn/LUFA/Drivers/USB/Class/Device/../../Core/AVR8/../AVR8/Endpoint_AVR8.h **** 			 *  that the endpoint should have one single bank, which requires less USB FIFO memory but resul
 152:lufa-lib-svn/LUFA/Drivers/USB/Class/Device/../../Core/AVR8/../AVR8/Endpoint_AVR8.h **** 			 *  in slower transfers as only one USB device (the AVR or the host) can access the endpoint's
 153:lufa-lib-svn/LUFA/Drivers/USB/Class/Device/../../Core/AVR8/../AVR8/Endpoint_AVR8.h **** 			 *  bank at the one time.
 154:lufa-lib-svn/LUFA/Drivers/USB/Class/Device/../../Core/AVR8/../AVR8/Endpoint_AVR8.h **** 			 */
 155:lufa-lib-svn/LUFA/Drivers/USB/Class/Device/../../Core/AVR8/../AVR8/Endpoint_AVR8.h **** 			#define ENDPOINT_BANK_SINGLE                    (0 << EPBK0)
 156:lufa-lib-svn/LUFA/Drivers/USB/Class/Device/../../Core/AVR8/../AVR8/Endpoint_AVR8.h **** 
 157:lufa-lib-svn/LUFA/Drivers/USB/Class/Device/../../Core/AVR8/../AVR8/Endpoint_AVR8.h **** 			/** Mask for the bank mode selection for the \ref Endpoint_ConfigureEndpoint() macro. This indic
 158:lufa-lib-svn/LUFA/Drivers/USB/Class/Device/../../Core/AVR8/../AVR8/Endpoint_AVR8.h **** 			 *  that the endpoint should have two banks, which requires more USB FIFO memory but results
 159:lufa-lib-svn/LUFA/Drivers/USB/Class/Device/../../Core/AVR8/../AVR8/Endpoint_AVR8.h **** 			 *  in faster transfers as one USB device (the AVR or the host) can access one bank while the ot
 160:lufa-lib-svn/LUFA/Drivers/USB/Class/Device/../../Core/AVR8/../AVR8/Endpoint_AVR8.h **** 			 *  accesses the second bank.
 161:lufa-lib-svn/LUFA/Drivers/USB/Class/Device/../../Core/AVR8/../AVR8/Endpoint_AVR8.h **** 			 */
 162:lufa-lib-svn/LUFA/Drivers/USB/Class/Device/../../Core/AVR8/../AVR8/Endpoint_AVR8.h **** 			#define ENDPOINT_BANK_DOUBLE                    (1 << EPBK0)
 163:lufa-lib-svn/LUFA/Drivers/USB/Class/Device/../../Core/AVR8/../AVR8/Endpoint_AVR8.h **** 			//@}
 164:lufa-lib-svn/LUFA/Drivers/USB/Class/Device/../../Core/AVR8/../AVR8/Endpoint_AVR8.h **** 
 165:lufa-lib-svn/LUFA/Drivers/USB/Class/Device/../../Core/AVR8/../AVR8/Endpoint_AVR8.h **** 			#if (!defined(FIXED_CONTROL_ENDPOINT_SIZE) || defined(__DOXYGEN__))
 166:lufa-lib-svn/LUFA/Drivers/USB/Class/Device/../../Core/AVR8/../AVR8/Endpoint_AVR8.h **** 				/** Default size of the default control endpoint's bank, until altered by the control endpoint 
 167:lufa-lib-svn/LUFA/Drivers/USB/Class/Device/../../Core/AVR8/../AVR8/Endpoint_AVR8.h **** 				 *  value in the device descriptor. Not available if the \c FIXED_CONTROL_ENDPOINT_SIZE token i
 168:lufa-lib-svn/LUFA/Drivers/USB/Class/Device/../../Core/AVR8/../AVR8/Endpoint_AVR8.h **** 				 */
 169:lufa-lib-svn/LUFA/Drivers/USB/Class/Device/../../Core/AVR8/../AVR8/Endpoint_AVR8.h **** 				#define ENDPOINT_CONTROLEP_DEFAULT_SIZE     8
 170:lufa-lib-svn/LUFA/Drivers/USB/Class/Device/../../Core/AVR8/../AVR8/Endpoint_AVR8.h **** 			#endif
 171:lufa-lib-svn/LUFA/Drivers/USB/Class/Device/../../Core/AVR8/../AVR8/Endpoint_AVR8.h **** 
 172:lufa-lib-svn/LUFA/Drivers/USB/Class/Device/../../Core/AVR8/../AVR8/Endpoint_AVR8.h **** 			/** Retrieves the maximum bank size in bytes of a given endpoint.
 173:lufa-lib-svn/LUFA/Drivers/USB/Class/Device/../../Core/AVR8/../AVR8/Endpoint_AVR8.h **** 			 *
 174:lufa-lib-svn/LUFA/Drivers/USB/Class/Device/../../Core/AVR8/../AVR8/Endpoint_AVR8.h **** 			 *  \note This macro will only work correctly on endpoint indexes that are compile-time constant
 175:lufa-lib-svn/LUFA/Drivers/USB/Class/Device/../../Core/AVR8/../AVR8/Endpoint_AVR8.h **** 			 *        defined by the preprocessor.
 176:lufa-lib-svn/LUFA/Drivers/USB/Class/Device/../../Core/AVR8/../AVR8/Endpoint_AVR8.h **** 			 *
 177:lufa-lib-svn/LUFA/Drivers/USB/Class/Device/../../Core/AVR8/../AVR8/Endpoint_AVR8.h **** 			 *  \param[in] EPIndex  Endpoint number, a value between 0 and (\ref ENDPOINT_TOTAL_ENDPOINTS - 
 178:lufa-lib-svn/LUFA/Drivers/USB/Class/Device/../../Core/AVR8/../AVR8/Endpoint_AVR8.h **** 			 */
 179:lufa-lib-svn/LUFA/Drivers/USB/Class/Device/../../Core/AVR8/../AVR8/Endpoint_AVR8.h **** 			#define ENDPOINT_MAX_SIZE(EPIndex)              _ENDPOINT_GET_MAXSIZE(EPIndex)
 180:lufa-lib-svn/LUFA/Drivers/USB/Class/Device/../../Core/AVR8/../AVR8/Endpoint_AVR8.h **** 
 181:lufa-lib-svn/LUFA/Drivers/USB/Class/Device/../../Core/AVR8/../AVR8/Endpoint_AVR8.h **** 			/** Retrieves the total number of banks supported by the given endpoint.
 182:lufa-lib-svn/LUFA/Drivers/USB/Class/Device/../../Core/AVR8/../AVR8/Endpoint_AVR8.h **** 			 *
 183:lufa-lib-svn/LUFA/Drivers/USB/Class/Device/../../Core/AVR8/../AVR8/Endpoint_AVR8.h **** 			 *  \note This macro will only work correctly on endpoint indexes that are compile-time constant
 184:lufa-lib-svn/LUFA/Drivers/USB/Class/Device/../../Core/AVR8/../AVR8/Endpoint_AVR8.h **** 			 *        defined by the preprocessor.
 185:lufa-lib-svn/LUFA/Drivers/USB/Class/Device/../../Core/AVR8/../AVR8/Endpoint_AVR8.h **** 			 *
 186:lufa-lib-svn/LUFA/Drivers/USB/Class/Device/../../Core/AVR8/../AVR8/Endpoint_AVR8.h **** 			 *  \param[in] EPIndex  Endpoint number, a value between 0 and (\ref ENDPOINT_TOTAL_ENDPOINTS - 
 187:lufa-lib-svn/LUFA/Drivers/USB/Class/Device/../../Core/AVR8/../AVR8/Endpoint_AVR8.h **** 			 */
 188:lufa-lib-svn/LUFA/Drivers/USB/Class/Device/../../Core/AVR8/../AVR8/Endpoint_AVR8.h **** 			#define ENDPOINT_BANKS_SUPPORTED(EPIndex)       _ENDPOINT_GET_BANKS(EPIndex)
 189:lufa-lib-svn/LUFA/Drivers/USB/Class/Device/../../Core/AVR8/../AVR8/Endpoint_AVR8.h **** 
 190:lufa-lib-svn/LUFA/Drivers/USB/Class/Device/../../Core/AVR8/../AVR8/Endpoint_AVR8.h **** 			#if !defined(CONTROL_ONLY_DEVICE) || defined(__DOXYGEN__)
 191:lufa-lib-svn/LUFA/Drivers/USB/Class/Device/../../Core/AVR8/../AVR8/Endpoint_AVR8.h **** 				/** Total number of endpoints (including the default control endpoint at address 0) which may
 192:lufa-lib-svn/LUFA/Drivers/USB/Class/Device/../../Core/AVR8/../AVR8/Endpoint_AVR8.h **** 				 *  be used in the device. Different USB AVR models support different amounts of endpoints,
 193:lufa-lib-svn/LUFA/Drivers/USB/Class/Device/../../Core/AVR8/../AVR8/Endpoint_AVR8.h **** 				 *  this value reflects the maximum number of endpoints for the currently selected AVR model.
 194:lufa-lib-svn/LUFA/Drivers/USB/Class/Device/../../Core/AVR8/../AVR8/Endpoint_AVR8.h **** 				 */
 195:lufa-lib-svn/LUFA/Drivers/USB/Class/Device/../../Core/AVR8/../AVR8/Endpoint_AVR8.h **** 				#define ENDPOINT_TOTAL_ENDPOINTS            ENDPOINT_DETAILS_MAXEP
 196:lufa-lib-svn/LUFA/Drivers/USB/Class/Device/../../Core/AVR8/../AVR8/Endpoint_AVR8.h **** 			#else
 197:lufa-lib-svn/LUFA/Drivers/USB/Class/Device/../../Core/AVR8/../AVR8/Endpoint_AVR8.h **** 				#define ENDPOINT_TOTAL_ENDPOINTS            1
 198:lufa-lib-svn/LUFA/Drivers/USB/Class/Device/../../Core/AVR8/../AVR8/Endpoint_AVR8.h **** 			#endif
 199:lufa-lib-svn/LUFA/Drivers/USB/Class/Device/../../Core/AVR8/../AVR8/Endpoint_AVR8.h **** 
 200:lufa-lib-svn/LUFA/Drivers/USB/Class/Device/../../Core/AVR8/../AVR8/Endpoint_AVR8.h **** 		/* Enums: */
 201:lufa-lib-svn/LUFA/Drivers/USB/Class/Device/../../Core/AVR8/../AVR8/Endpoint_AVR8.h **** 			/** Enum for the possible error return codes of the \ref Endpoint_WaitUntilReady() function.
 202:lufa-lib-svn/LUFA/Drivers/USB/Class/Device/../../Core/AVR8/../AVR8/Endpoint_AVR8.h **** 			 *
 203:lufa-lib-svn/LUFA/Drivers/USB/Class/Device/../../Core/AVR8/../AVR8/Endpoint_AVR8.h **** 			 *  \ingroup Group_EndpointRW_AVR8
 204:lufa-lib-svn/LUFA/Drivers/USB/Class/Device/../../Core/AVR8/../AVR8/Endpoint_AVR8.h **** 			 */
 205:lufa-lib-svn/LUFA/Drivers/USB/Class/Device/../../Core/AVR8/../AVR8/Endpoint_AVR8.h **** 			enum Endpoint_WaitUntilReady_ErrorCodes_t
 206:lufa-lib-svn/LUFA/Drivers/USB/Class/Device/../../Core/AVR8/../AVR8/Endpoint_AVR8.h **** 			{
 207:lufa-lib-svn/LUFA/Drivers/USB/Class/Device/../../Core/AVR8/../AVR8/Endpoint_AVR8.h **** 				ENDPOINT_READYWAIT_NoError                 = 0, /**< Endpoint is ready for next packet, no erro
 208:lufa-lib-svn/LUFA/Drivers/USB/Class/Device/../../Core/AVR8/../AVR8/Endpoint_AVR8.h **** 				ENDPOINT_READYWAIT_EndpointStalled         = 1, /**< The endpoint was stalled during the stream
 209:lufa-lib-svn/LUFA/Drivers/USB/Class/Device/../../Core/AVR8/../AVR8/Endpoint_AVR8.h **** 				                                                 *   transfer by the host or device.
 210:lufa-lib-svn/LUFA/Drivers/USB/Class/Device/../../Core/AVR8/../AVR8/Endpoint_AVR8.h **** 				                                                 */
 211:lufa-lib-svn/LUFA/Drivers/USB/Class/Device/../../Core/AVR8/../AVR8/Endpoint_AVR8.h **** 				ENDPOINT_READYWAIT_DeviceDisconnected      = 2,	/**< Device was disconnected from the host whil
 212:lufa-lib-svn/LUFA/Drivers/USB/Class/Device/../../Core/AVR8/../AVR8/Endpoint_AVR8.h **** 				                                                 *   waiting for the endpoint to become ready.
 213:lufa-lib-svn/LUFA/Drivers/USB/Class/Device/../../Core/AVR8/../AVR8/Endpoint_AVR8.h **** 				                                                 */
 214:lufa-lib-svn/LUFA/Drivers/USB/Class/Device/../../Core/AVR8/../AVR8/Endpoint_AVR8.h **** 				ENDPOINT_READYWAIT_BusSuspended            = 3, /**< The USB bus has been suspended by the host
 215:lufa-lib-svn/LUFA/Drivers/USB/Class/Device/../../Core/AVR8/../AVR8/Endpoint_AVR8.h **** 				                                                 *   no USB endpoint traffic can occur until th
 216:lufa-lib-svn/LUFA/Drivers/USB/Class/Device/../../Core/AVR8/../AVR8/Endpoint_AVR8.h **** 				                                                 *   has resumed.
 217:lufa-lib-svn/LUFA/Drivers/USB/Class/Device/../../Core/AVR8/../AVR8/Endpoint_AVR8.h **** 				                                                 */
 218:lufa-lib-svn/LUFA/Drivers/USB/Class/Device/../../Core/AVR8/../AVR8/Endpoint_AVR8.h **** 				ENDPOINT_READYWAIT_Timeout                 = 4, /**< The host failed to accept or send the next
 219:lufa-lib-svn/LUFA/Drivers/USB/Class/Device/../../Core/AVR8/../AVR8/Endpoint_AVR8.h **** 				                                                 *   within the software timeout period set by 
 220:lufa-lib-svn/LUFA/Drivers/USB/Class/Device/../../Core/AVR8/../AVR8/Endpoint_AVR8.h **** 				                                                 *   \ref USB_STREAM_TIMEOUT_MS macro.
 221:lufa-lib-svn/LUFA/Drivers/USB/Class/Device/../../Core/AVR8/../AVR8/Endpoint_AVR8.h **** 				                                                 */
 222:lufa-lib-svn/LUFA/Drivers/USB/Class/Device/../../Core/AVR8/../AVR8/Endpoint_AVR8.h **** 				ENDPOINT_READYWAIT_TransmissionInProgress  = 5, /**< The bank for the USB endpoint is currently
 223:lufa-lib-svn/LUFA/Drivers/USB/Class/Device/../../Core/AVR8/../AVR8/Endpoint_AVR8.h ****                                                          *   and can't be written at the moment.
 224:lufa-lib-svn/LUFA/Drivers/USB/Class/Device/../../Core/AVR8/../AVR8/Endpoint_AVR8.h **** 				                                                 */
 225:lufa-lib-svn/LUFA/Drivers/USB/Class/Device/../../Core/AVR8/../AVR8/Endpoint_AVR8.h **** 
 226:lufa-lib-svn/LUFA/Drivers/USB/Class/Device/../../Core/AVR8/../AVR8/Endpoint_AVR8.h **** 			};
 227:lufa-lib-svn/LUFA/Drivers/USB/Class/Device/../../Core/AVR8/../AVR8/Endpoint_AVR8.h **** 
 228:lufa-lib-svn/LUFA/Drivers/USB/Class/Device/../../Core/AVR8/../AVR8/Endpoint_AVR8.h **** 		/* Inline Functions: */
 229:lufa-lib-svn/LUFA/Drivers/USB/Class/Device/../../Core/AVR8/../AVR8/Endpoint_AVR8.h **** 			/** Configures the specified endpoint number with the given endpoint type, direction, bank size
 230:lufa-lib-svn/LUFA/Drivers/USB/Class/Device/../../Core/AVR8/../AVR8/Endpoint_AVR8.h **** 			 *  and banking mode. Once configured, the endpoint may be read from or written to, depending
 231:lufa-lib-svn/LUFA/Drivers/USB/Class/Device/../../Core/AVR8/../AVR8/Endpoint_AVR8.h **** 			 *  on its direction.
 232:lufa-lib-svn/LUFA/Drivers/USB/Class/Device/../../Core/AVR8/../AVR8/Endpoint_AVR8.h **** 			 *
 233:lufa-lib-svn/LUFA/Drivers/USB/Class/Device/../../Core/AVR8/../AVR8/Endpoint_AVR8.h **** 			 *  \param[in] Number     Endpoint number to configure. This must be more than 0 and less than
 234:lufa-lib-svn/LUFA/Drivers/USB/Class/Device/../../Core/AVR8/../AVR8/Endpoint_AVR8.h **** 			 *                        \ref ENDPOINT_TOTAL_ENDPOINTS.
 235:lufa-lib-svn/LUFA/Drivers/USB/Class/Device/../../Core/AVR8/../AVR8/Endpoint_AVR8.h **** 			 *
 236:lufa-lib-svn/LUFA/Drivers/USB/Class/Device/../../Core/AVR8/../AVR8/Endpoint_AVR8.h **** 			 *  \param[in] Type       Type of endpoint to configure, a \c EP_TYPE_* mask. Not all endpoint t
 237:lufa-lib-svn/LUFA/Drivers/USB/Class/Device/../../Core/AVR8/../AVR8/Endpoint_AVR8.h **** 			 *                        are available on Low Speed USB devices - refer to the USB 2.0 specific
 238:lufa-lib-svn/LUFA/Drivers/USB/Class/Device/../../Core/AVR8/../AVR8/Endpoint_AVR8.h **** 			 *
 239:lufa-lib-svn/LUFA/Drivers/USB/Class/Device/../../Core/AVR8/../AVR8/Endpoint_AVR8.h **** 			 *  \param[in] Direction  Endpoint data direction, either \ref ENDPOINT_DIR_OUT or \ref ENDPOINT
 240:lufa-lib-svn/LUFA/Drivers/USB/Class/Device/../../Core/AVR8/../AVR8/Endpoint_AVR8.h **** 			 *                        All endpoints (except Control type) are unidirectional - data may only
 241:lufa-lib-svn/LUFA/Drivers/USB/Class/Device/../../Core/AVR8/../AVR8/Endpoint_AVR8.h **** 			 *                        from or written to the endpoint bank based on its direction, not both.
 242:lufa-lib-svn/LUFA/Drivers/USB/Class/Device/../../Core/AVR8/../AVR8/Endpoint_AVR8.h **** 			 *
 243:lufa-lib-svn/LUFA/Drivers/USB/Class/Device/../../Core/AVR8/../AVR8/Endpoint_AVR8.h **** 			 *  \param[in] Size       Size of the endpoint's bank, where packets are stored before they are 
 244:lufa-lib-svn/LUFA/Drivers/USB/Class/Device/../../Core/AVR8/../AVR8/Endpoint_AVR8.h **** 			 *                        to the USB host, or after they have been received from the USB host (d
 245:lufa-lib-svn/LUFA/Drivers/USB/Class/Device/../../Core/AVR8/../AVR8/Endpoint_AVR8.h **** 			 *                        the endpoint's data direction). The bank size must indicate the maximu
 246:lufa-lib-svn/LUFA/Drivers/USB/Class/Device/../../Core/AVR8/../AVR8/Endpoint_AVR8.h **** 			 *                        that the endpoint can handle.
 247:lufa-lib-svn/LUFA/Drivers/USB/Class/Device/../../Core/AVR8/../AVR8/Endpoint_AVR8.h **** 			 *
 248:lufa-lib-svn/LUFA/Drivers/USB/Class/Device/../../Core/AVR8/../AVR8/Endpoint_AVR8.h **** 			 *  \param[in] Banks      Number of banks to use for the endpoint being configured, an \c ENDPOI
 249:lufa-lib-svn/LUFA/Drivers/USB/Class/Device/../../Core/AVR8/../AVR8/Endpoint_AVR8.h **** 			 *                        More banks uses more USB DPRAM, but offers better performance. Isochro
 250:lufa-lib-svn/LUFA/Drivers/USB/Class/Device/../../Core/AVR8/../AVR8/Endpoint_AVR8.h **** 			 *                        endpoints <b>must</b> have at least two banks.
 251:lufa-lib-svn/LUFA/Drivers/USB/Class/Device/../../Core/AVR8/../AVR8/Endpoint_AVR8.h **** 			 *
 252:lufa-lib-svn/LUFA/Drivers/USB/Class/Device/../../Core/AVR8/../AVR8/Endpoint_AVR8.h **** 			 *  \note When the \c ORDERED_EP_CONFIG compile time option is used, Endpoints <b>must</b> be co
 253:lufa-lib-svn/LUFA/Drivers/USB/Class/Device/../../Core/AVR8/../AVR8/Endpoint_AVR8.h **** 			 *        ascending order, or bank corruption will occur.
 254:lufa-lib-svn/LUFA/Drivers/USB/Class/Device/../../Core/AVR8/../AVR8/Endpoint_AVR8.h **** 			 *        \n\n
 255:lufa-lib-svn/LUFA/Drivers/USB/Class/Device/../../Core/AVR8/../AVR8/Endpoint_AVR8.h **** 			 *
 256:lufa-lib-svn/LUFA/Drivers/USB/Class/Device/../../Core/AVR8/../AVR8/Endpoint_AVR8.h **** 			 *  \note Different endpoints may have different maximum packet sizes based on the endpoint's in
 257:lufa-lib-svn/LUFA/Drivers/USB/Class/Device/../../Core/AVR8/../AVR8/Endpoint_AVR8.h **** 			 *        the chosen microcontroller model's datasheet to determine the maximum bank size for ea
 258:lufa-lib-svn/LUFA/Drivers/USB/Class/Device/../../Core/AVR8/../AVR8/Endpoint_AVR8.h **** 			 *        \n\n
 259:lufa-lib-svn/LUFA/Drivers/USB/Class/Device/../../Core/AVR8/../AVR8/Endpoint_AVR8.h **** 			 *
 260:lufa-lib-svn/LUFA/Drivers/USB/Class/Device/../../Core/AVR8/../AVR8/Endpoint_AVR8.h **** 			 *  \note The default control endpoint should not be manually configured by the user application
 261:lufa-lib-svn/LUFA/Drivers/USB/Class/Device/../../Core/AVR8/../AVR8/Endpoint_AVR8.h **** 			 *        it is automatically configured by the library internally.
 262:lufa-lib-svn/LUFA/Drivers/USB/Class/Device/../../Core/AVR8/../AVR8/Endpoint_AVR8.h **** 			 *        \n\n
 263:lufa-lib-svn/LUFA/Drivers/USB/Class/Device/../../Core/AVR8/../AVR8/Endpoint_AVR8.h **** 			 *
 264:lufa-lib-svn/LUFA/Drivers/USB/Class/Device/../../Core/AVR8/../AVR8/Endpoint_AVR8.h **** 			 *  \note This routine will automatically select the specified endpoint upon success. Upon failu
 265:lufa-lib-svn/LUFA/Drivers/USB/Class/Device/../../Core/AVR8/../AVR8/Endpoint_AVR8.h **** 			 *        which failed to reconfigure correctly will be selected.
 266:lufa-lib-svn/LUFA/Drivers/USB/Class/Device/../../Core/AVR8/../AVR8/Endpoint_AVR8.h **** 			 *
 267:lufa-lib-svn/LUFA/Drivers/USB/Class/Device/../../Core/AVR8/../AVR8/Endpoint_AVR8.h **** 			 *  \return Boolean \c true if the configuration succeeded, \c false otherwise.
 268:lufa-lib-svn/LUFA/Drivers/USB/Class/Device/../../Core/AVR8/../AVR8/Endpoint_AVR8.h **** 			 */
 269:lufa-lib-svn/LUFA/Drivers/USB/Class/Device/../../Core/AVR8/../AVR8/Endpoint_AVR8.h **** 			static inline bool Endpoint_ConfigureEndpoint(const uint8_t Number,
 270:lufa-lib-svn/LUFA/Drivers/USB/Class/Device/../../Core/AVR8/../AVR8/Endpoint_AVR8.h **** 			                                              const uint8_t Type,
 271:lufa-lib-svn/LUFA/Drivers/USB/Class/Device/../../Core/AVR8/../AVR8/Endpoint_AVR8.h **** 			                                              const uint8_t Direction,
 272:lufa-lib-svn/LUFA/Drivers/USB/Class/Device/../../Core/AVR8/../AVR8/Endpoint_AVR8.h **** 			                                              const uint16_t Size,
 273:lufa-lib-svn/LUFA/Drivers/USB/Class/Device/../../Core/AVR8/../AVR8/Endpoint_AVR8.h **** 			                                              const uint8_t Banks) ATTR_ALWAYS_INLINE;
 274:lufa-lib-svn/LUFA/Drivers/USB/Class/Device/../../Core/AVR8/../AVR8/Endpoint_AVR8.h **** 			static inline bool Endpoint_ConfigureEndpoint(const uint8_t Number,
 275:lufa-lib-svn/LUFA/Drivers/USB/Class/Device/../../Core/AVR8/../AVR8/Endpoint_AVR8.h **** 			                                              const uint8_t Type,
 276:lufa-lib-svn/LUFA/Drivers/USB/Class/Device/../../Core/AVR8/../AVR8/Endpoint_AVR8.h **** 			                                              const uint8_t Direction,
 277:lufa-lib-svn/LUFA/Drivers/USB/Class/Device/../../Core/AVR8/../AVR8/Endpoint_AVR8.h **** 			                                              const uint16_t Size,
 278:lufa-lib-svn/LUFA/Drivers/USB/Class/Device/../../Core/AVR8/../AVR8/Endpoint_AVR8.h **** 			                                              const uint8_t Banks)
 279:lufa-lib-svn/LUFA/Drivers/USB/Class/Device/../../Core/AVR8/../AVR8/Endpoint_AVR8.h **** 			{
 280:lufa-lib-svn/LUFA/Drivers/USB/Class/Device/../../Core/AVR8/../AVR8/Endpoint_AVR8.h **** 				return Endpoint_ConfigureEndpoint_Prv(Number, ((Type << EPTYPE0) | (Direction ? (1 << EPDIR) : 
 281:lufa-lib-svn/LUFA/Drivers/USB/Class/Device/../../Core/AVR8/../AVR8/Endpoint_AVR8.h **** 				                                      ((1 << ALLOC) | Banks | Endpoint_BytesToEPSizeMask(Size))
 282:lufa-lib-svn/LUFA/Drivers/USB/Class/Device/../../Core/AVR8/../AVR8/Endpoint_AVR8.h **** 			}
 283:lufa-lib-svn/LUFA/Drivers/USB/Class/Device/../../Core/AVR8/../AVR8/Endpoint_AVR8.h **** 
 284:lufa-lib-svn/LUFA/Drivers/USB/Class/Device/../../Core/AVR8/../AVR8/Endpoint_AVR8.h **** 			/** Indicates the number of bytes currently stored in the current endpoint's selected bank.
 285:lufa-lib-svn/LUFA/Drivers/USB/Class/Device/../../Core/AVR8/../AVR8/Endpoint_AVR8.h **** 			 *
 286:lufa-lib-svn/LUFA/Drivers/USB/Class/Device/../../Core/AVR8/../AVR8/Endpoint_AVR8.h **** 			 *  \note The return width of this function may differ, depending on the maximum endpoint bank s
 287:lufa-lib-svn/LUFA/Drivers/USB/Class/Device/../../Core/AVR8/../AVR8/Endpoint_AVR8.h **** 			 *        of the selected AVR model.
 288:lufa-lib-svn/LUFA/Drivers/USB/Class/Device/../../Core/AVR8/../AVR8/Endpoint_AVR8.h **** 			 *
 289:lufa-lib-svn/LUFA/Drivers/USB/Class/Device/../../Core/AVR8/../AVR8/Endpoint_AVR8.h **** 			 *  \ingroup Group_EndpointRW_AVR8
 290:lufa-lib-svn/LUFA/Drivers/USB/Class/Device/../../Core/AVR8/../AVR8/Endpoint_AVR8.h **** 			 *
 291:lufa-lib-svn/LUFA/Drivers/USB/Class/Device/../../Core/AVR8/../AVR8/Endpoint_AVR8.h **** 			 *  \return Total number of bytes in the currently selected Endpoint's FIFO buffer.
 292:lufa-lib-svn/LUFA/Drivers/USB/Class/Device/../../Core/AVR8/../AVR8/Endpoint_AVR8.h **** 			 */
 293:lufa-lib-svn/LUFA/Drivers/USB/Class/Device/../../Core/AVR8/../AVR8/Endpoint_AVR8.h **** 			static inline uint16_t Endpoint_BytesInEndpoint(void) ATTR_WARN_UNUSED_RESULT ATTR_ALWAYS_INLINE
 294:lufa-lib-svn/LUFA/Drivers/USB/Class/Device/../../Core/AVR8/../AVR8/Endpoint_AVR8.h **** 			static inline uint16_t Endpoint_BytesInEndpoint(void)
 295:lufa-lib-svn/LUFA/Drivers/USB/Class/Device/../../Core/AVR8/../AVR8/Endpoint_AVR8.h **** 			{
 296:lufa-lib-svn/LUFA/Drivers/USB/Class/Device/../../Core/AVR8/../AVR8/Endpoint_AVR8.h **** 				#if defined(USB_SERIES_6_AVR) || defined(USB_SERIES_7_AVR)
 297:lufa-lib-svn/LUFA/Drivers/USB/Class/Device/../../Core/AVR8/../AVR8/Endpoint_AVR8.h **** 					return UEBCX;
 298:lufa-lib-svn/LUFA/Drivers/USB/Class/Device/../../Core/AVR8/../AVR8/Endpoint_AVR8.h **** 				#elif defined(USB_SERIES_4_AVR)
 299:lufa-lib-svn/LUFA/Drivers/USB/Class/Device/../../Core/AVR8/../AVR8/Endpoint_AVR8.h **** 					return (((uint16_t)UEBCHX << 8) | UEBCLX);
 300:lufa-lib-svn/LUFA/Drivers/USB/Class/Device/../../Core/AVR8/../AVR8/Endpoint_AVR8.h **** 				#elif defined(USB_SERIES_2_AVR)
 301:lufa-lib-svn/LUFA/Drivers/USB/Class/Device/../../Core/AVR8/../AVR8/Endpoint_AVR8.h **** 					return UEBCLX;
 302:lufa-lib-svn/LUFA/Drivers/USB/Class/Device/../../Core/AVR8/../AVR8/Endpoint_AVR8.h **** 				#endif
 303:lufa-lib-svn/LUFA/Drivers/USB/Class/Device/../../Core/AVR8/../AVR8/Endpoint_AVR8.h **** 			}
 304:lufa-lib-svn/LUFA/Drivers/USB/Class/Device/../../Core/AVR8/../AVR8/Endpoint_AVR8.h **** 
 305:lufa-lib-svn/LUFA/Drivers/USB/Class/Device/../../Core/AVR8/../AVR8/Endpoint_AVR8.h **** 			/** Get the endpoint address of the currently selected endpoint. This is typically used to save
 306:lufa-lib-svn/LUFA/Drivers/USB/Class/Device/../../Core/AVR8/../AVR8/Endpoint_AVR8.h **** 			 *  the currently selected endpoint number so that it can be restored after another endpoint has
 307:lufa-lib-svn/LUFA/Drivers/USB/Class/Device/../../Core/AVR8/../AVR8/Endpoint_AVR8.h **** 			 *  been manipulated.
 308:lufa-lib-svn/LUFA/Drivers/USB/Class/Device/../../Core/AVR8/../AVR8/Endpoint_AVR8.h **** 			 *
 309:lufa-lib-svn/LUFA/Drivers/USB/Class/Device/../../Core/AVR8/../AVR8/Endpoint_AVR8.h **** 			 *  \return Index of the currently selected endpoint.
 310:lufa-lib-svn/LUFA/Drivers/USB/Class/Device/../../Core/AVR8/../AVR8/Endpoint_AVR8.h **** 			 */
 311:lufa-lib-svn/LUFA/Drivers/USB/Class/Device/../../Core/AVR8/../AVR8/Endpoint_AVR8.h **** 			static inline uint8_t Endpoint_GetCurrentEndpoint(void) ATTR_WARN_UNUSED_RESULT ATTR_ALWAYS_INLI
 312:lufa-lib-svn/LUFA/Drivers/USB/Class/Device/../../Core/AVR8/../AVR8/Endpoint_AVR8.h **** 			static inline uint8_t Endpoint_GetCurrentEndpoint(void)
 313:lufa-lib-svn/LUFA/Drivers/USB/Class/Device/../../Core/AVR8/../AVR8/Endpoint_AVR8.h **** 			{
 314:lufa-lib-svn/LUFA/Drivers/USB/Class/Device/../../Core/AVR8/../AVR8/Endpoint_AVR8.h **** 				#if !defined(CONTROL_ONLY_DEVICE)
 315:lufa-lib-svn/LUFA/Drivers/USB/Class/Device/../../Core/AVR8/../AVR8/Endpoint_AVR8.h **** 					return (UENUM & ENDPOINT_EPNUM_MASK);
 316:lufa-lib-svn/LUFA/Drivers/USB/Class/Device/../../Core/AVR8/../AVR8/Endpoint_AVR8.h **** 				#else
 317:lufa-lib-svn/LUFA/Drivers/USB/Class/Device/../../Core/AVR8/../AVR8/Endpoint_AVR8.h **** 					return ENDPOINT_CONTROLEP;
 318:lufa-lib-svn/LUFA/Drivers/USB/Class/Device/../../Core/AVR8/../AVR8/Endpoint_AVR8.h **** 				#endif
 319:lufa-lib-svn/LUFA/Drivers/USB/Class/Device/../../Core/AVR8/../AVR8/Endpoint_AVR8.h **** 			}
 320:lufa-lib-svn/LUFA/Drivers/USB/Class/Device/../../Core/AVR8/../AVR8/Endpoint_AVR8.h **** 
 321:lufa-lib-svn/LUFA/Drivers/USB/Class/Device/../../Core/AVR8/../AVR8/Endpoint_AVR8.h **** 			/** Selects the given endpoint number. If the address from the device descriptors is used, the
 322:lufa-lib-svn/LUFA/Drivers/USB/Class/Device/../../Core/AVR8/../AVR8/Endpoint_AVR8.h **** 			 *  value should be masked with the \ref ENDPOINT_EPNUM_MASK constant to extract only the endpoi
 323:lufa-lib-svn/LUFA/Drivers/USB/Class/Device/../../Core/AVR8/../AVR8/Endpoint_AVR8.h **** 			 *  number (and discarding the endpoint direction bit).
 324:lufa-lib-svn/LUFA/Drivers/USB/Class/Device/../../Core/AVR8/../AVR8/Endpoint_AVR8.h **** 			 *
 325:lufa-lib-svn/LUFA/Drivers/USB/Class/Device/../../Core/AVR8/../AVR8/Endpoint_AVR8.h **** 			 *  Any endpoint operations which do not require the endpoint number to be indicated will operat
 326:lufa-lib-svn/LUFA/Drivers/USB/Class/Device/../../Core/AVR8/../AVR8/Endpoint_AVR8.h **** 			 *  the currently selected endpoint.
 327:lufa-lib-svn/LUFA/Drivers/USB/Class/Device/../../Core/AVR8/../AVR8/Endpoint_AVR8.h **** 			 *
 328:lufa-lib-svn/LUFA/Drivers/USB/Class/Device/../../Core/AVR8/../AVR8/Endpoint_AVR8.h **** 			 *  \param[in] EndpointNumber Endpoint number to select.
 329:lufa-lib-svn/LUFA/Drivers/USB/Class/Device/../../Core/AVR8/../AVR8/Endpoint_AVR8.h **** 			 */
 330:lufa-lib-svn/LUFA/Drivers/USB/Class/Device/../../Core/AVR8/../AVR8/Endpoint_AVR8.h **** 			static inline void Endpoint_SelectEndpoint(const uint8_t EndpointNumber) ATTR_ALWAYS_INLINE;
 331:lufa-lib-svn/LUFA/Drivers/USB/Class/Device/../../Core/AVR8/../AVR8/Endpoint_AVR8.h **** 			static inline void Endpoint_SelectEndpoint(const uint8_t EndpointNumber)
 332:lufa-lib-svn/LUFA/Drivers/USB/Class/Device/../../Core/AVR8/../AVR8/Endpoint_AVR8.h **** 			{
 333:lufa-lib-svn/LUFA/Drivers/USB/Class/Device/../../Core/AVR8/../AVR8/Endpoint_AVR8.h **** 				#if !defined(CONTROL_ONLY_DEVICE)
 334:lufa-lib-svn/LUFA/Drivers/USB/Class/Device/../../Core/AVR8/../AVR8/Endpoint_AVR8.h **** 					UENUM = EndpointNumber;
 335:lufa-lib-svn/LUFA/Drivers/USB/Class/Device/../../Core/AVR8/../AVR8/Endpoint_AVR8.h **** 				#endif
 336:lufa-lib-svn/LUFA/Drivers/USB/Class/Device/../../Core/AVR8/../AVR8/Endpoint_AVR8.h **** 			}
 337:lufa-lib-svn/LUFA/Drivers/USB/Class/Device/../../Core/AVR8/../AVR8/Endpoint_AVR8.h **** 
 338:lufa-lib-svn/LUFA/Drivers/USB/Class/Device/../../Core/AVR8/../AVR8/Endpoint_AVR8.h **** 			/** Resets the endpoint bank FIFO. This clears all the endpoint banks and resets the USB control
 339:lufa-lib-svn/LUFA/Drivers/USB/Class/Device/../../Core/AVR8/../AVR8/Endpoint_AVR8.h **** 			 *  data In and Out pointers to the bank's contents.
 340:lufa-lib-svn/LUFA/Drivers/USB/Class/Device/../../Core/AVR8/../AVR8/Endpoint_AVR8.h **** 			 *
 341:lufa-lib-svn/LUFA/Drivers/USB/Class/Device/../../Core/AVR8/../AVR8/Endpoint_AVR8.h **** 			 *  \param[in] EndpointNumber Endpoint number whose FIFO buffers are to be reset.
 342:lufa-lib-svn/LUFA/Drivers/USB/Class/Device/../../Core/AVR8/../AVR8/Endpoint_AVR8.h **** 			 */
 343:lufa-lib-svn/LUFA/Drivers/USB/Class/Device/../../Core/AVR8/../AVR8/Endpoint_AVR8.h **** 			static inline void Endpoint_ResetEndpoint(const uint8_t EndpointNumber) ATTR_ALWAYS_INLINE;
 344:lufa-lib-svn/LUFA/Drivers/USB/Class/Device/../../Core/AVR8/../AVR8/Endpoint_AVR8.h **** 			static inline void Endpoint_ResetEndpoint(const uint8_t EndpointNumber)
 345:lufa-lib-svn/LUFA/Drivers/USB/Class/Device/../../Core/AVR8/../AVR8/Endpoint_AVR8.h **** 			{
 346:lufa-lib-svn/LUFA/Drivers/USB/Class/Device/../../Core/AVR8/../AVR8/Endpoint_AVR8.h **** 				UERST = (1 << EndpointNumber);
 347:lufa-lib-svn/LUFA/Drivers/USB/Class/Device/../../Core/AVR8/../AVR8/Endpoint_AVR8.h **** 				UERST = 0;
 348:lufa-lib-svn/LUFA/Drivers/USB/Class/Device/../../Core/AVR8/../AVR8/Endpoint_AVR8.h **** 			}
 349:lufa-lib-svn/LUFA/Drivers/USB/Class/Device/../../Core/AVR8/../AVR8/Endpoint_AVR8.h **** 
 350:lufa-lib-svn/LUFA/Drivers/USB/Class/Device/../../Core/AVR8/../AVR8/Endpoint_AVR8.h **** 			/** Enables the currently selected endpoint so that data can be sent and received through it to
 351:lufa-lib-svn/LUFA/Drivers/USB/Class/Device/../../Core/AVR8/../AVR8/Endpoint_AVR8.h **** 			 *  and from a host.
 352:lufa-lib-svn/LUFA/Drivers/USB/Class/Device/../../Core/AVR8/../AVR8/Endpoint_AVR8.h **** 			 *
 353:lufa-lib-svn/LUFA/Drivers/USB/Class/Device/../../Core/AVR8/../AVR8/Endpoint_AVR8.h **** 			 *  \note Endpoints must first be configured properly via \ref Endpoint_ConfigureEndpoint().
 354:lufa-lib-svn/LUFA/Drivers/USB/Class/Device/../../Core/AVR8/../AVR8/Endpoint_AVR8.h **** 			 */
 355:lufa-lib-svn/LUFA/Drivers/USB/Class/Device/../../Core/AVR8/../AVR8/Endpoint_AVR8.h **** 			static inline void Endpoint_EnableEndpoint(void) ATTR_ALWAYS_INLINE;
 356:lufa-lib-svn/LUFA/Drivers/USB/Class/Device/../../Core/AVR8/../AVR8/Endpoint_AVR8.h **** 			static inline void Endpoint_EnableEndpoint(void)
 357:lufa-lib-svn/LUFA/Drivers/USB/Class/Device/../../Core/AVR8/../AVR8/Endpoint_AVR8.h **** 			{
 358:lufa-lib-svn/LUFA/Drivers/USB/Class/Device/../../Core/AVR8/../AVR8/Endpoint_AVR8.h **** 				UECONX |= (1 << EPEN);
 359:lufa-lib-svn/LUFA/Drivers/USB/Class/Device/../../Core/AVR8/../AVR8/Endpoint_AVR8.h **** 			}
 360:lufa-lib-svn/LUFA/Drivers/USB/Class/Device/../../Core/AVR8/../AVR8/Endpoint_AVR8.h **** 
 361:lufa-lib-svn/LUFA/Drivers/USB/Class/Device/../../Core/AVR8/../AVR8/Endpoint_AVR8.h **** 			/** Disables the currently selected endpoint so that data cannot be sent and received through it
 362:lufa-lib-svn/LUFA/Drivers/USB/Class/Device/../../Core/AVR8/../AVR8/Endpoint_AVR8.h **** 			 *  to and from a host.
 363:lufa-lib-svn/LUFA/Drivers/USB/Class/Device/../../Core/AVR8/../AVR8/Endpoint_AVR8.h **** 			 */
 364:lufa-lib-svn/LUFA/Drivers/USB/Class/Device/../../Core/AVR8/../AVR8/Endpoint_AVR8.h **** 			static inline void Endpoint_DisableEndpoint(void) ATTR_ALWAYS_INLINE;
 365:lufa-lib-svn/LUFA/Drivers/USB/Class/Device/../../Core/AVR8/../AVR8/Endpoint_AVR8.h **** 			static inline void Endpoint_DisableEndpoint(void)
 366:lufa-lib-svn/LUFA/Drivers/USB/Class/Device/../../Core/AVR8/../AVR8/Endpoint_AVR8.h **** 			{
 367:lufa-lib-svn/LUFA/Drivers/USB/Class/Device/../../Core/AVR8/../AVR8/Endpoint_AVR8.h **** 				UECONX &= ~(1 << EPEN);
 368:lufa-lib-svn/LUFA/Drivers/USB/Class/Device/../../Core/AVR8/../AVR8/Endpoint_AVR8.h **** 			}
 369:lufa-lib-svn/LUFA/Drivers/USB/Class/Device/../../Core/AVR8/../AVR8/Endpoint_AVR8.h **** 
 370:lufa-lib-svn/LUFA/Drivers/USB/Class/Device/../../Core/AVR8/../AVR8/Endpoint_AVR8.h **** 			/** Determines if the currently selected endpoint is enabled, but not necessarily configured.
 371:lufa-lib-svn/LUFA/Drivers/USB/Class/Device/../../Core/AVR8/../AVR8/Endpoint_AVR8.h **** 			 *
 372:lufa-lib-svn/LUFA/Drivers/USB/Class/Device/../../Core/AVR8/../AVR8/Endpoint_AVR8.h **** 			 * \return Boolean \c true if the currently selected endpoint is enabled, \c false otherwise.
 373:lufa-lib-svn/LUFA/Drivers/USB/Class/Device/../../Core/AVR8/../AVR8/Endpoint_AVR8.h **** 			 */
 374:lufa-lib-svn/LUFA/Drivers/USB/Class/Device/../../Core/AVR8/../AVR8/Endpoint_AVR8.h **** 			static inline bool Endpoint_IsEnabled(void) ATTR_WARN_UNUSED_RESULT ATTR_ALWAYS_INLINE;
 375:lufa-lib-svn/LUFA/Drivers/USB/Class/Device/../../Core/AVR8/../AVR8/Endpoint_AVR8.h **** 			static inline bool Endpoint_IsEnabled(void)
 376:lufa-lib-svn/LUFA/Drivers/USB/Class/Device/../../Core/AVR8/../AVR8/Endpoint_AVR8.h **** 			{
 377:lufa-lib-svn/LUFA/Drivers/USB/Class/Device/../../Core/AVR8/../AVR8/Endpoint_AVR8.h **** 				return ((UECONX & (1 << EPEN)) ? true : false);
 378:lufa-lib-svn/LUFA/Drivers/USB/Class/Device/../../Core/AVR8/../AVR8/Endpoint_AVR8.h **** 			}
 379:lufa-lib-svn/LUFA/Drivers/USB/Class/Device/../../Core/AVR8/../AVR8/Endpoint_AVR8.h **** 
 380:lufa-lib-svn/LUFA/Drivers/USB/Class/Device/../../Core/AVR8/../AVR8/Endpoint_AVR8.h **** 			/** Retrieves the number of busy banks in the currently selected endpoint, which have been queue
 381:lufa-lib-svn/LUFA/Drivers/USB/Class/Device/../../Core/AVR8/../AVR8/Endpoint_AVR8.h **** 			 *  transmission via the \ref Endpoint_ClearIN() command, or are awaiting acknowledgement via th
 382:lufa-lib-svn/LUFA/Drivers/USB/Class/Device/../../Core/AVR8/../AVR8/Endpoint_AVR8.h **** 			 *  \ref Endpoint_ClearOUT() command.
 383:lufa-lib-svn/LUFA/Drivers/USB/Class/Device/../../Core/AVR8/../AVR8/Endpoint_AVR8.h **** 			 *
 384:lufa-lib-svn/LUFA/Drivers/USB/Class/Device/../../Core/AVR8/../AVR8/Endpoint_AVR8.h **** 			 *  \ingroup Group_EndpointPacketManagement_AVR8
 385:lufa-lib-svn/LUFA/Drivers/USB/Class/Device/../../Core/AVR8/../AVR8/Endpoint_AVR8.h **** 			 *
 386:lufa-lib-svn/LUFA/Drivers/USB/Class/Device/../../Core/AVR8/../AVR8/Endpoint_AVR8.h **** 			 *  \return Total number of busy banks in the selected endpoint.
 387:lufa-lib-svn/LUFA/Drivers/USB/Class/Device/../../Core/AVR8/../AVR8/Endpoint_AVR8.h **** 			 */
 388:lufa-lib-svn/LUFA/Drivers/USB/Class/Device/../../Core/AVR8/../AVR8/Endpoint_AVR8.h **** 			static inline uint8_t Endpoint_GetBusyBanks(void) ATTR_ALWAYS_INLINE ATTR_WARN_UNUSED_RESULT;
 389:lufa-lib-svn/LUFA/Drivers/USB/Class/Device/../../Core/AVR8/../AVR8/Endpoint_AVR8.h **** 			static inline uint8_t Endpoint_GetBusyBanks(void)
 390:lufa-lib-svn/LUFA/Drivers/USB/Class/Device/../../Core/AVR8/../AVR8/Endpoint_AVR8.h **** 			{
 391:lufa-lib-svn/LUFA/Drivers/USB/Class/Device/../../Core/AVR8/../AVR8/Endpoint_AVR8.h **** 				return (UESTA0X & (0x03 << NBUSYBK0));
 392:lufa-lib-svn/LUFA/Drivers/USB/Class/Device/../../Core/AVR8/../AVR8/Endpoint_AVR8.h **** 			}
 393:lufa-lib-svn/LUFA/Drivers/USB/Class/Device/../../Core/AVR8/../AVR8/Endpoint_AVR8.h **** 
 394:lufa-lib-svn/LUFA/Drivers/USB/Class/Device/../../Core/AVR8/../AVR8/Endpoint_AVR8.h **** 			/** Aborts all pending IN transactions on the currently selected endpoint, once the bank
 395:lufa-lib-svn/LUFA/Drivers/USB/Class/Device/../../Core/AVR8/../AVR8/Endpoint_AVR8.h **** 			 *  has been queued for transmission to the host via \ref Endpoint_ClearIN(). This function
 396:lufa-lib-svn/LUFA/Drivers/USB/Class/Device/../../Core/AVR8/../AVR8/Endpoint_AVR8.h **** 			 *  will terminate all queued transactions, resetting the endpoint banks ready for a new
 397:lufa-lib-svn/LUFA/Drivers/USB/Class/Device/../../Core/AVR8/../AVR8/Endpoint_AVR8.h **** 			 *  packet.
 398:lufa-lib-svn/LUFA/Drivers/USB/Class/Device/../../Core/AVR8/../AVR8/Endpoint_AVR8.h **** 			 *
 399:lufa-lib-svn/LUFA/Drivers/USB/Class/Device/../../Core/AVR8/../AVR8/Endpoint_AVR8.h **** 			 *  \ingroup Group_EndpointPacketManagement_AVR8
 400:lufa-lib-svn/LUFA/Drivers/USB/Class/Device/../../Core/AVR8/../AVR8/Endpoint_AVR8.h **** 			 */
 401:lufa-lib-svn/LUFA/Drivers/USB/Class/Device/../../Core/AVR8/../AVR8/Endpoint_AVR8.h **** 			static inline void Endpoint_AbortPendingIN(void)
 402:lufa-lib-svn/LUFA/Drivers/USB/Class/Device/../../Core/AVR8/../AVR8/Endpoint_AVR8.h **** 			{
 403:lufa-lib-svn/LUFA/Drivers/USB/Class/Device/../../Core/AVR8/../AVR8/Endpoint_AVR8.h **** 				while (Endpoint_GetBusyBanks() != 0)
 404:lufa-lib-svn/LUFA/Drivers/USB/Class/Device/../../Core/AVR8/../AVR8/Endpoint_AVR8.h **** 				{
 405:lufa-lib-svn/LUFA/Drivers/USB/Class/Device/../../Core/AVR8/../AVR8/Endpoint_AVR8.h **** 					UEINTX |= (1 << RXOUTI);
 406:lufa-lib-svn/LUFA/Drivers/USB/Class/Device/../../Core/AVR8/../AVR8/Endpoint_AVR8.h **** 					while (UEINTX & (1 << RXOUTI));
 407:lufa-lib-svn/LUFA/Drivers/USB/Class/Device/../../Core/AVR8/../AVR8/Endpoint_AVR8.h **** 				}
 408:lufa-lib-svn/LUFA/Drivers/USB/Class/Device/../../Core/AVR8/../AVR8/Endpoint_AVR8.h **** 			}
 409:lufa-lib-svn/LUFA/Drivers/USB/Class/Device/../../Core/AVR8/../AVR8/Endpoint_AVR8.h **** 
 410:lufa-lib-svn/LUFA/Drivers/USB/Class/Device/../../Core/AVR8/../AVR8/Endpoint_AVR8.h **** 			/** Determines if the currently selected endpoint may be read from (if data is waiting in the en
 411:lufa-lib-svn/LUFA/Drivers/USB/Class/Device/../../Core/AVR8/../AVR8/Endpoint_AVR8.h **** 			 *  bank and the endpoint is an OUT direction, or if the bank is not yet full if the endpoint is
 412:lufa-lib-svn/LUFA/Drivers/USB/Class/Device/../../Core/AVR8/../AVR8/Endpoint_AVR8.h **** 			 *  direction). This function will return false if an error has occurred in the endpoint, if the
 413:lufa-lib-svn/LUFA/Drivers/USB/Class/Device/../../Core/AVR8/../AVR8/Endpoint_AVR8.h **** 			 *  is an OUT direction and no packet (or an empty packet) has been received, or if the endpoint
 414:lufa-lib-svn/LUFA/Drivers/USB/Class/Device/../../Core/AVR8/../AVR8/Endpoint_AVR8.h **** 			 *  direction and the endpoint bank is full.
 415:lufa-lib-svn/LUFA/Drivers/USB/Class/Device/../../Core/AVR8/../AVR8/Endpoint_AVR8.h **** 			 *
 416:lufa-lib-svn/LUFA/Drivers/USB/Class/Device/../../Core/AVR8/../AVR8/Endpoint_AVR8.h **** 			 *  \ingroup Group_EndpointPacketManagement_AVR8
 417:lufa-lib-svn/LUFA/Drivers/USB/Class/Device/../../Core/AVR8/../AVR8/Endpoint_AVR8.h **** 			 *
 418:lufa-lib-svn/LUFA/Drivers/USB/Class/Device/../../Core/AVR8/../AVR8/Endpoint_AVR8.h **** 			 *  \return Boolean \c true if the currently selected endpoint may be read from or written to, d
 419:lufa-lib-svn/LUFA/Drivers/USB/Class/Device/../../Core/AVR8/../AVR8/Endpoint_AVR8.h **** 			 *          on its direction.
 420:lufa-lib-svn/LUFA/Drivers/USB/Class/Device/../../Core/AVR8/../AVR8/Endpoint_AVR8.h **** 			 */
 421:lufa-lib-svn/LUFA/Drivers/USB/Class/Device/../../Core/AVR8/../AVR8/Endpoint_AVR8.h **** 			static inline bool Endpoint_IsReadWriteAllowed(void) ATTR_WARN_UNUSED_RESULT ATTR_ALWAYS_INLINE;
 422:lufa-lib-svn/LUFA/Drivers/USB/Class/Device/../../Core/AVR8/../AVR8/Endpoint_AVR8.h **** 			static inline bool Endpoint_IsReadWriteAllowed(void)
 423:lufa-lib-svn/LUFA/Drivers/USB/Class/Device/../../Core/AVR8/../AVR8/Endpoint_AVR8.h **** 			{
 424:lufa-lib-svn/LUFA/Drivers/USB/Class/Device/../../Core/AVR8/../AVR8/Endpoint_AVR8.h **** 				return ((UEINTX & (1 << RWAL)) ? true : false);
 425:lufa-lib-svn/LUFA/Drivers/USB/Class/Device/../../Core/AVR8/../AVR8/Endpoint_AVR8.h **** 			}
 426:lufa-lib-svn/LUFA/Drivers/USB/Class/Device/../../Core/AVR8/../AVR8/Endpoint_AVR8.h **** 
 427:lufa-lib-svn/LUFA/Drivers/USB/Class/Device/../../Core/AVR8/../AVR8/Endpoint_AVR8.h **** 			/** Determines if the currently selected endpoint is configured.
 428:lufa-lib-svn/LUFA/Drivers/USB/Class/Device/../../Core/AVR8/../AVR8/Endpoint_AVR8.h **** 			 *
 429:lufa-lib-svn/LUFA/Drivers/USB/Class/Device/../../Core/AVR8/../AVR8/Endpoint_AVR8.h **** 			 *  \return Boolean \c true if the currently selected endpoint has been configured, \c false oth
 430:lufa-lib-svn/LUFA/Drivers/USB/Class/Device/../../Core/AVR8/../AVR8/Endpoint_AVR8.h **** 			 */
 431:lufa-lib-svn/LUFA/Drivers/USB/Class/Device/../../Core/AVR8/../AVR8/Endpoint_AVR8.h **** 			static inline bool Endpoint_IsConfigured(void) ATTR_WARN_UNUSED_RESULT ATTR_ALWAYS_INLINE;
 432:lufa-lib-svn/LUFA/Drivers/USB/Class/Device/../../Core/AVR8/../AVR8/Endpoint_AVR8.h **** 			static inline bool Endpoint_IsConfigured(void)
 433:lufa-lib-svn/LUFA/Drivers/USB/Class/Device/../../Core/AVR8/../AVR8/Endpoint_AVR8.h **** 			{
 434:lufa-lib-svn/LUFA/Drivers/USB/Class/Device/../../Core/AVR8/../AVR8/Endpoint_AVR8.h **** 				return ((UESTA0X & (1 << CFGOK)) ? true : false);
 435:lufa-lib-svn/LUFA/Drivers/USB/Class/Device/../../Core/AVR8/../AVR8/Endpoint_AVR8.h **** 			}
 436:lufa-lib-svn/LUFA/Drivers/USB/Class/Device/../../Core/AVR8/../AVR8/Endpoint_AVR8.h **** 
 437:lufa-lib-svn/LUFA/Drivers/USB/Class/Device/../../Core/AVR8/../AVR8/Endpoint_AVR8.h **** 			/** Returns a mask indicating which INTERRUPT type endpoints have interrupted - i.e. their
 438:lufa-lib-svn/LUFA/Drivers/USB/Class/Device/../../Core/AVR8/../AVR8/Endpoint_AVR8.h **** 			 *  interrupt duration has elapsed. Which endpoints have interrupted can be determined by
 439:lufa-lib-svn/LUFA/Drivers/USB/Class/Device/../../Core/AVR8/../AVR8/Endpoint_AVR8.h **** 			 *  masking the return value against <tt>(1 << <i>{Endpoint Number}</i>)</tt>.
 440:lufa-lib-svn/LUFA/Drivers/USB/Class/Device/../../Core/AVR8/../AVR8/Endpoint_AVR8.h **** 			 *
 441:lufa-lib-svn/LUFA/Drivers/USB/Class/Device/../../Core/AVR8/../AVR8/Endpoint_AVR8.h **** 			 *  \return Mask whose bits indicate which endpoints have interrupted.
 442:lufa-lib-svn/LUFA/Drivers/USB/Class/Device/../../Core/AVR8/../AVR8/Endpoint_AVR8.h **** 			 */
 443:lufa-lib-svn/LUFA/Drivers/USB/Class/Device/../../Core/AVR8/../AVR8/Endpoint_AVR8.h **** 			static inline uint8_t Endpoint_GetEndpointInterrupts(void) ATTR_WARN_UNUSED_RESULT ATTR_ALWAYS_I
 444:lufa-lib-svn/LUFA/Drivers/USB/Class/Device/../../Core/AVR8/../AVR8/Endpoint_AVR8.h **** 			static inline uint8_t Endpoint_GetEndpointInterrupts(void)
 445:lufa-lib-svn/LUFA/Drivers/USB/Class/Device/../../Core/AVR8/../AVR8/Endpoint_AVR8.h **** 			{
 446:lufa-lib-svn/LUFA/Drivers/USB/Class/Device/../../Core/AVR8/../AVR8/Endpoint_AVR8.h **** 				return UEINT;
 447:lufa-lib-svn/LUFA/Drivers/USB/Class/Device/../../Core/AVR8/../AVR8/Endpoint_AVR8.h **** 			}
 448:lufa-lib-svn/LUFA/Drivers/USB/Class/Device/../../Core/AVR8/../AVR8/Endpoint_AVR8.h **** 
 449:lufa-lib-svn/LUFA/Drivers/USB/Class/Device/../../Core/AVR8/../AVR8/Endpoint_AVR8.h **** 			/** Determines if the specified endpoint number has interrupted (valid only for INTERRUPT type
 450:lufa-lib-svn/LUFA/Drivers/USB/Class/Device/../../Core/AVR8/../AVR8/Endpoint_AVR8.h **** 			 *  endpoints).
 451:lufa-lib-svn/LUFA/Drivers/USB/Class/Device/../../Core/AVR8/../AVR8/Endpoint_AVR8.h **** 			 *
 452:lufa-lib-svn/LUFA/Drivers/USB/Class/Device/../../Core/AVR8/../AVR8/Endpoint_AVR8.h **** 			 *  \param[in] EndpointNumber  Index of the endpoint whose interrupt flag should be tested.
 453:lufa-lib-svn/LUFA/Drivers/USB/Class/Device/../../Core/AVR8/../AVR8/Endpoint_AVR8.h **** 			 *
 454:lufa-lib-svn/LUFA/Drivers/USB/Class/Device/../../Core/AVR8/../AVR8/Endpoint_AVR8.h **** 			 *  \return Boolean \c true if the specified endpoint has interrupted, \c false otherwise.
 455:lufa-lib-svn/LUFA/Drivers/USB/Class/Device/../../Core/AVR8/../AVR8/Endpoint_AVR8.h **** 			 */
 456:lufa-lib-svn/LUFA/Drivers/USB/Class/Device/../../Core/AVR8/../AVR8/Endpoint_AVR8.h **** 			static inline bool Endpoint_HasEndpointInterrupted(const uint8_t EndpointNumber) ATTR_WARN_UNUSE
 457:lufa-lib-svn/LUFA/Drivers/USB/Class/Device/../../Core/AVR8/../AVR8/Endpoint_AVR8.h **** 			static inline bool Endpoint_HasEndpointInterrupted(const uint8_t EndpointNumber)
 458:lufa-lib-svn/LUFA/Drivers/USB/Class/Device/../../Core/AVR8/../AVR8/Endpoint_AVR8.h **** 			{
 459:lufa-lib-svn/LUFA/Drivers/USB/Class/Device/../../Core/AVR8/../AVR8/Endpoint_AVR8.h **** 				return ((Endpoint_GetEndpointInterrupts() & (1 << EndpointNumber)) ? true : false);
 460:lufa-lib-svn/LUFA/Drivers/USB/Class/Device/../../Core/AVR8/../AVR8/Endpoint_AVR8.h **** 			}
 461:lufa-lib-svn/LUFA/Drivers/USB/Class/Device/../../Core/AVR8/../AVR8/Endpoint_AVR8.h **** 
 462:lufa-lib-svn/LUFA/Drivers/USB/Class/Device/../../Core/AVR8/../AVR8/Endpoint_AVR8.h **** 			/** Determines if the selected IN endpoint is ready for a new packet to be sent to the host.
 463:lufa-lib-svn/LUFA/Drivers/USB/Class/Device/../../Core/AVR8/../AVR8/Endpoint_AVR8.h **** 			 *
 464:lufa-lib-svn/LUFA/Drivers/USB/Class/Device/../../Core/AVR8/../AVR8/Endpoint_AVR8.h **** 			 *  \ingroup Group_EndpointPacketManagement_AVR8
 465:lufa-lib-svn/LUFA/Drivers/USB/Class/Device/../../Core/AVR8/../AVR8/Endpoint_AVR8.h **** 			 *
 466:lufa-lib-svn/LUFA/Drivers/USB/Class/Device/../../Core/AVR8/../AVR8/Endpoint_AVR8.h **** 			 *  \return Boolean \c true if the current endpoint is ready for an IN packet, \c false otherwis
 467:lufa-lib-svn/LUFA/Drivers/USB/Class/Device/../../Core/AVR8/../AVR8/Endpoint_AVR8.h **** 			 */
 468:lufa-lib-svn/LUFA/Drivers/USB/Class/Device/../../Core/AVR8/../AVR8/Endpoint_AVR8.h **** 			static inline bool Endpoint_IsINReady(void) ATTR_WARN_UNUSED_RESULT ATTR_ALWAYS_INLINE;
 469:lufa-lib-svn/LUFA/Drivers/USB/Class/Device/../../Core/AVR8/../AVR8/Endpoint_AVR8.h **** 			static inline bool Endpoint_IsINReady(void)
 470:lufa-lib-svn/LUFA/Drivers/USB/Class/Device/../../Core/AVR8/../AVR8/Endpoint_AVR8.h **** 			{
 471:lufa-lib-svn/LUFA/Drivers/USB/Class/Device/../../Core/AVR8/../AVR8/Endpoint_AVR8.h **** 				return ((UEINTX & (1 << TXINI)) ? true : false);
 472:lufa-lib-svn/LUFA/Drivers/USB/Class/Device/../../Core/AVR8/../AVR8/Endpoint_AVR8.h **** 			}
 473:lufa-lib-svn/LUFA/Drivers/USB/Class/Device/../../Core/AVR8/../AVR8/Endpoint_AVR8.h **** 
 474:lufa-lib-svn/LUFA/Drivers/USB/Class/Device/../../Core/AVR8/../AVR8/Endpoint_AVR8.h **** 			/** Determines if the selected OUT endpoint has received new packet from the host.
 475:lufa-lib-svn/LUFA/Drivers/USB/Class/Device/../../Core/AVR8/../AVR8/Endpoint_AVR8.h **** 			 *
 476:lufa-lib-svn/LUFA/Drivers/USB/Class/Device/../../Core/AVR8/../AVR8/Endpoint_AVR8.h **** 			 *  \ingroup Group_EndpointPacketManagement_AVR8
 477:lufa-lib-svn/LUFA/Drivers/USB/Class/Device/../../Core/AVR8/../AVR8/Endpoint_AVR8.h **** 			 *
 478:lufa-lib-svn/LUFA/Drivers/USB/Class/Device/../../Core/AVR8/../AVR8/Endpoint_AVR8.h **** 			 *  \return Boolean \c true if current endpoint is has received an OUT packet, \c false otherwis
 479:lufa-lib-svn/LUFA/Drivers/USB/Class/Device/../../Core/AVR8/../AVR8/Endpoint_AVR8.h **** 			 */
 480:lufa-lib-svn/LUFA/Drivers/USB/Class/Device/../../Core/AVR8/../AVR8/Endpoint_AVR8.h **** 			static inline bool Endpoint_IsOUTReceived(void) ATTR_WARN_UNUSED_RESULT ATTR_ALWAYS_INLINE;
 481:lufa-lib-svn/LUFA/Drivers/USB/Class/Device/../../Core/AVR8/../AVR8/Endpoint_AVR8.h **** 			static inline bool Endpoint_IsOUTReceived(void)
 482:lufa-lib-svn/LUFA/Drivers/USB/Class/Device/../../Core/AVR8/../AVR8/Endpoint_AVR8.h **** 			{
 483:lufa-lib-svn/LUFA/Drivers/USB/Class/Device/../../Core/AVR8/../AVR8/Endpoint_AVR8.h **** 				return ((UEINTX & (1 << RXOUTI)) ? true : false);
 484:lufa-lib-svn/LUFA/Drivers/USB/Class/Device/../../Core/AVR8/../AVR8/Endpoint_AVR8.h **** 			}
 485:lufa-lib-svn/LUFA/Drivers/USB/Class/Device/../../Core/AVR8/../AVR8/Endpoint_AVR8.h **** 
 486:lufa-lib-svn/LUFA/Drivers/USB/Class/Device/../../Core/AVR8/../AVR8/Endpoint_AVR8.h **** 			/** Determines if the current CONTROL type endpoint has received a SETUP packet.
 487:lufa-lib-svn/LUFA/Drivers/USB/Class/Device/../../Core/AVR8/../AVR8/Endpoint_AVR8.h **** 			 *
 488:lufa-lib-svn/LUFA/Drivers/USB/Class/Device/../../Core/AVR8/../AVR8/Endpoint_AVR8.h **** 			 *  \ingroup Group_EndpointPacketManagement_AVR8
 489:lufa-lib-svn/LUFA/Drivers/USB/Class/Device/../../Core/AVR8/../AVR8/Endpoint_AVR8.h **** 			 *
 490:lufa-lib-svn/LUFA/Drivers/USB/Class/Device/../../Core/AVR8/../AVR8/Endpoint_AVR8.h **** 			 *  \return Boolean \c true if the selected endpoint has received a SETUP packet, \c false other
 491:lufa-lib-svn/LUFA/Drivers/USB/Class/Device/../../Core/AVR8/../AVR8/Endpoint_AVR8.h **** 			 */
 492:lufa-lib-svn/LUFA/Drivers/USB/Class/Device/../../Core/AVR8/../AVR8/Endpoint_AVR8.h **** 			static inline bool Endpoint_IsSETUPReceived(void) ATTR_WARN_UNUSED_RESULT ATTR_ALWAYS_INLINE;
 493:lufa-lib-svn/LUFA/Drivers/USB/Class/Device/../../Core/AVR8/../AVR8/Endpoint_AVR8.h **** 			static inline bool Endpoint_IsSETUPReceived(void)
 494:lufa-lib-svn/LUFA/Drivers/USB/Class/Device/../../Core/AVR8/../AVR8/Endpoint_AVR8.h **** 			{
 495:lufa-lib-svn/LUFA/Drivers/USB/Class/Device/../../Core/AVR8/../AVR8/Endpoint_AVR8.h **** 				return ((UEINTX & (1 << RXSTPI)) ? true : false);
  35               		.loc 2 495 0
  36 0006 8091 E800 		lds r24,232
  37               	.LVL1:
  38               	.LBE68:
  39               	.LBE67:
  42:lufa-lib-svn/LUFA/Drivers/USB/Class/Device/MassStorageClassDevice.c **** 	if (!(Endpoint_IsSETUPReceived()))
  40               		.loc 1 42 0
  41 000a 83FF      		sbrs r24,3
  42 000c 00C0      		rjmp .L1
  43:lufa-lib-svn/LUFA/Drivers/USB/Class/Device/MassStorageClassDevice.c **** 	  return;
  44:lufa-lib-svn/LUFA/Drivers/USB/Class/Device/MassStorageClassDevice.c **** 
  45:lufa-lib-svn/LUFA/Drivers/USB/Class/Device/MassStorageClassDevice.c **** 	if (USB_ControlRequest.wIndex != MSInterfaceInfo->Config.InterfaceNumber)
  43               		.loc 1 45 0
  44 000e 8881      		ld r24,Y
  45 0010 90E0      		ldi r25,0
  46 0012 2091 0000 		lds r18,USB_ControlRequest+4
  47 0016 3091 0000 		lds r19,USB_ControlRequest+4+1
  48 001a 2817      		cp r18,r24
  49 001c 3907      		cpc r19,r25
  50 001e 01F4      		brne .L1
  46:lufa-lib-svn/LUFA/Drivers/USB/Class/Device/MassStorageClassDevice.c **** 	  return;
  47:lufa-lib-svn/LUFA/Drivers/USB/Class/Device/MassStorageClassDevice.c **** 
  48:lufa-lib-svn/LUFA/Drivers/USB/Class/Device/MassStorageClassDevice.c **** 	switch (USB_ControlRequest.bRequest)
  51               		.loc 1 48 0
  52 0020 8091 0000 		lds r24,USB_ControlRequest+1
  53 0024 8E3F      		cpi r24,lo8(-2)
  54 0026 01F0      		breq .L3
  55 0028 8F3F      		cpi r24,lo8(-1)
  56 002a 01F4      		brne .L1
  49:lufa-lib-svn/LUFA/Drivers/USB/Class/Device/MassStorageClassDevice.c **** 	{
  50:lufa-lib-svn/LUFA/Drivers/USB/Class/Device/MassStorageClassDevice.c **** 		case MS_REQ_MassStorageReset:
  51:lufa-lib-svn/LUFA/Drivers/USB/Class/Device/MassStorageClassDevice.c **** 			if (USB_ControlRequest.bmRequestType == (REQDIR_HOSTTODEVICE | REQTYPE_CLASS | REQREC_INTERFACE)
  57               		.loc 1 51 0
  58 002c 8091 0000 		lds r24,USB_ControlRequest
  59 0030 8132      		cpi r24,lo8(33)
  60 0032 01F4      		brne .L1
  61               	.LBB69:
  62               	.LBB70:
 496:lufa-lib-svn/LUFA/Drivers/USB/Class/Device/../../Core/AVR8/../AVR8/Endpoint_AVR8.h **** 			}
 497:lufa-lib-svn/LUFA/Drivers/USB/Class/Device/../../Core/AVR8/../AVR8/Endpoint_AVR8.h **** 
 498:lufa-lib-svn/LUFA/Drivers/USB/Class/Device/../../Core/AVR8/../AVR8/Endpoint_AVR8.h **** 			/** Clears a received SETUP packet on the currently selected CONTROL type endpoint, freeing up t
 499:lufa-lib-svn/LUFA/Drivers/USB/Class/Device/../../Core/AVR8/../AVR8/Endpoint_AVR8.h **** 			 *  endpoint for the next packet.
 500:lufa-lib-svn/LUFA/Drivers/USB/Class/Device/../../Core/AVR8/../AVR8/Endpoint_AVR8.h **** 			 *
 501:lufa-lib-svn/LUFA/Drivers/USB/Class/Device/../../Core/AVR8/../AVR8/Endpoint_AVR8.h **** 			 *  \ingroup Group_EndpointPacketManagement_AVR8
 502:lufa-lib-svn/LUFA/Drivers/USB/Class/Device/../../Core/AVR8/../AVR8/Endpoint_AVR8.h **** 			 *
 503:lufa-lib-svn/LUFA/Drivers/USB/Class/Device/../../Core/AVR8/../AVR8/Endpoint_AVR8.h **** 			 *  \note This is not applicable for non CONTROL type endpoints.
 504:lufa-lib-svn/LUFA/Drivers/USB/Class/Device/../../Core/AVR8/../AVR8/Endpoint_AVR8.h **** 			 */
 505:lufa-lib-svn/LUFA/Drivers/USB/Class/Device/../../Core/AVR8/../AVR8/Endpoint_AVR8.h **** 			static inline void Endpoint_ClearSETUP(void) ATTR_ALWAYS_INLINE;
 506:lufa-lib-svn/LUFA/Drivers/USB/Class/Device/../../Core/AVR8/../AVR8/Endpoint_AVR8.h **** 			static inline void Endpoint_ClearSETUP(void)
 507:lufa-lib-svn/LUFA/Drivers/USB/Class/Device/../../Core/AVR8/../AVR8/Endpoint_AVR8.h **** 			{
 508:lufa-lib-svn/LUFA/Drivers/USB/Class/Device/../../Core/AVR8/../AVR8/Endpoint_AVR8.h **** 				UEINTX &= ~(1 << RXSTPI);
  63               		.loc 2 508 0
  64 0034 8091 E800 		lds r24,232
  65 0038 877F      		andi r24,lo8(-9)
  66 003a 8093 E800 		sts 232,r24
  67               	.LBE70:
  68               	.LBE69:
  52:lufa-lib-svn/LUFA/Drivers/USB/Class/Device/MassStorageClassDevice.c **** 			{
  53:lufa-lib-svn/LUFA/Drivers/USB/Class/Device/MassStorageClassDevice.c **** 				Endpoint_ClearSETUP();
  54:lufa-lib-svn/LUFA/Drivers/USB/Class/Device/MassStorageClassDevice.c **** 				Endpoint_ClearStatusStage();
  69               		.loc 1 54 0
  70 003e 0E94 0000 		call Endpoint_ClearStatusStage
  71               	.LVL2:
  55:lufa-lib-svn/LUFA/Drivers/USB/Class/Device/MassStorageClassDevice.c **** 
  56:lufa-lib-svn/LUFA/Drivers/USB/Class/Device/MassStorageClassDevice.c **** 				MSInterfaceInfo->State.IsMassStoreReset = true;
  72               		.loc 1 56 0
  73 0042 81E0      		ldi r24,lo8(1)
  74 0044 8EAB      		std Y+54,r24
  75 0046 00C0      		rjmp .L1
  76               	.L3:
  57:lufa-lib-svn/LUFA/Drivers/USB/Class/Device/MassStorageClassDevice.c **** 			}
  58:lufa-lib-svn/LUFA/Drivers/USB/Class/Device/MassStorageClassDevice.c **** 
  59:lufa-lib-svn/LUFA/Drivers/USB/Class/Device/MassStorageClassDevice.c **** 			break;
  60:lufa-lib-svn/LUFA/Drivers/USB/Class/Device/MassStorageClassDevice.c **** 		case MS_REQ_GetMaxLUN:
  61:lufa-lib-svn/LUFA/Drivers/USB/Class/Device/MassStorageClassDevice.c **** 			if (USB_ControlRequest.bmRequestType == (REQDIR_DEVICETOHOST | REQTYPE_CLASS | REQREC_INTERFACE)
  77               		.loc 1 61 0
  78 0048 8091 0000 		lds r24,USB_ControlRequest
  79 004c 813A      		cpi r24,lo8(-95)
  80 004e 01F4      		brne .L1
  81               	.LBB71:
  82               	.LBB72:
  83               		.loc 2 508 0
  84 0050 8091 E800 		lds r24,232
  85 0054 877F      		andi r24,lo8(-9)
  86 0056 8093 E800 		sts 232,r24
  87               	.L5:
  88               	.LBE72:
  89               	.LBE71:
  90               	.LBB73:
  91               	.LBB74:
 471:lufa-lib-svn/LUFA/Drivers/USB/Class/Device/../../Core/AVR8/../AVR8/Endpoint_AVR8.h **** 				return ((UEINTX & (1 << TXINI)) ? true : false);
  92               		.loc 2 471 0 discriminator 1
  93 005a 8091 E800 		lds r24,232
  94               	.LBE74:
  95               	.LBE73:
  62:lufa-lib-svn/LUFA/Drivers/USB/Class/Device/MassStorageClassDevice.c **** 			{
  63:lufa-lib-svn/LUFA/Drivers/USB/Class/Device/MassStorageClassDevice.c **** 				Endpoint_ClearSETUP();
  64:lufa-lib-svn/LUFA/Drivers/USB/Class/Device/MassStorageClassDevice.c **** 				while (!(Endpoint_IsINReady()));
  96               		.loc 1 64 0 discriminator 1
  97 005e 80FF      		sbrs r24,0
  98 0060 00C0      		rjmp .L5
  65:lufa-lib-svn/LUFA/Drivers/USB/Class/Device/MassStorageClassDevice.c **** 				Endpoint_Write_8(MSInterfaceInfo->Config.TotalLUNs - 1);
  99               		.loc 1 65 0
 100 0062 8985      		ldd r24,Y+9
 101 0064 8150      		subi r24,lo8(-(-1))
 102               	.LVL3:
 103               	.LBB75:
 104               	.LBB76:
 509:lufa-lib-svn/LUFA/Drivers/USB/Class/Device/../../Core/AVR8/../AVR8/Endpoint_AVR8.h **** 			}
 510:lufa-lib-svn/LUFA/Drivers/USB/Class/Device/../../Core/AVR8/../AVR8/Endpoint_AVR8.h **** 
 511:lufa-lib-svn/LUFA/Drivers/USB/Class/Device/../../Core/AVR8/../AVR8/Endpoint_AVR8.h **** 			/** Sends an IN packet to the host on the currently selected endpoint, freeing up the endpoint f
 512:lufa-lib-svn/LUFA/Drivers/USB/Class/Device/../../Core/AVR8/../AVR8/Endpoint_AVR8.h **** 			 *  next packet and switching to the alternative endpoint bank if double banked.
 513:lufa-lib-svn/LUFA/Drivers/USB/Class/Device/../../Core/AVR8/../AVR8/Endpoint_AVR8.h **** 			 *
 514:lufa-lib-svn/LUFA/Drivers/USB/Class/Device/../../Core/AVR8/../AVR8/Endpoint_AVR8.h **** 			 *  \ingroup Group_EndpointPacketManagement_AVR8
 515:lufa-lib-svn/LUFA/Drivers/USB/Class/Device/../../Core/AVR8/../AVR8/Endpoint_AVR8.h **** 			 */
 516:lufa-lib-svn/LUFA/Drivers/USB/Class/Device/../../Core/AVR8/../AVR8/Endpoint_AVR8.h **** 			static inline void Endpoint_ClearIN(void) ATTR_ALWAYS_INLINE;
 517:lufa-lib-svn/LUFA/Drivers/USB/Class/Device/../../Core/AVR8/../AVR8/Endpoint_AVR8.h **** 			static inline void Endpoint_ClearIN(void)
 518:lufa-lib-svn/LUFA/Drivers/USB/Class/Device/../../Core/AVR8/../AVR8/Endpoint_AVR8.h **** 			{
 519:lufa-lib-svn/LUFA/Drivers/USB/Class/Device/../../Core/AVR8/../AVR8/Endpoint_AVR8.h **** 				#if !defined(CONTROL_ONLY_DEVICE)
 520:lufa-lib-svn/LUFA/Drivers/USB/Class/Device/../../Core/AVR8/../AVR8/Endpoint_AVR8.h **** 					UEINTX &= ~((1 << TXINI) | (1 << FIFOCON));
 521:lufa-lib-svn/LUFA/Drivers/USB/Class/Device/../../Core/AVR8/../AVR8/Endpoint_AVR8.h **** 				#else
 522:lufa-lib-svn/LUFA/Drivers/USB/Class/Device/../../Core/AVR8/../AVR8/Endpoint_AVR8.h **** 					UEINTX &= ~(1 << TXINI);
 523:lufa-lib-svn/LUFA/Drivers/USB/Class/Device/../../Core/AVR8/../AVR8/Endpoint_AVR8.h **** 				#endif
 524:lufa-lib-svn/LUFA/Drivers/USB/Class/Device/../../Core/AVR8/../AVR8/Endpoint_AVR8.h **** 			}
 525:lufa-lib-svn/LUFA/Drivers/USB/Class/Device/../../Core/AVR8/../AVR8/Endpoint_AVR8.h **** 
 526:lufa-lib-svn/LUFA/Drivers/USB/Class/Device/../../Core/AVR8/../AVR8/Endpoint_AVR8.h **** 			/** Acknowledges an OUT packet to the host on the currently selected endpoint, freeing up the en
 527:lufa-lib-svn/LUFA/Drivers/USB/Class/Device/../../Core/AVR8/../AVR8/Endpoint_AVR8.h **** 			 *  for the next packet and switching to the alternative endpoint bank if double banked.
 528:lufa-lib-svn/LUFA/Drivers/USB/Class/Device/../../Core/AVR8/../AVR8/Endpoint_AVR8.h **** 			 *
 529:lufa-lib-svn/LUFA/Drivers/USB/Class/Device/../../Core/AVR8/../AVR8/Endpoint_AVR8.h **** 			 *  \ingroup Group_EndpointPacketManagement_AVR8
 530:lufa-lib-svn/LUFA/Drivers/USB/Class/Device/../../Core/AVR8/../AVR8/Endpoint_AVR8.h **** 			 */
 531:lufa-lib-svn/LUFA/Drivers/USB/Class/Device/../../Core/AVR8/../AVR8/Endpoint_AVR8.h **** 			static inline void Endpoint_ClearOUT(void) ATTR_ALWAYS_INLINE;
 532:lufa-lib-svn/LUFA/Drivers/USB/Class/Device/../../Core/AVR8/../AVR8/Endpoint_AVR8.h **** 			static inline void Endpoint_ClearOUT(void)
 533:lufa-lib-svn/LUFA/Drivers/USB/Class/Device/../../Core/AVR8/../AVR8/Endpoint_AVR8.h **** 			{
 534:lufa-lib-svn/LUFA/Drivers/USB/Class/Device/../../Core/AVR8/../AVR8/Endpoint_AVR8.h **** 				#if !defined(CONTROL_ONLY_DEVICE)
 535:lufa-lib-svn/LUFA/Drivers/USB/Class/Device/../../Core/AVR8/../AVR8/Endpoint_AVR8.h **** 					UEINTX &= ~((1 << RXOUTI) | (1 << FIFOCON));
 536:lufa-lib-svn/LUFA/Drivers/USB/Class/Device/../../Core/AVR8/../AVR8/Endpoint_AVR8.h **** 				#else
 537:lufa-lib-svn/LUFA/Drivers/USB/Class/Device/../../Core/AVR8/../AVR8/Endpoint_AVR8.h **** 					UEINTX &= ~(1 << RXOUTI);
 538:lufa-lib-svn/LUFA/Drivers/USB/Class/Device/../../Core/AVR8/../AVR8/Endpoint_AVR8.h **** 				#endif
 539:lufa-lib-svn/LUFA/Drivers/USB/Class/Device/../../Core/AVR8/../AVR8/Endpoint_AVR8.h **** 			}
 540:lufa-lib-svn/LUFA/Drivers/USB/Class/Device/../../Core/AVR8/../AVR8/Endpoint_AVR8.h **** 
 541:lufa-lib-svn/LUFA/Drivers/USB/Class/Device/../../Core/AVR8/../AVR8/Endpoint_AVR8.h **** 			/** Stalls the current endpoint, indicating to the host that a logical problem occurred with the
 542:lufa-lib-svn/LUFA/Drivers/USB/Class/Device/../../Core/AVR8/../AVR8/Endpoint_AVR8.h **** 			 *  indicated endpoint and that the current transfer sequence should be aborted. This provides a
 543:lufa-lib-svn/LUFA/Drivers/USB/Class/Device/../../Core/AVR8/../AVR8/Endpoint_AVR8.h **** 			 *  way for devices to indicate invalid commands to the host so that the current transfer can be
 544:lufa-lib-svn/LUFA/Drivers/USB/Class/Device/../../Core/AVR8/../AVR8/Endpoint_AVR8.h **** 			 *  aborted and the host can begin its own recovery sequence.
 545:lufa-lib-svn/LUFA/Drivers/USB/Class/Device/../../Core/AVR8/../AVR8/Endpoint_AVR8.h **** 			 *
 546:lufa-lib-svn/LUFA/Drivers/USB/Class/Device/../../Core/AVR8/../AVR8/Endpoint_AVR8.h **** 			 *  The currently selected endpoint remains stalled until either the \ref Endpoint_ClearStall() 
 547:lufa-lib-svn/LUFA/Drivers/USB/Class/Device/../../Core/AVR8/../AVR8/Endpoint_AVR8.h **** 			 *  is called, or the host issues a CLEAR FEATURE request to the device for the currently select
 548:lufa-lib-svn/LUFA/Drivers/USB/Class/Device/../../Core/AVR8/../AVR8/Endpoint_AVR8.h **** 			 *  endpoint.
 549:lufa-lib-svn/LUFA/Drivers/USB/Class/Device/../../Core/AVR8/../AVR8/Endpoint_AVR8.h **** 			 *
 550:lufa-lib-svn/LUFA/Drivers/USB/Class/Device/../../Core/AVR8/../AVR8/Endpoint_AVR8.h **** 			 *  \ingroup Group_EndpointPacketManagement_AVR8
 551:lufa-lib-svn/LUFA/Drivers/USB/Class/Device/../../Core/AVR8/../AVR8/Endpoint_AVR8.h **** 			 */
 552:lufa-lib-svn/LUFA/Drivers/USB/Class/Device/../../Core/AVR8/../AVR8/Endpoint_AVR8.h **** 			static inline void Endpoint_StallTransaction(void) ATTR_ALWAYS_INLINE;
 553:lufa-lib-svn/LUFA/Drivers/USB/Class/Device/../../Core/AVR8/../AVR8/Endpoint_AVR8.h **** 			static inline void Endpoint_StallTransaction(void)
 554:lufa-lib-svn/LUFA/Drivers/USB/Class/Device/../../Core/AVR8/../AVR8/Endpoint_AVR8.h **** 			{
 555:lufa-lib-svn/LUFA/Drivers/USB/Class/Device/../../Core/AVR8/../AVR8/Endpoint_AVR8.h **** 				UECONX |= (1 << STALLRQ);
 556:lufa-lib-svn/LUFA/Drivers/USB/Class/Device/../../Core/AVR8/../AVR8/Endpoint_AVR8.h **** 			}
 557:lufa-lib-svn/LUFA/Drivers/USB/Class/Device/../../Core/AVR8/../AVR8/Endpoint_AVR8.h **** 
 558:lufa-lib-svn/LUFA/Drivers/USB/Class/Device/../../Core/AVR8/../AVR8/Endpoint_AVR8.h **** 			/** Clears the STALL condition on the currently selected endpoint.
 559:lufa-lib-svn/LUFA/Drivers/USB/Class/Device/../../Core/AVR8/../AVR8/Endpoint_AVR8.h **** 			 *
 560:lufa-lib-svn/LUFA/Drivers/USB/Class/Device/../../Core/AVR8/../AVR8/Endpoint_AVR8.h **** 			 *  \ingroup Group_EndpointPacketManagement_AVR8
 561:lufa-lib-svn/LUFA/Drivers/USB/Class/Device/../../Core/AVR8/../AVR8/Endpoint_AVR8.h **** 			 */
 562:lufa-lib-svn/LUFA/Drivers/USB/Class/Device/../../Core/AVR8/../AVR8/Endpoint_AVR8.h **** 			static inline void Endpoint_ClearStall(void) ATTR_ALWAYS_INLINE;
 563:lufa-lib-svn/LUFA/Drivers/USB/Class/Device/../../Core/AVR8/../AVR8/Endpoint_AVR8.h **** 			static inline void Endpoint_ClearStall(void)
 564:lufa-lib-svn/LUFA/Drivers/USB/Class/Device/../../Core/AVR8/../AVR8/Endpoint_AVR8.h **** 			{
 565:lufa-lib-svn/LUFA/Drivers/USB/Class/Device/../../Core/AVR8/../AVR8/Endpoint_AVR8.h **** 				UECONX |= (1 << STALLRQC);
 566:lufa-lib-svn/LUFA/Drivers/USB/Class/Device/../../Core/AVR8/../AVR8/Endpoint_AVR8.h **** 			}
 567:lufa-lib-svn/LUFA/Drivers/USB/Class/Device/../../Core/AVR8/../AVR8/Endpoint_AVR8.h **** 
 568:lufa-lib-svn/LUFA/Drivers/USB/Class/Device/../../Core/AVR8/../AVR8/Endpoint_AVR8.h **** 			/** Determines if the currently selected endpoint is stalled, false otherwise.
 569:lufa-lib-svn/LUFA/Drivers/USB/Class/Device/../../Core/AVR8/../AVR8/Endpoint_AVR8.h **** 			 *
 570:lufa-lib-svn/LUFA/Drivers/USB/Class/Device/../../Core/AVR8/../AVR8/Endpoint_AVR8.h **** 			 *  \ingroup Group_EndpointPacketManagement_AVR8
 571:lufa-lib-svn/LUFA/Drivers/USB/Class/Device/../../Core/AVR8/../AVR8/Endpoint_AVR8.h **** 			 *
 572:lufa-lib-svn/LUFA/Drivers/USB/Class/Device/../../Core/AVR8/../AVR8/Endpoint_AVR8.h **** 			 *  \return Boolean \c true if the currently selected endpoint is stalled, \c false otherwise.
 573:lufa-lib-svn/LUFA/Drivers/USB/Class/Device/../../Core/AVR8/../AVR8/Endpoint_AVR8.h **** 			 */
 574:lufa-lib-svn/LUFA/Drivers/USB/Class/Device/../../Core/AVR8/../AVR8/Endpoint_AVR8.h **** 			static inline bool Endpoint_IsStalled(void) ATTR_WARN_UNUSED_RESULT ATTR_ALWAYS_INLINE;
 575:lufa-lib-svn/LUFA/Drivers/USB/Class/Device/../../Core/AVR8/../AVR8/Endpoint_AVR8.h **** 			static inline bool Endpoint_IsStalled(void)
 576:lufa-lib-svn/LUFA/Drivers/USB/Class/Device/../../Core/AVR8/../AVR8/Endpoint_AVR8.h **** 			{
 577:lufa-lib-svn/LUFA/Drivers/USB/Class/Device/../../Core/AVR8/../AVR8/Endpoint_AVR8.h **** 				return ((UECONX & (1 << STALLRQ)) ? true : false);
 578:lufa-lib-svn/LUFA/Drivers/USB/Class/Device/../../Core/AVR8/../AVR8/Endpoint_AVR8.h **** 			}
 579:lufa-lib-svn/LUFA/Drivers/USB/Class/Device/../../Core/AVR8/../AVR8/Endpoint_AVR8.h **** 
 580:lufa-lib-svn/LUFA/Drivers/USB/Class/Device/../../Core/AVR8/../AVR8/Endpoint_AVR8.h **** 			/** Resets the data toggle of the currently selected endpoint. */
 581:lufa-lib-svn/LUFA/Drivers/USB/Class/Device/../../Core/AVR8/../AVR8/Endpoint_AVR8.h **** 			static inline void Endpoint_ResetDataToggle(void) ATTR_ALWAYS_INLINE;
 582:lufa-lib-svn/LUFA/Drivers/USB/Class/Device/../../Core/AVR8/../AVR8/Endpoint_AVR8.h **** 			static inline void Endpoint_ResetDataToggle(void)
 583:lufa-lib-svn/LUFA/Drivers/USB/Class/Device/../../Core/AVR8/../AVR8/Endpoint_AVR8.h **** 			{
 584:lufa-lib-svn/LUFA/Drivers/USB/Class/Device/../../Core/AVR8/../AVR8/Endpoint_AVR8.h **** 				UECONX |= (1 << RSTDT);
 585:lufa-lib-svn/LUFA/Drivers/USB/Class/Device/../../Core/AVR8/../AVR8/Endpoint_AVR8.h **** 			}
 586:lufa-lib-svn/LUFA/Drivers/USB/Class/Device/../../Core/AVR8/../AVR8/Endpoint_AVR8.h **** 
 587:lufa-lib-svn/LUFA/Drivers/USB/Class/Device/../../Core/AVR8/../AVR8/Endpoint_AVR8.h **** 			/** Determines the currently selected endpoint's direction.
 588:lufa-lib-svn/LUFA/Drivers/USB/Class/Device/../../Core/AVR8/../AVR8/Endpoint_AVR8.h **** 			 *
 589:lufa-lib-svn/LUFA/Drivers/USB/Class/Device/../../Core/AVR8/../AVR8/Endpoint_AVR8.h **** 			 *  \return The currently selected endpoint's direction, as a \c ENDPOINT_DIR_* mask.
 590:lufa-lib-svn/LUFA/Drivers/USB/Class/Device/../../Core/AVR8/../AVR8/Endpoint_AVR8.h **** 			 */
 591:lufa-lib-svn/LUFA/Drivers/USB/Class/Device/../../Core/AVR8/../AVR8/Endpoint_AVR8.h **** 			static inline uint8_t Endpoint_GetEndpointDirection(void) ATTR_WARN_UNUSED_RESULT ATTR_ALWAYS_IN
 592:lufa-lib-svn/LUFA/Drivers/USB/Class/Device/../../Core/AVR8/../AVR8/Endpoint_AVR8.h **** 			static inline uint8_t Endpoint_GetEndpointDirection(void)
 593:lufa-lib-svn/LUFA/Drivers/USB/Class/Device/../../Core/AVR8/../AVR8/Endpoint_AVR8.h **** 			{
 594:lufa-lib-svn/LUFA/Drivers/USB/Class/Device/../../Core/AVR8/../AVR8/Endpoint_AVR8.h **** 				return (UECFG0X & (1 << EPDIR)) ? ENDPOINT_DIR_IN : ENDPOINT_DIR_OUT;
 595:lufa-lib-svn/LUFA/Drivers/USB/Class/Device/../../Core/AVR8/../AVR8/Endpoint_AVR8.h **** 			}
 596:lufa-lib-svn/LUFA/Drivers/USB/Class/Device/../../Core/AVR8/../AVR8/Endpoint_AVR8.h **** 
 597:lufa-lib-svn/LUFA/Drivers/USB/Class/Device/../../Core/AVR8/../AVR8/Endpoint_AVR8.h **** 			/** Sets the direction of the currently selected endpoint.
 598:lufa-lib-svn/LUFA/Drivers/USB/Class/Device/../../Core/AVR8/../AVR8/Endpoint_AVR8.h **** 			 *
 599:lufa-lib-svn/LUFA/Drivers/USB/Class/Device/../../Core/AVR8/../AVR8/Endpoint_AVR8.h **** 			 *  \param[in] DirectionMask  New endpoint direction, as a \c ENDPOINT_DIR_* mask.
 600:lufa-lib-svn/LUFA/Drivers/USB/Class/Device/../../Core/AVR8/../AVR8/Endpoint_AVR8.h **** 			 */
 601:lufa-lib-svn/LUFA/Drivers/USB/Class/Device/../../Core/AVR8/../AVR8/Endpoint_AVR8.h **** 			static inline void Endpoint_SetEndpointDirection(const uint8_t DirectionMask) ATTR_ALWAYS_INLINE
 602:lufa-lib-svn/LUFA/Drivers/USB/Class/Device/../../Core/AVR8/../AVR8/Endpoint_AVR8.h **** 			static inline void Endpoint_SetEndpointDirection(const uint8_t DirectionMask)
 603:lufa-lib-svn/LUFA/Drivers/USB/Class/Device/../../Core/AVR8/../AVR8/Endpoint_AVR8.h **** 			{
 604:lufa-lib-svn/LUFA/Drivers/USB/Class/Device/../../Core/AVR8/../AVR8/Endpoint_AVR8.h **** 				UECFG0X = ((UECFG0X & ~(1 << EPDIR)) | (DirectionMask ? (1 << EPDIR) : 0));
 605:lufa-lib-svn/LUFA/Drivers/USB/Class/Device/../../Core/AVR8/../AVR8/Endpoint_AVR8.h **** 			}
 606:lufa-lib-svn/LUFA/Drivers/USB/Class/Device/../../Core/AVR8/../AVR8/Endpoint_AVR8.h **** 
 607:lufa-lib-svn/LUFA/Drivers/USB/Class/Device/../../Core/AVR8/../AVR8/Endpoint_AVR8.h **** 			/** Reads one byte from the currently selected endpoint's bank, for OUT direction endpoints.
 608:lufa-lib-svn/LUFA/Drivers/USB/Class/Device/../../Core/AVR8/../AVR8/Endpoint_AVR8.h **** 			 *
 609:lufa-lib-svn/LUFA/Drivers/USB/Class/Device/../../Core/AVR8/../AVR8/Endpoint_AVR8.h **** 			 *  \ingroup Group_EndpointPrimitiveRW_AVR8
 610:lufa-lib-svn/LUFA/Drivers/USB/Class/Device/../../Core/AVR8/../AVR8/Endpoint_AVR8.h **** 			 *
 611:lufa-lib-svn/LUFA/Drivers/USB/Class/Device/../../Core/AVR8/../AVR8/Endpoint_AVR8.h **** 			 *  \return Next byte in the currently selected endpoint's FIFO buffer.
 612:lufa-lib-svn/LUFA/Drivers/USB/Class/Device/../../Core/AVR8/../AVR8/Endpoint_AVR8.h **** 			 */
 613:lufa-lib-svn/LUFA/Drivers/USB/Class/Device/../../Core/AVR8/../AVR8/Endpoint_AVR8.h **** 			static inline uint8_t Endpoint_Read_8(void) ATTR_WARN_UNUSED_RESULT ATTR_ALWAYS_INLINE;
 614:lufa-lib-svn/LUFA/Drivers/USB/Class/Device/../../Core/AVR8/../AVR8/Endpoint_AVR8.h **** 			static inline uint8_t Endpoint_Read_8(void)
 615:lufa-lib-svn/LUFA/Drivers/USB/Class/Device/../../Core/AVR8/../AVR8/Endpoint_AVR8.h **** 			{
 616:lufa-lib-svn/LUFA/Drivers/USB/Class/Device/../../Core/AVR8/../AVR8/Endpoint_AVR8.h **** 				return UEDATX;
 617:lufa-lib-svn/LUFA/Drivers/USB/Class/Device/../../Core/AVR8/../AVR8/Endpoint_AVR8.h **** 			}
 618:lufa-lib-svn/LUFA/Drivers/USB/Class/Device/../../Core/AVR8/../AVR8/Endpoint_AVR8.h **** 
 619:lufa-lib-svn/LUFA/Drivers/USB/Class/Device/../../Core/AVR8/../AVR8/Endpoint_AVR8.h **** 			/** Writes one byte to the currently selected endpoint's bank, for IN direction endpoints.
 620:lufa-lib-svn/LUFA/Drivers/USB/Class/Device/../../Core/AVR8/../AVR8/Endpoint_AVR8.h **** 			 *
 621:lufa-lib-svn/LUFA/Drivers/USB/Class/Device/../../Core/AVR8/../AVR8/Endpoint_AVR8.h **** 			 *  \ingroup Group_EndpointPrimitiveRW_AVR8
 622:lufa-lib-svn/LUFA/Drivers/USB/Class/Device/../../Core/AVR8/../AVR8/Endpoint_AVR8.h **** 			 *
 623:lufa-lib-svn/LUFA/Drivers/USB/Class/Device/../../Core/AVR8/../AVR8/Endpoint_AVR8.h **** 			 *  \param[in] Data  Data to write into the the currently selected endpoint's FIFO buffer.
 624:lufa-lib-svn/LUFA/Drivers/USB/Class/Device/../../Core/AVR8/../AVR8/Endpoint_AVR8.h **** 			 */
 625:lufa-lib-svn/LUFA/Drivers/USB/Class/Device/../../Core/AVR8/../AVR8/Endpoint_AVR8.h **** 			static inline void Endpoint_Write_8(const uint8_t Data) ATTR_ALWAYS_INLINE;
 626:lufa-lib-svn/LUFA/Drivers/USB/Class/Device/../../Core/AVR8/../AVR8/Endpoint_AVR8.h **** 			static inline void Endpoint_Write_8(const uint8_t Data)
 627:lufa-lib-svn/LUFA/Drivers/USB/Class/Device/../../Core/AVR8/../AVR8/Endpoint_AVR8.h **** 			{
 628:lufa-lib-svn/LUFA/Drivers/USB/Class/Device/../../Core/AVR8/../AVR8/Endpoint_AVR8.h **** 				UEDATX = Data;
 105               		.loc 2 628 0
 106 0066 8093 F100 		sts 241,r24
 107               	.LBE76:
 108               	.LBE75:
 109               	.LBB77:
 110               	.LBB78:
 520:lufa-lib-svn/LUFA/Drivers/USB/Class/Device/../../Core/AVR8/../AVR8/Endpoint_AVR8.h **** 					UEINTX &= ~((1 << TXINI) | (1 << FIFOCON));
 111               		.loc 2 520 0
 112 006a 8091 E800 		lds r24,232
 113               	.LVL4:
 114 006e 8E77      		andi r24,lo8(126)
 115 0070 8093 E800 		sts 232,r24
 116               	/* epilogue start */
 117               	.LBE78:
 118               	.LBE77:
  66:lufa-lib-svn/LUFA/Drivers/USB/Class/Device/MassStorageClassDevice.c **** 				Endpoint_ClearIN();
  67:lufa-lib-svn/LUFA/Drivers/USB/Class/Device/MassStorageClassDevice.c **** 				Endpoint_ClearStatusStage();
  68:lufa-lib-svn/LUFA/Drivers/USB/Class/Device/MassStorageClassDevice.c **** 			}
  69:lufa-lib-svn/LUFA/Drivers/USB/Class/Device/MassStorageClassDevice.c **** 
  70:lufa-lib-svn/LUFA/Drivers/USB/Class/Device/MassStorageClassDevice.c **** 			break;
  71:lufa-lib-svn/LUFA/Drivers/USB/Class/Device/MassStorageClassDevice.c **** 	}
  72:lufa-lib-svn/LUFA/Drivers/USB/Class/Device/MassStorageClassDevice.c **** }
 119               		.loc 1 72 0
 120 0074 DF91      		pop r29
 121 0076 CF91      		pop r28
 122               	.LVL5:
  67:lufa-lib-svn/LUFA/Drivers/USB/Class/Device/MassStorageClassDevice.c **** 				Endpoint_ClearStatusStage();
 123               		.loc 1 67 0
 124 0078 0C94 0000 		jmp Endpoint_ClearStatusStage
 125               	.LVL6:
 126               	.L1:
 127               	/* epilogue start */
 128               		.loc 1 72 0
 129 007c DF91      		pop r29
 130 007e CF91      		pop r28
 131               	.LVL7:
 132 0080 0895      		ret
 133               		.cfi_endproc
 134               	.LFE99:
 136               		.section	.text.MS_Device_ConfigureEndpoints,"ax",@progbits
 137               	.global	MS_Device_ConfigureEndpoints
 139               	MS_Device_ConfigureEndpoints:
 140               	.LFB100:
  73:lufa-lib-svn/LUFA/Drivers/USB/Class/Device/MassStorageClassDevice.c **** 
  74:lufa-lib-svn/LUFA/Drivers/USB/Class/Device/MassStorageClassDevice.c **** bool MS_Device_ConfigureEndpoints(USB_ClassInfo_MS_Device_t* const MSInterfaceInfo)
  75:lufa-lib-svn/LUFA/Drivers/USB/Class/Device/MassStorageClassDevice.c **** {
 141               		.loc 1 75 0
 142               		.cfi_startproc
 143               	.LVL8:
 144 0000 1F93      		push r17
 145               	.LCFI2:
 146               		.cfi_def_cfa_offset 3
 147               		.cfi_offset 17, -2
 148 0002 CF93      		push r28
 149               	.LCFI3:
 150               		.cfi_def_cfa_offset 4
 151               		.cfi_offset 28, -3
 152 0004 DF93      		push r29
 153               	.LCFI4:
 154               		.cfi_def_cfa_offset 5
 155               		.cfi_offset 29, -4
 156               	/* prologue: function */
 157               	/* frame size = 0 */
 158               	/* stack size = 3 */
 159               	.L__stack_usage = 3
 160 0006 EC01      		movw r28,r24
  76:lufa-lib-svn/LUFA/Drivers/USB/Class/Device/MassStorageClassDevice.c **** 	memset(&MSInterfaceInfo->State, 0x00, sizeof(MSInterfaceInfo->State));
 161               		.loc 1 76 0
 162 0008 0A96      		adiw r24,10
 163               	.LVL9:
 164 000a FC01      		movw r30,r24
 165 000c 8DE2      		ldi r24,lo8(45)
 166 000e DF01      		movw r26,r30
 167               		0:
 168 0010 1D92      		st X+,__zero_reg__
 169 0012 8A95      		dec r24
 170 0014 01F4      		brne 0b
 171               	.LVL10:
  77:lufa-lib-svn/LUFA/Drivers/USB/Class/Device/MassStorageClassDevice.c **** 
  78:lufa-lib-svn/LUFA/Drivers/USB/Class/Device/MassStorageClassDevice.c **** 	for (uint8_t EndpointNum = 1; EndpointNum < ENDPOINT_TOTAL_ENDPOINTS; EndpointNum++)
 172               		.loc 1 78 0
 173 0016 11E0      		ldi r17,lo8(1)
 174               	.LVL11:
 175               	.L17:
 176               	.LBB79:
 177               	.LBB80:
  79:lufa-lib-svn/LUFA/Drivers/USB/Class/Device/MassStorageClassDevice.c **** 	{
  80:lufa-lib-svn/LUFA/Drivers/USB/Class/Device/MassStorageClassDevice.c **** 		uint16_t Size;
  81:lufa-lib-svn/LUFA/Drivers/USB/Class/Device/MassStorageClassDevice.c **** 		uint8_t  Type;
  82:lufa-lib-svn/LUFA/Drivers/USB/Class/Device/MassStorageClassDevice.c **** 		uint8_t  Direction;
  83:lufa-lib-svn/LUFA/Drivers/USB/Class/Device/MassStorageClassDevice.c **** 		bool     DoubleBanked;
  84:lufa-lib-svn/LUFA/Drivers/USB/Class/Device/MassStorageClassDevice.c **** 
  85:lufa-lib-svn/LUFA/Drivers/USB/Class/Device/MassStorageClassDevice.c **** 		if (EndpointNum == MSInterfaceInfo->Config.DataINEndpointNumber)
 178               		.loc 1 85 0
 179 0018 8981      		ldd r24,Y+1
 180 001a 1813      		cpse r17,r24
 181 001c 00C0      		rjmp .L14
  86:lufa-lib-svn/LUFA/Drivers/USB/Class/Device/MassStorageClassDevice.c **** 		{
  87:lufa-lib-svn/LUFA/Drivers/USB/Class/Device/MassStorageClassDevice.c **** 			Size         = MSInterfaceInfo->Config.DataINEndpointSize;
 182               		.loc 1 87 0
 183 001e 6A81      		ldd r22,Y+2
 184 0020 7B81      		ldd r23,Y+3
 185               	.LVL12:
  88:lufa-lib-svn/LUFA/Drivers/USB/Class/Device/MassStorageClassDevice.c **** 			Direction    = ENDPOINT_DIR_IN;
  89:lufa-lib-svn/LUFA/Drivers/USB/Class/Device/MassStorageClassDevice.c **** 			Type         = EP_TYPE_BULK;
  90:lufa-lib-svn/LUFA/Drivers/USB/Class/Device/MassStorageClassDevice.c **** 			DoubleBanked = MSInterfaceInfo->Config.DataINEndpointDoubleBank;
 186               		.loc 1 90 0
 187 0022 8C81      		ldd r24,Y+4
 188               	.LVL13:
  88:lufa-lib-svn/LUFA/Drivers/USB/Class/Device/MassStorageClassDevice.c **** 			Direction    = ENDPOINT_DIR_IN;
 189               		.loc 1 88 0
 190 0024 90E8      		ldi r25,lo8(-128)
 191 0026 00C0      		rjmp .L15
 192               	.LVL14:
 193               	.L14:
  91:lufa-lib-svn/LUFA/Drivers/USB/Class/Device/MassStorageClassDevice.c **** 		}
  92:lufa-lib-svn/LUFA/Drivers/USB/Class/Device/MassStorageClassDevice.c **** 		else if (EndpointNum == MSInterfaceInfo->Config.DataOUTEndpointNumber)
 194               		.loc 1 92 0
 195 0028 8D81      		ldd r24,Y+5
 196 002a 1817      		cp r17,r24
 197 002c 01F0      		breq .L16
 198               	.L23:
 199               	.LBE80:
  78:lufa-lib-svn/LUFA/Drivers/USB/Class/Device/MassStorageClassDevice.c **** 	for (uint8_t EndpointNum = 1; EndpointNum < ENDPOINT_TOTAL_ENDPOINTS; EndpointNum++)
 200               		.loc 1 78 0
 201 002e 1F5F      		subi r17,lo8(-(1))
 202               	.LVL15:
 203 0030 1730      		cpi r17,lo8(7)
 204 0032 01F4      		brne .L17
  93:lufa-lib-svn/LUFA/Drivers/USB/Class/Device/MassStorageClassDevice.c **** 		{
  94:lufa-lib-svn/LUFA/Drivers/USB/Class/Device/MassStorageClassDevice.c **** 			Size         = MSInterfaceInfo->Config.DataOUTEndpointSize;
  95:lufa-lib-svn/LUFA/Drivers/USB/Class/Device/MassStorageClassDevice.c **** 			Direction    = ENDPOINT_DIR_OUT;
  96:lufa-lib-svn/LUFA/Drivers/USB/Class/Device/MassStorageClassDevice.c **** 			Type         = EP_TYPE_BULK;
  97:lufa-lib-svn/LUFA/Drivers/USB/Class/Device/MassStorageClassDevice.c **** 			DoubleBanked = MSInterfaceInfo->Config.DataOUTEndpointDoubleBank;
  98:lufa-lib-svn/LUFA/Drivers/USB/Class/Device/MassStorageClassDevice.c **** 		}
  99:lufa-lib-svn/LUFA/Drivers/USB/Class/Device/MassStorageClassDevice.c **** 		else
 100:lufa-lib-svn/LUFA/Drivers/USB/Class/Device/MassStorageClassDevice.c **** 		{
 101:lufa-lib-svn/LUFA/Drivers/USB/Class/Device/MassStorageClassDevice.c **** 			continue;
 102:lufa-lib-svn/LUFA/Drivers/USB/Class/Device/MassStorageClassDevice.c **** 		}
 103:lufa-lib-svn/LUFA/Drivers/USB/Class/Device/MassStorageClassDevice.c **** 
 104:lufa-lib-svn/LUFA/Drivers/USB/Class/Device/MassStorageClassDevice.c **** 		if (!(Endpoint_ConfigureEndpoint(EndpointNum, Type, Direction, Size,
 105:lufa-lib-svn/LUFA/Drivers/USB/Class/Device/MassStorageClassDevice.c **** 		                                 DoubleBanked ? ENDPOINT_BANK_DOUBLE : ENDPOINT_BANK_SINGLE)))
 106:lufa-lib-svn/LUFA/Drivers/USB/Class/Device/MassStorageClassDevice.c **** 		{
 107:lufa-lib-svn/LUFA/Drivers/USB/Class/Device/MassStorageClassDevice.c **** 			return false;
 108:lufa-lib-svn/LUFA/Drivers/USB/Class/Device/MassStorageClassDevice.c **** 		}
 109:lufa-lib-svn/LUFA/Drivers/USB/Class/Device/MassStorageClassDevice.c **** 	}
 110:lufa-lib-svn/LUFA/Drivers/USB/Class/Device/MassStorageClassDevice.c **** 
 111:lufa-lib-svn/LUFA/Drivers/USB/Class/Device/MassStorageClassDevice.c **** 	return true;
 205               		.loc 1 111 0
 206 0034 81E0      		ldi r24,lo8(1)
 207 0036 00C0      		rjmp .L18
 208               	.LVL16:
 209               	.L16:
 210               	.LBB87:
  94:lufa-lib-svn/LUFA/Drivers/USB/Class/Device/MassStorageClassDevice.c **** 			Size         = MSInterfaceInfo->Config.DataOUTEndpointSize;
 211               		.loc 1 94 0
 212 0038 6E81      		ldd r22,Y+6
 213 003a 7F81      		ldd r23,Y+7
 214               	.LVL17:
  97:lufa-lib-svn/LUFA/Drivers/USB/Class/Device/MassStorageClassDevice.c **** 			DoubleBanked = MSInterfaceInfo->Config.DataOUTEndpointDoubleBank;
 215               		.loc 1 97 0
 216 003c 8885      		ldd r24,Y+8
 217               	.LVL18:
  95:lufa-lib-svn/LUFA/Drivers/USB/Class/Device/MassStorageClassDevice.c **** 			Direction    = ENDPOINT_DIR_OUT;
 218               		.loc 1 95 0
 219 003e 90E0      		ldi r25,0
 220               	.LVL19:
 221               	.L15:
 104:lufa-lib-svn/LUFA/Drivers/USB/Class/Device/MassStorageClassDevice.c **** 		if (!(Endpoint_ConfigureEndpoint(EndpointNum, Type, Direction, Size,
 222               		.loc 1 104 0
 223 0040 8823      		tst r24
 224 0042 01F0      		breq .L24
 225 0044 44E0      		ldi r20,lo8(4)
 226 0046 00C0      		rjmp .L19
 227               	.L24:
 228 0048 40E0      		ldi r20,0
 229               	.L19:
 230               	.LVL20:
 127:lufa-lib-svn/LUFA/Drivers/USB/Class/Device/../../Core/AVR8/../AVR8/Endpoint_AVR8.h **** 				uint16_t CheckBytes = 8;
 231               		.loc 2 127 0 discriminator 3
 232 004a 28E0      		ldi r18,lo8(8)
 233 004c 30E0      		ldi r19,0
 126:lufa-lib-svn/LUFA/Drivers/USB/Class/Device/../../Core/AVR8/../AVR8/Endpoint_AVR8.h **** 				uint8_t  MaskVal    = 0;
 234               		.loc 2 126 0 discriminator 3
 235 004e 80E0      		ldi r24,0
 236               	.LVL21:
 237 0050 00C0      		rjmp .L20
 238               	.LVL22:
 239               	.L21:
 240               	.LBB81:
 241               	.LBB82:
 242               	.LBB83:
 243               	.LBB84:
 131:lufa-lib-svn/LUFA/Drivers/USB/Class/Device/../../Core/AVR8/../AVR8/Endpoint_AVR8.h **** 					MaskVal++;
 244               		.loc 2 131 0
 245 0052 8F5F      		subi r24,lo8(-(1))
 246               	.LVL23:
 132:lufa-lib-svn/LUFA/Drivers/USB/Class/Device/../../Core/AVR8/../AVR8/Endpoint_AVR8.h **** 					CheckBytes <<= 1;
 247               		.loc 2 132 0
 248 0054 220F      		lsl r18
 249 0056 331F      		rol r19
 250               	.LVL24:
 251               	.L20:
 129:lufa-lib-svn/LUFA/Drivers/USB/Class/Device/../../Core/AVR8/../AVR8/Endpoint_AVR8.h **** 				while (CheckBytes < Bytes)
 252               		.loc 2 129 0
 253 0058 2617      		cp r18,r22
 254 005a 3707      		cpc r19,r23
 255 005c 00F0      		brlo .L21
 256               	.LBE84:
 257               	.LBE83:
 280:lufa-lib-svn/LUFA/Drivers/USB/Class/Device/../../Core/AVR8/../AVR8/Endpoint_AVR8.h **** 				return Endpoint_ConfigureEndpoint_Prv(Number, ((Type << EPTYPE0) | (Direction ? (1 << EPDIR) : 
 258               		.loc 2 280 0
 259 005e 4260      		ori r20,lo8(2)
 260               	.LVL25:
 261               	.LBB86:
 262               	.LBB85:
 135:lufa-lib-svn/LUFA/Drivers/USB/Class/Device/../../Core/AVR8/../AVR8/Endpoint_AVR8.h **** 				return (MaskVal << EPSIZE0);
 263               		.loc 2 135 0
 264 0060 8295      		swap r24
 265               	.LVL26:
 266 0062 807F      		andi r24,lo8(-16)
 267               	.LBE85:
 268               	.LBE86:
 280:lufa-lib-svn/LUFA/Drivers/USB/Class/Device/../../Core/AVR8/../AVR8/Endpoint_AVR8.h **** 				return Endpoint_ConfigureEndpoint_Prv(Number, ((Type << EPTYPE0) | (Direction ? (1 << EPDIR) : 
 269               		.loc 2 280 0
 270 0064 482B      		or r20,r24
 271 0066 61E0      		ldi r22,lo8(1)
 272               	.LVL27:
 273 0068 9111      		cpse r25,__zero_reg__
 274 006a 00C0      		rjmp .L22
 275 006c 60E0      		ldi r22,0
 276               	.L22:
 277 006e 6068      		ori r22,lo8(-128)
 278 0070 812F      		mov r24,r17
 279 0072 0E94 0000 		call Endpoint_ConfigureEndpoint_Prv
 280               	.LVL28:
 281               	.LBE82:
 282               	.LBE81:
 104:lufa-lib-svn/LUFA/Drivers/USB/Class/Device/MassStorageClassDevice.c **** 		if (!(Endpoint_ConfigureEndpoint(EndpointNum, Type, Direction, Size,
 283               		.loc 1 104 0
 284 0076 8111      		cpse r24,__zero_reg__
 285 0078 00C0      		rjmp .L23
 286               	.LVL29:
 287               	.L18:
 288               	/* epilogue start */
 289               	.LBE87:
 290               	.LBE79:
 112:lufa-lib-svn/LUFA/Drivers/USB/Class/Device/MassStorageClassDevice.c **** }
 291               		.loc 1 112 0
 292 007a DF91      		pop r29
 293 007c CF91      		pop r28
 294               	.LVL30:
 295 007e 1F91      		pop r17
 296 0080 0895      		ret
 297               		.cfi_endproc
 298               	.LFE100:
 300               		.section	.text.MS_Device_USBTask,"ax",@progbits
 301               	.global	MS_Device_USBTask
 303               	MS_Device_USBTask:
 304               	.LFB101:
 113:lufa-lib-svn/LUFA/Drivers/USB/Class/Device/MassStorageClassDevice.c **** 
 114:lufa-lib-svn/LUFA/Drivers/USB/Class/Device/MassStorageClassDevice.c **** void MS_Device_USBTask(USB_ClassInfo_MS_Device_t* const MSInterfaceInfo)
 115:lufa-lib-svn/LUFA/Drivers/USB/Class/Device/MassStorageClassDevice.c **** {
 305               		.loc 1 115 0
 306               		.cfi_startproc
 307               	.LVL31:
 308 0000 EF92      		push r14
 309               	.LCFI5:
 310               		.cfi_def_cfa_offset 3
 311               		.cfi_offset 14, -2
 312 0002 FF92      		push r15
 313               	.LCFI6:
 314               		.cfi_def_cfa_offset 4
 315               		.cfi_offset 15, -3
 316 0004 0F93      		push r16
 317               	.LCFI7:
 318               		.cfi_def_cfa_offset 5
 319               		.cfi_offset 16, -4
 320 0006 1F93      		push r17
 321               	.LCFI8:
 322               		.cfi_def_cfa_offset 6
 323               		.cfi_offset 17, -5
 324 0008 CF93      		push r28
 325               	.LCFI9:
 326               		.cfi_def_cfa_offset 7
 327               		.cfi_offset 28, -6
 328 000a DF93      		push r29
 329               	.LCFI10:
 330               		.cfi_def_cfa_offset 8
 331               		.cfi_offset 29, -7
 332 000c 00D0      		rcall .
 333               	.LCFI11:
 334               		.cfi_def_cfa_offset 10
 335 000e CDB7      		in r28,__SP_L__
 336 0010 DEB7      		in r29,__SP_H__
 337               	.LCFI12:
 338               		.cfi_def_cfa_register 28
 339               	/* prologue: function */
 340               	/* frame size = 2 */
 341               	/* stack size = 8 */
 342               	.L__stack_usage = 8
 343 0012 8C01      		movw r16,r24
 116:lufa-lib-svn/LUFA/Drivers/USB/Class/Device/MassStorageClassDevice.c **** 	if (USB_DeviceState != DEVICE_STATE_Configured)
 344               		.loc 1 116 0
 345 0014 8EB3      		in r24,0x1e
 346               	.LVL32:
 347 0016 8430      		cpi r24,lo8(4)
 348 0018 01F0      		breq .+2
 349 001a 00C0      		rjmp .L26
 117:lufa-lib-svn/LUFA/Drivers/USB/Class/Device/MassStorageClassDevice.c **** 	  return;
 118:lufa-lib-svn/LUFA/Drivers/USB/Class/Device/MassStorageClassDevice.c **** 
 119:lufa-lib-svn/LUFA/Drivers/USB/Class/Device/MassStorageClassDevice.c **** 	Endpoint_SelectEndpoint(MSInterfaceInfo->Config.DataOUTEndpointNumber);
 350               		.loc 1 119 0
 351 001c F801      		movw r30,r16
 352 001e 8581      		ldd r24,Z+5
 353               	.LVL33:
 354               	.LBB137:
 355               	.LBB138:
 334:lufa-lib-svn/LUFA/Drivers/USB/Class/Device/../../Core/AVR8/../AVR8/Endpoint_AVR8.h **** 					UENUM = EndpointNumber;
 356               		.loc 2 334 0
 357 0020 8093 E900 		sts 233,r24
 358               	.LBE138:
 359               	.LBE137:
 360               	.LBB139:
 361               	.LBB140:
 424:lufa-lib-svn/LUFA/Drivers/USB/Class/Device/../../Core/AVR8/../AVR8/Endpoint_AVR8.h **** 				return ((UEINTX & (1 << RWAL)) ? true : false);
 362               		.loc 2 424 0
 363 0024 8091 E800 		lds r24,232
 364               	.LVL34:
 365               	.LBE140:
 366               	.LBE139:
 120:lufa-lib-svn/LUFA/Drivers/USB/Class/Device/MassStorageClassDevice.c **** 
 121:lufa-lib-svn/LUFA/Drivers/USB/Class/Device/MassStorageClassDevice.c **** 	if (Endpoint_IsReadWriteAllowed())
 367               		.loc 1 121 0
 368 0028 85FF      		sbrs r24,5
 369 002a 00C0      		rjmp .L30
 370               	.LVL35:
 371               	.LBB141:
 372               	.LBB142:
 122:lufa-lib-svn/LUFA/Drivers/USB/Class/Device/MassStorageClassDevice.c **** 	{
 123:lufa-lib-svn/LUFA/Drivers/USB/Class/Device/MassStorageClassDevice.c **** 		if (MS_Device_ReadInCommandBlock(MSInterfaceInfo))
 124:lufa-lib-svn/LUFA/Drivers/USB/Class/Device/MassStorageClassDevice.c **** 		{
 125:lufa-lib-svn/LUFA/Drivers/USB/Class/Device/MassStorageClassDevice.c **** 			if (MSInterfaceInfo->State.CommandBlock.Flags & MS_COMMAND_DIR_DATA_IN)
 126:lufa-lib-svn/LUFA/Drivers/USB/Class/Device/MassStorageClassDevice.c **** 			  Endpoint_SelectEndpoint(MSInterfaceInfo->Config.DataINEndpointNumber);
 127:lufa-lib-svn/LUFA/Drivers/USB/Class/Device/MassStorageClassDevice.c **** 
 128:lufa-lib-svn/LUFA/Drivers/USB/Class/Device/MassStorageClassDevice.c **** 			bool SCSICommandResult = CALLBACK_MS_Device_SCSICommandReceived(MSInterfaceInfo);
 129:lufa-lib-svn/LUFA/Drivers/USB/Class/Device/MassStorageClassDevice.c **** 
 130:lufa-lib-svn/LUFA/Drivers/USB/Class/Device/MassStorageClassDevice.c **** 			MSInterfaceInfo->State.CommandStatus.Status              = (SCSICommandResult) ? MS_SCSI_COMMAND
 131:lufa-lib-svn/LUFA/Drivers/USB/Class/Device/MassStorageClassDevice.c **** 			MSInterfaceInfo->State.CommandStatus.Signature           = CPU_TO_LE32(MS_CSW_SIGNATURE);
 132:lufa-lib-svn/LUFA/Drivers/USB/Class/Device/MassStorageClassDevice.c **** 			MSInterfaceInfo->State.CommandStatus.Tag                 = MSInterfaceInfo->State.CommandBlock.T
 133:lufa-lib-svn/LUFA/Drivers/USB/Class/Device/MassStorageClassDevice.c **** 			MSInterfaceInfo->State.CommandStatus.DataTransferResidue = MSInterfaceInfo->State.CommandBlock.D
 134:lufa-lib-svn/LUFA/Drivers/USB/Class/Device/MassStorageClassDevice.c **** 
 135:lufa-lib-svn/LUFA/Drivers/USB/Class/Device/MassStorageClassDevice.c **** 			if (!(SCSICommandResult) && (le32_to_cpu(MSInterfaceInfo->State.CommandStatus.DataTransferResidu
 136:lufa-lib-svn/LUFA/Drivers/USB/Class/Device/MassStorageClassDevice.c **** 			  Endpoint_StallTransaction();
 137:lufa-lib-svn/LUFA/Drivers/USB/Class/Device/MassStorageClassDevice.c **** 
 138:lufa-lib-svn/LUFA/Drivers/USB/Class/Device/MassStorageClassDevice.c **** 			MS_Device_ReturnCommandStatus(MSInterfaceInfo);
 139:lufa-lib-svn/LUFA/Drivers/USB/Class/Device/MassStorageClassDevice.c **** 		}
 140:lufa-lib-svn/LUFA/Drivers/USB/Class/Device/MassStorageClassDevice.c **** 	}
 141:lufa-lib-svn/LUFA/Drivers/USB/Class/Device/MassStorageClassDevice.c **** 
 142:lufa-lib-svn/LUFA/Drivers/USB/Class/Device/MassStorageClassDevice.c **** 	if (MSInterfaceInfo->State.IsMassStoreReset)
 143:lufa-lib-svn/LUFA/Drivers/USB/Class/Device/MassStorageClassDevice.c **** 	{
 144:lufa-lib-svn/LUFA/Drivers/USB/Class/Device/MassStorageClassDevice.c **** 		Endpoint_ResetEndpoint(MSInterfaceInfo->Config.DataOUTEndpointNumber);
 145:lufa-lib-svn/LUFA/Drivers/USB/Class/Device/MassStorageClassDevice.c **** 		Endpoint_ResetEndpoint(MSInterfaceInfo->Config.DataINEndpointNumber);
 146:lufa-lib-svn/LUFA/Drivers/USB/Class/Device/MassStorageClassDevice.c **** 
 147:lufa-lib-svn/LUFA/Drivers/USB/Class/Device/MassStorageClassDevice.c **** 		Endpoint_SelectEndpoint(MSInterfaceInfo->Config.DataOUTEndpointNumber);
 148:lufa-lib-svn/LUFA/Drivers/USB/Class/Device/MassStorageClassDevice.c **** 		Endpoint_ClearStall();
 149:lufa-lib-svn/LUFA/Drivers/USB/Class/Device/MassStorageClassDevice.c **** 		Endpoint_ResetDataToggle();
 150:lufa-lib-svn/LUFA/Drivers/USB/Class/Device/MassStorageClassDevice.c **** 		Endpoint_SelectEndpoint(MSInterfaceInfo->Config.DataINEndpointNumber);
 151:lufa-lib-svn/LUFA/Drivers/USB/Class/Device/MassStorageClassDevice.c **** 		Endpoint_ClearStall();
 152:lufa-lib-svn/LUFA/Drivers/USB/Class/Device/MassStorageClassDevice.c **** 		Endpoint_ResetDataToggle();
 153:lufa-lib-svn/LUFA/Drivers/USB/Class/Device/MassStorageClassDevice.c **** 
 154:lufa-lib-svn/LUFA/Drivers/USB/Class/Device/MassStorageClassDevice.c **** 		MSInterfaceInfo->State.IsMassStoreReset = false;
 155:lufa-lib-svn/LUFA/Drivers/USB/Class/Device/MassStorageClassDevice.c **** 	}
 156:lufa-lib-svn/LUFA/Drivers/USB/Class/Device/MassStorageClassDevice.c **** }
 157:lufa-lib-svn/LUFA/Drivers/USB/Class/Device/MassStorageClassDevice.c **** 
 158:lufa-lib-svn/LUFA/Drivers/USB/Class/Device/MassStorageClassDevice.c **** static bool MS_Device_ReadInCommandBlock(USB_ClassInfo_MS_Device_t* const MSInterfaceInfo)
 159:lufa-lib-svn/LUFA/Drivers/USB/Class/Device/MassStorageClassDevice.c **** {
 160:lufa-lib-svn/LUFA/Drivers/USB/Class/Device/MassStorageClassDevice.c **** 	uint16_t BytesProcessed;
 161:lufa-lib-svn/LUFA/Drivers/USB/Class/Device/MassStorageClassDevice.c **** 
 162:lufa-lib-svn/LUFA/Drivers/USB/Class/Device/MassStorageClassDevice.c **** 	Endpoint_SelectEndpoint(MSInterfaceInfo->Config.DataOUTEndpointNumber);
 373               		.loc 1 162 0
 374 002c 8581      		ldd r24,Z+5
 375               	.LVL36:
 376               	.LBB143:
 377               	.LBB144:
 334:lufa-lib-svn/LUFA/Drivers/USB/Class/Device/../../Core/AVR8/../AVR8/Endpoint_AVR8.h **** 					UENUM = EndpointNumber;
 378               		.loc 2 334 0
 379 002e 8093 E900 		sts 233,r24
 380               	.LBE144:
 381               	.LBE143:
 163:lufa-lib-svn/LUFA/Drivers/USB/Class/Device/MassStorageClassDevice.c **** 
 164:lufa-lib-svn/LUFA/Drivers/USB/Class/Device/MassStorageClassDevice.c **** 	BytesProcessed = 0;
 382               		.loc 1 164 0
 383 0032 1A82      		std Y+2,__zero_reg__
 384 0034 1982      		std Y+1,__zero_reg__
 385               	.LVL37:
 165:lufa-lib-svn/LUFA/Drivers/USB/Class/Device/MassStorageClassDevice.c **** 	while (Endpoint_Read_Stream_LE(&MSInterfaceInfo->State.CommandBlock,
 386               		.loc 1 165 0
 387 0036 7801      		movw r14,r16
 388 0038 FAE0      		ldi r31,10
 389 003a EF0E      		add r14,r31
 390 003c F11C      		adc r15,__zero_reg__
 391 003e 00C0      		rjmp .L31
 392               	.LVL38:
 393               	.L33:
 166:lufa-lib-svn/LUFA/Drivers/USB/Class/Device/MassStorageClassDevice.c **** 	                               (sizeof(MS_CommandBlockWrapper_t) - 16), &BytesProcessed) ==
 167:lufa-lib-svn/LUFA/Drivers/USB/Class/Device/MassStorageClassDevice.c **** 	                               ENDPOINT_RWSTREAM_IncompleteTransfer)
 168:lufa-lib-svn/LUFA/Drivers/USB/Class/Device/MassStorageClassDevice.c **** 	{
 169:lufa-lib-svn/LUFA/Drivers/USB/Class/Device/MassStorageClassDevice.c **** 		if (MSInterfaceInfo->State.IsMassStoreReset)
 394               		.loc 1 169 0
 395 0040 86A9      		ldd r24,Z+54
 396 0042 8111      		cpse r24,__zero_reg__
 397 0044 00C0      		rjmp .L30
 398               	.L31:
 165:lufa-lib-svn/LUFA/Drivers/USB/Class/Device/MassStorageClassDevice.c **** 	while (Endpoint_Read_Stream_LE(&MSInterfaceInfo->State.CommandBlock,
 399               		.loc 1 165 0
 400 0046 AE01      		movw r20,r28
 401 0048 4F5F      		subi r20,-1
 402 004a 5F4F      		sbci r21,-1
 403 004c 6FE0      		ldi r22,lo8(15)
 404 004e 70E0      		ldi r23,0
 405 0050 C701      		movw r24,r14
 406 0052 0E94 0000 		call Endpoint_Read_Stream_LE
 407               	.LVL39:
 408               		.loc 1 169 0
 409 0056 F801      		movw r30,r16
 165:lufa-lib-svn/LUFA/Drivers/USB/Class/Device/MassStorageClassDevice.c **** 	while (Endpoint_Read_Stream_LE(&MSInterfaceInfo->State.CommandBlock,
 410               		.loc 1 165 0
 411 0058 8530      		cpi r24,lo8(5)
 412 005a 01F0      		breq .L33
 170:lufa-lib-svn/LUFA/Drivers/USB/Class/Device/MassStorageClassDevice.c **** 		  return false;
 171:lufa-lib-svn/LUFA/Drivers/USB/Class/Device/MassStorageClassDevice.c **** 	}
 172:lufa-lib-svn/LUFA/Drivers/USB/Class/Device/MassStorageClassDevice.c **** 
 173:lufa-lib-svn/LUFA/Drivers/USB/Class/Device/MassStorageClassDevice.c **** 	if ((MSInterfaceInfo->State.CommandBlock.Signature         != CPU_TO_LE32(MS_CBW_SIGNATURE))     |
 413               		.loc 1 173 0
 414 005c 4285      		ldd r20,Z+10
 415 005e 5385      		ldd r21,Z+11
 416 0060 6485      		ldd r22,Z+12
 417 0062 7585      		ldd r23,Z+13
 418 0064 4535      		cpi r20,85
 419 0066 5345      		sbci r21,83
 420 0068 6244      		sbci r22,66
 421 006a 7344      		sbci r23,67
 422 006c 01F4      		brne .L34
 423 006e F801      		movw r30,r16
 424 0070 9789      		ldd r25,Z+23
 425 0072 8185      		ldd r24,Z+9
 426 0074 9817      		cp r25,r24
 427 0076 00F4      		brsh .L34
 428               	.LBE142:
 174:lufa-lib-svn/LUFA/Drivers/USB/Class/Device/MassStorageClassDevice.c **** 	    (MSInterfaceInfo->State.CommandBlock.LUN               >= MSInterfaceInfo->Config.TotalLUNs) |
 175:lufa-lib-svn/LUFA/Drivers/USB/Class/Device/MassStorageClassDevice.c **** 		(MSInterfaceInfo->State.CommandBlock.Flags              & 0x1F)                              ||
 429               		.loc 1 175 0
 430 0078 8689      		ldd r24,Z+22
 431 007a 8F71      		andi r24,lo8(31)
 432               	.LBB153:
 174:lufa-lib-svn/LUFA/Drivers/USB/Class/Device/MassStorageClassDevice.c **** 	    (MSInterfaceInfo->State.CommandBlock.LUN               >= MSInterfaceInfo->Config.TotalLUNs) |
 433               		.loc 1 174 0
 434 007c 01F4      		brne .L34
 176:lufa-lib-svn/LUFA/Drivers/USB/Class/Device/MassStorageClassDevice.c **** 		(MSInterfaceInfo->State.CommandBlock.SCSICommandLength == 0)                                 ||
 435               		.loc 1 176 0
 436 007e 808D      		ldd r24,Z+24
 175:lufa-lib-svn/LUFA/Drivers/USB/Class/Device/MassStorageClassDevice.c **** 		(MSInterfaceInfo->State.CommandBlock.Flags              & 0x1F)                              ||
 437               		.loc 1 175 0
 438 0080 8823      		tst r24
 439 0082 01F0      		breq .L34
 440               		.loc 1 176 0
 441 0084 8131      		cpi r24,lo8(17)
 442 0086 00F0      		brlo .L35
 443               	.L34:
 444               	.LBB145:
 445               	.LBB146:
 555:lufa-lib-svn/LUFA/Drivers/USB/Class/Device/../../Core/AVR8/../AVR8/Endpoint_AVR8.h **** 				UECONX |= (1 << STALLRQ);
 446               		.loc 2 555 0
 447 0088 8091 EB00 		lds r24,235
 448 008c 8062      		ori r24,lo8(32)
 449 008e 8093 EB00 		sts 235,r24
 450               	.LBE146:
 451               	.LBE145:
 177:lufa-lib-svn/LUFA/Drivers/USB/Class/Device/MassStorageClassDevice.c **** 		(MSInterfaceInfo->State.CommandBlock.SCSICommandLength >  16))
 178:lufa-lib-svn/LUFA/Drivers/USB/Class/Device/MassStorageClassDevice.c **** 	{
 179:lufa-lib-svn/LUFA/Drivers/USB/Class/Device/MassStorageClassDevice.c **** 		Endpoint_StallTransaction();
 180:lufa-lib-svn/LUFA/Drivers/USB/Class/Device/MassStorageClassDevice.c **** 		Endpoint_SelectEndpoint(MSInterfaceInfo->Config.DataINEndpointNumber);
 452               		.loc 1 180 0
 453 0092 F801      		movw r30,r16
 454 0094 8181      		ldd r24,Z+1
 455               	.LVL40:
 456               	.LBB147:
 457               	.LBB148:
 334:lufa-lib-svn/LUFA/Drivers/USB/Class/Device/../../Core/AVR8/../AVR8/Endpoint_AVR8.h **** 					UENUM = EndpointNumber;
 458               		.loc 2 334 0
 459 0096 8093 E900 		sts 233,r24
 460               	.LBE148:
 461               	.LBE147:
 462               	.LBB149:
 463               	.LBB150:
 555:lufa-lib-svn/LUFA/Drivers/USB/Class/Device/../../Core/AVR8/../AVR8/Endpoint_AVR8.h **** 				UECONX |= (1 << STALLRQ);
 464               		.loc 2 555 0
 465 009a 8091 EB00 		lds r24,235
 466               	.LVL41:
 467 009e 8062      		ori r24,lo8(32)
 468 00a0 8093 EB00 		sts 235,r24
 469 00a4 00C0      		rjmp .L30
 470               	.LVL42:
 471               	.L35:
 472               	.LBE150:
 473               	.LBE149:
 181:lufa-lib-svn/LUFA/Drivers/USB/Class/Device/MassStorageClassDevice.c **** 		Endpoint_StallTransaction();
 182:lufa-lib-svn/LUFA/Drivers/USB/Class/Device/MassStorageClassDevice.c **** 
 183:lufa-lib-svn/LUFA/Drivers/USB/Class/Device/MassStorageClassDevice.c **** 		return false;
 184:lufa-lib-svn/LUFA/Drivers/USB/Class/Device/MassStorageClassDevice.c **** 	}
 185:lufa-lib-svn/LUFA/Drivers/USB/Class/Device/MassStorageClassDevice.c **** 
 186:lufa-lib-svn/LUFA/Drivers/USB/Class/Device/MassStorageClassDevice.c **** 	BytesProcessed = 0;
 474               		.loc 1 186 0
 475 00a6 1A82      		std Y+2,__zero_reg__
 476 00a8 1982      		std Y+1,__zero_reg__
 187:lufa-lib-svn/LUFA/Drivers/USB/Class/Device/MassStorageClassDevice.c **** 	while (Endpoint_Read_Stream_LE(&MSInterfaceInfo->State.CommandBlock.SCSICommandData,
 477               		.loc 1 187 0
 478 00aa 7801      		movw r14,r16
 479 00ac F9E1      		ldi r31,25
 480 00ae EF0E      		add r14,r31
 481 00b0 F11C      		adc r15,__zero_reg__
 482 00b2 00C0      		rjmp .L36
 483               	.L38:
 188:lufa-lib-svn/LUFA/Drivers/USB/Class/Device/MassStorageClassDevice.c **** 	                                MSInterfaceInfo->State.CommandBlock.SCSICommandLength, &BytesProce
 189:lufa-lib-svn/LUFA/Drivers/USB/Class/Device/MassStorageClassDevice.c **** 	                                ENDPOINT_RWSTREAM_IncompleteTransfer)
 190:lufa-lib-svn/LUFA/Drivers/USB/Class/Device/MassStorageClassDevice.c **** 	{
 191:lufa-lib-svn/LUFA/Drivers/USB/Class/Device/MassStorageClassDevice.c **** 		if (MSInterfaceInfo->State.IsMassStoreReset)
 484               		.loc 1 191 0
 485 00b4 F801      		movw r30,r16
 486 00b6 86A9      		ldd r24,Z+54
 487 00b8 8111      		cpse r24,__zero_reg__
 488 00ba 00C0      		rjmp .L30
 489               	.L36:
 187:lufa-lib-svn/LUFA/Drivers/USB/Class/Device/MassStorageClassDevice.c **** 	while (Endpoint_Read_Stream_LE(&MSInterfaceInfo->State.CommandBlock.SCSICommandData,
 490               		.loc 1 187 0
 491 00bc F801      		movw r30,r16
 492 00be 608D      		ldd r22,Z+24
 493 00c0 AE01      		movw r20,r28
 494 00c2 4F5F      		subi r20,-1
 495 00c4 5F4F      		sbci r21,-1
 496 00c6 70E0      		ldi r23,0
 497 00c8 C701      		movw r24,r14
 498 00ca 0E94 0000 		call Endpoint_Read_Stream_LE
 499               	.LVL43:
 500 00ce 8530      		cpi r24,lo8(5)
 501 00d0 01F0      		breq .L38
 502               	.LBB151:
 503               	.LBB152:
 535:lufa-lib-svn/LUFA/Drivers/USB/Class/Device/../../Core/AVR8/../AVR8/Endpoint_AVR8.h **** 					UEINTX &= ~((1 << RXOUTI) | (1 << FIFOCON));
 504               		.loc 2 535 0
 505 00d2 8091 E800 		lds r24,232
 506 00d6 8B77      		andi r24,lo8(123)
 507 00d8 8093 E800 		sts 232,r24
 508               	.LBE152:
 509               	.LBE151:
 510               	.LBE153:
 511               	.LBE141:
 512               	.LBB154:
 125:lufa-lib-svn/LUFA/Drivers/USB/Class/Device/MassStorageClassDevice.c **** 			if (MSInterfaceInfo->State.CommandBlock.Flags & MS_COMMAND_DIR_DATA_IN)
 513               		.loc 1 125 0
 514 00dc F801      		movw r30,r16
 515 00de 8689      		ldd r24,Z+22
 516 00e0 87FF      		sbrs r24,7
 517 00e2 00C0      		rjmp .L40
 126:lufa-lib-svn/LUFA/Drivers/USB/Class/Device/MassStorageClassDevice.c **** 			  Endpoint_SelectEndpoint(MSInterfaceInfo->Config.DataINEndpointNumber);
 518               		.loc 1 126 0
 519 00e4 8181      		ldd r24,Z+1
 520               	.LVL44:
 521               	.LBB155:
 522               	.LBB156:
 334:lufa-lib-svn/LUFA/Drivers/USB/Class/Device/../../Core/AVR8/../AVR8/Endpoint_AVR8.h **** 					UENUM = EndpointNumber;
 523               		.loc 2 334 0
 524 00e6 8093 E900 		sts 233,r24
 525               	.LVL45:
 526               	.L40:
 527               	.LBE156:
 528               	.LBE155:
 128:lufa-lib-svn/LUFA/Drivers/USB/Class/Device/MassStorageClassDevice.c **** 			bool SCSICommandResult = CALLBACK_MS_Device_SCSICommandReceived(MSInterfaceInfo);
 529               		.loc 1 128 0
 530 00ea C801      		movw r24,r16
 531 00ec 0E94 0000 		call CALLBACK_MS_Device_SCSICommandReceived
 532               	.LVL46:
 130:lufa-lib-svn/LUFA/Drivers/USB/Class/Device/MassStorageClassDevice.c **** 			MSInterfaceInfo->State.CommandStatus.Status              = (SCSICommandResult) ? MS_SCSI_COMMAND
 533               		.loc 1 130 0
 534 00f0 91E0      		ldi r25,lo8(1)
 535 00f2 9827      		eor r25,r24
 536 00f4 F801      		movw r30,r16
 537 00f6 95AB      		std Z+53,r25
 131:lufa-lib-svn/LUFA/Drivers/USB/Class/Device/MassStorageClassDevice.c **** 			MSInterfaceInfo->State.CommandStatus.Signature           = CPU_TO_LE32(MS_CSW_SIGNATURE);
 538               		.loc 1 131 0
 539 00f8 45E5      		ldi r20,lo8(85)
 540 00fa 53E5      		ldi r21,lo8(83)
 541 00fc 62E4      		ldi r22,lo8(66)
 542 00fe 73E5      		ldi r23,lo8(83)
 543 0100 41A7      		std Z+41,r20
 544 0102 52A7      		std Z+42,r21
 545 0104 63A7      		std Z+43,r22
 546 0106 74A7      		std Z+44,r23
 132:lufa-lib-svn/LUFA/Drivers/USB/Class/Device/MassStorageClassDevice.c **** 			MSInterfaceInfo->State.CommandStatus.Tag                 = MSInterfaceInfo->State.CommandBlock.T
 547               		.loc 1 132 0
 548 0108 4685      		ldd r20,Z+14
 549 010a 5785      		ldd r21,Z+15
 550 010c 6089      		ldd r22,Z+16
 551 010e 7189      		ldd r23,Z+17
 552 0110 45A7      		std Z+45,r20
 553 0112 56A7      		std Z+46,r21
 554 0114 67A7      		std Z+47,r22
 555 0116 70AB      		std Z+48,r23
 133:lufa-lib-svn/LUFA/Drivers/USB/Class/Device/MassStorageClassDevice.c **** 			MSInterfaceInfo->State.CommandStatus.DataTransferResidue = MSInterfaceInfo->State.CommandBlock.D
 556               		.loc 1 133 0
 557 0118 4289      		ldd r20,Z+18
 558 011a 5389      		ldd r21,Z+19
 559 011c 6489      		ldd r22,Z+20
 560 011e 7589      		ldd r23,Z+21
 561 0120 41AB      		std Z+49,r20
 562 0122 52AB      		std Z+50,r21
 563 0124 63AB      		std Z+51,r22
 564 0126 74AB      		std Z+52,r23
 135:lufa-lib-svn/LUFA/Drivers/USB/Class/Device/MassStorageClassDevice.c **** 			if (!(SCSICommandResult) && (le32_to_cpu(MSInterfaceInfo->State.CommandStatus.DataTransferResidu
 565               		.loc 1 135 0
 566 0128 8111      		cpse r24,__zero_reg__
 567 012a 00C0      		rjmp .L41
 135:lufa-lib-svn/LUFA/Drivers/USB/Class/Device/MassStorageClassDevice.c **** 			if (!(SCSICommandResult) && (le32_to_cpu(MSInterfaceInfo->State.CommandStatus.DataTransferResidu
 568               		.loc 1 135 0 is_stmt 0 discriminator 1
 569 012c 452B      		or r20,r21
 570 012e 462B      		or r20,r22
 571 0130 472B      		or r20,r23
 572 0132 01F0      		breq .L41
 573               	.LBB157:
 574               	.LBB158:
 555:lufa-lib-svn/LUFA/Drivers/USB/Class/Device/../../Core/AVR8/../AVR8/Endpoint_AVR8.h **** 				UECONX |= (1 << STALLRQ);
 575               		.loc 2 555 0 is_stmt 1
 576 0134 8091 EB00 		lds r24,235
 577               	.LVL47:
 578 0138 8062      		ori r24,lo8(32)
 579 013a 8093 EB00 		sts 235,r24
 580               	.L41:
 581               	.LVL48:
 582               	.LBE158:
 583               	.LBE157:
 584               	.LBB159:
 585               	.LBB160:
 192:lufa-lib-svn/LUFA/Drivers/USB/Class/Device/MassStorageClassDevice.c **** 		  return false;
 193:lufa-lib-svn/LUFA/Drivers/USB/Class/Device/MassStorageClassDevice.c **** 	}
 194:lufa-lib-svn/LUFA/Drivers/USB/Class/Device/MassStorageClassDevice.c **** 
 195:lufa-lib-svn/LUFA/Drivers/USB/Class/Device/MassStorageClassDevice.c **** 	Endpoint_ClearOUT();
 196:lufa-lib-svn/LUFA/Drivers/USB/Class/Device/MassStorageClassDevice.c **** 
 197:lufa-lib-svn/LUFA/Drivers/USB/Class/Device/MassStorageClassDevice.c **** 	return true;
 198:lufa-lib-svn/LUFA/Drivers/USB/Class/Device/MassStorageClassDevice.c **** }
 199:lufa-lib-svn/LUFA/Drivers/USB/Class/Device/MassStorageClassDevice.c **** 
 200:lufa-lib-svn/LUFA/Drivers/USB/Class/Device/MassStorageClassDevice.c **** static void MS_Device_ReturnCommandStatus(USB_ClassInfo_MS_Device_t* const MSInterfaceInfo)
 201:lufa-lib-svn/LUFA/Drivers/USB/Class/Device/MassStorageClassDevice.c **** {
 202:lufa-lib-svn/LUFA/Drivers/USB/Class/Device/MassStorageClassDevice.c **** 	Endpoint_SelectEndpoint(MSInterfaceInfo->Config.DataOUTEndpointNumber);
 586               		.loc 1 202 0
 587 013e F801      		movw r30,r16
 588 0140 8581      		ldd r24,Z+5
 589               	.LVL49:
 590               	.LBB161:
 591               	.LBB162:
 334:lufa-lib-svn/LUFA/Drivers/USB/Class/Device/../../Core/AVR8/../AVR8/Endpoint_AVR8.h **** 					UENUM = EndpointNumber;
 592               		.loc 2 334 0
 593 0142 8093 E900 		sts 233,r24
 594 0146 00C0      		rjmp .L42
 595               	.LVL50:
 596               	.L44:
 597               	.LBE162:
 598               	.LBE161:
 203:lufa-lib-svn/LUFA/Drivers/USB/Class/Device/MassStorageClassDevice.c **** 
 204:lufa-lib-svn/LUFA/Drivers/USB/Class/Device/MassStorageClassDevice.c **** 	while (Endpoint_IsStalled())
 205:lufa-lib-svn/LUFA/Drivers/USB/Class/Device/MassStorageClassDevice.c **** 	{
 206:lufa-lib-svn/LUFA/Drivers/USB/Class/Device/MassStorageClassDevice.c **** 		#if !defined(INTERRUPT_CONTROL_ENDPOINT)
 207:lufa-lib-svn/LUFA/Drivers/USB/Class/Device/MassStorageClassDevice.c **** 		USB_USBTask();
 208:lufa-lib-svn/LUFA/Drivers/USB/Class/Device/MassStorageClassDevice.c **** 		#endif
 209:lufa-lib-svn/LUFA/Drivers/USB/Class/Device/MassStorageClassDevice.c **** 
 210:lufa-lib-svn/LUFA/Drivers/USB/Class/Device/MassStorageClassDevice.c **** 		if (MSInterfaceInfo->State.IsMassStoreReset)
 599               		.loc 1 210 0
 600 0148 86A9      		ldd r24,Z+54
 601 014a 8111      		cpse r24,__zero_reg__
 602 014c 00C0      		rjmp .L30
 603               	.L42:
 604               	.LBB163:
 605               	.LBB164:
 577:lufa-lib-svn/LUFA/Drivers/USB/Class/Device/../../Core/AVR8/../AVR8/Endpoint_AVR8.h **** 				return ((UECONX & (1 << STALLRQ)) ? true : false);
 606               		.loc 2 577 0
 607 014e 8091 EB00 		lds r24,235
 608               	.LBE164:
 609               	.LBE163:
 610               		.loc 1 210 0
 611 0152 F801      		movw r30,r16
 204:lufa-lib-svn/LUFA/Drivers/USB/Class/Device/MassStorageClassDevice.c **** 	while (Endpoint_IsStalled())
 612               		.loc 1 204 0
 613 0154 85FD      		sbrc r24,5
 614 0156 00C0      		rjmp .L44
 211:lufa-lib-svn/LUFA/Drivers/USB/Class/Device/MassStorageClassDevice.c **** 		  return;
 212:lufa-lib-svn/LUFA/Drivers/USB/Class/Device/MassStorageClassDevice.c **** 	}
 213:lufa-lib-svn/LUFA/Drivers/USB/Class/Device/MassStorageClassDevice.c **** 
 214:lufa-lib-svn/LUFA/Drivers/USB/Class/Device/MassStorageClassDevice.c **** 	Endpoint_SelectEndpoint(MSInterfaceInfo->Config.DataINEndpointNumber);
 615               		.loc 1 214 0
 616 0158 8181      		ldd r24,Z+1
 617               	.LVL51:
 618               	.LBB165:
 619               	.LBB166:
 334:lufa-lib-svn/LUFA/Drivers/USB/Class/Device/../../Core/AVR8/../AVR8/Endpoint_AVR8.h **** 					UENUM = EndpointNumber;
 620               		.loc 2 334 0
 621 015a 8093 E900 		sts 233,r24
 622 015e 00C0      		rjmp .L45
 623               	.LVL52:
 624               	.L46:
 625               	.LBE166:
 626               	.LBE165:
 215:lufa-lib-svn/LUFA/Drivers/USB/Class/Device/MassStorageClassDevice.c **** 
 216:lufa-lib-svn/LUFA/Drivers/USB/Class/Device/MassStorageClassDevice.c **** 	while (Endpoint_IsStalled())
 217:lufa-lib-svn/LUFA/Drivers/USB/Class/Device/MassStorageClassDevice.c **** 	{
 218:lufa-lib-svn/LUFA/Drivers/USB/Class/Device/MassStorageClassDevice.c **** 		#if !defined(INTERRUPT_CONTROL_ENDPOINT)
 219:lufa-lib-svn/LUFA/Drivers/USB/Class/Device/MassStorageClassDevice.c **** 		USB_USBTask();
 220:lufa-lib-svn/LUFA/Drivers/USB/Class/Device/MassStorageClassDevice.c **** 		#endif
 221:lufa-lib-svn/LUFA/Drivers/USB/Class/Device/MassStorageClassDevice.c **** 
 222:lufa-lib-svn/LUFA/Drivers/USB/Class/Device/MassStorageClassDevice.c **** 		if (MSInterfaceInfo->State.IsMassStoreReset)
 627               		.loc 1 222 0
 628 0160 F801      		movw r30,r16
 629 0162 86A9      		ldd r24,Z+54
 630 0164 8111      		cpse r24,__zero_reg__
 631 0166 00C0      		rjmp .L30
 632               	.L45:
 633               	.LBB167:
 634               	.LBB168:
 577:lufa-lib-svn/LUFA/Drivers/USB/Class/Device/../../Core/AVR8/../AVR8/Endpoint_AVR8.h **** 				return ((UECONX & (1 << STALLRQ)) ? true : false);
 635               		.loc 2 577 0
 636 0168 8091 EB00 		lds r24,235
 637               	.LBE168:
 638               	.LBE167:
 216:lufa-lib-svn/LUFA/Drivers/USB/Class/Device/MassStorageClassDevice.c **** 	while (Endpoint_IsStalled())
 639               		.loc 1 216 0
 640 016c 85FD      		sbrc r24,5
 641 016e 00C0      		rjmp .L46
 223:lufa-lib-svn/LUFA/Drivers/USB/Class/Device/MassStorageClassDevice.c **** 		  return;
 224:lufa-lib-svn/LUFA/Drivers/USB/Class/Device/MassStorageClassDevice.c **** 	}
 225:lufa-lib-svn/LUFA/Drivers/USB/Class/Device/MassStorageClassDevice.c **** 
 226:lufa-lib-svn/LUFA/Drivers/USB/Class/Device/MassStorageClassDevice.c **** 	uint16_t BytesProcessed = 0;
 642               		.loc 1 226 0
 643 0170 1A82      		std Y+2,__zero_reg__
 644 0172 1982      		std Y+1,__zero_reg__
 645               	.LVL53:
 227:lufa-lib-svn/LUFA/Drivers/USB/Class/Device/MassStorageClassDevice.c **** 	while (Endpoint_Write_Stream_LE(&MSInterfaceInfo->State.CommandStatus,
 646               		.loc 1 227 0
 647 0174 7801      		movw r14,r16
 648 0176 F9E2      		ldi r31,41
 649 0178 EF0E      		add r14,r31
 650 017a F11C      		adc r15,__zero_reg__
 651 017c 00C0      		rjmp .L47
 652               	.LVL54:
 653               	.L48:
 228:lufa-lib-svn/LUFA/Drivers/USB/Class/Device/MassStorageClassDevice.c **** 	                                sizeof(MS_CommandStatusWrapper_t), &BytesProcessed) ==
 229:lufa-lib-svn/LUFA/Drivers/USB/Class/Device/MassStorageClassDevice.c **** 	                                ENDPOINT_RWSTREAM_IncompleteTransfer)
 230:lufa-lib-svn/LUFA/Drivers/USB/Class/Device/MassStorageClassDevice.c **** 	{
 231:lufa-lib-svn/LUFA/Drivers/USB/Class/Device/MassStorageClassDevice.c **** 		if (MSInterfaceInfo->State.IsMassStoreReset)
 654               		.loc 1 231 0
 655 017e F801      		movw r30,r16
 656 0180 86A9      		ldd r24,Z+54
 657 0182 8111      		cpse r24,__zero_reg__
 658 0184 00C0      		rjmp .L30
 659               	.L47:
 227:lufa-lib-svn/LUFA/Drivers/USB/Class/Device/MassStorageClassDevice.c **** 	while (Endpoint_Write_Stream_LE(&MSInterfaceInfo->State.CommandStatus,
 660               		.loc 1 227 0
 661 0186 AE01      		movw r20,r28
 662 0188 4F5F      		subi r20,-1
 663 018a 5F4F      		sbci r21,-1
 664 018c 6DE0      		ldi r22,lo8(13)
 665 018e 70E0      		ldi r23,0
 666 0190 C701      		movw r24,r14
 667 0192 0E94 0000 		call Endpoint_Write_Stream_LE
 668               	.LVL55:
 669 0196 8530      		cpi r24,lo8(5)
 670 0198 01F0      		breq .L48
 671               	.LBB169:
 672               	.LBB170:
 520:lufa-lib-svn/LUFA/Drivers/USB/Class/Device/../../Core/AVR8/../AVR8/Endpoint_AVR8.h **** 					UEINTX &= ~((1 << TXINI) | (1 << FIFOCON));
 673               		.loc 2 520 0
 674 019a 8091 E800 		lds r24,232
 675 019e 8E77      		andi r24,lo8(126)
 676 01a0 8093 E800 		sts 232,r24
 677               	.LVL56:
 678               	.L30:
 679               	.LBE170:
 680               	.LBE169:
 681               	.LBE160:
 682               	.LBE159:
 683               	.LBE154:
 142:lufa-lib-svn/LUFA/Drivers/USB/Class/Device/MassStorageClassDevice.c **** 	if (MSInterfaceInfo->State.IsMassStoreReset)
 684               		.loc 1 142 0
 685 01a4 F801      		movw r30,r16
 686 01a6 86A9      		ldd r24,Z+54
 687 01a8 8823      		tst r24
 688 01aa 01F0      		breq .L26
 689               	.LBB171:
 690               	.LBB172:
 346:lufa-lib-svn/LUFA/Drivers/USB/Class/Device/../../Core/AVR8/../AVR8/Endpoint_AVR8.h **** 				UERST = (1 << EndpointNumber);
 691               		.loc 2 346 0
 692 01ac 81E0      		ldi r24,lo8(1)
 693 01ae 90E0      		ldi r25,0
 694 01b0 9C01      		movw r18,r24
 695 01b2 0580      		ldd r0,Z+5
 696 01b4 00C0      		rjmp 2f
 697               		1:
 698 01b6 220F      		lsl r18
 699 01b8 331F      		rol r19
 700               		2:
 701 01ba 0A94      		dec r0
 702 01bc 02F4      		brpl 1b
 703 01be 2093 EA00 		sts 234,r18
 347:lufa-lib-svn/LUFA/Drivers/USB/Class/Device/../../Core/AVR8/../AVR8/Endpoint_AVR8.h **** 				UERST = 0;
 704               		.loc 2 347 0
 705 01c2 1092 EA00 		sts 234,__zero_reg__
 706               	.LBE172:
 707               	.LBE171:
 708               	.LBB173:
 709               	.LBB174:
 346:lufa-lib-svn/LUFA/Drivers/USB/Class/Device/../../Core/AVR8/../AVR8/Endpoint_AVR8.h **** 				UERST = (1 << EndpointNumber);
 710               		.loc 2 346 0
 711 01c6 0180      		ldd r0,Z+1
 712 01c8 00C0      		rjmp 2f
 713               		1:
 714 01ca 880F      		lsl r24
 715 01cc 991F      		rol r25
 716               		2:
 717 01ce 0A94      		dec r0
 718 01d0 02F4      		brpl 1b
 719 01d2 8093 EA00 		sts 234,r24
 347:lufa-lib-svn/LUFA/Drivers/USB/Class/Device/../../Core/AVR8/../AVR8/Endpoint_AVR8.h **** 				UERST = 0;
 720               		.loc 2 347 0
 721 01d6 1092 EA00 		sts 234,__zero_reg__
 722               	.LBE174:
 723               	.LBE173:
 147:lufa-lib-svn/LUFA/Drivers/USB/Class/Device/MassStorageClassDevice.c **** 		Endpoint_SelectEndpoint(MSInterfaceInfo->Config.DataOUTEndpointNumber);
 724               		.loc 1 147 0
 725 01da 8581      		ldd r24,Z+5
 726               	.LVL57:
 727               	.LBB175:
 728               	.LBB176:
 334:lufa-lib-svn/LUFA/Drivers/USB/Class/Device/../../Core/AVR8/../AVR8/Endpoint_AVR8.h **** 					UENUM = EndpointNumber;
 729               		.loc 2 334 0
 730 01dc 8093 E900 		sts 233,r24
 731               	.LBE176:
 732               	.LBE175:
 733               	.LBB177:
 734               	.LBB178:
 565:lufa-lib-svn/LUFA/Drivers/USB/Class/Device/../../Core/AVR8/../AVR8/Endpoint_AVR8.h **** 				UECONX |= (1 << STALLRQC);
 735               		.loc 2 565 0
 736 01e0 8091 EB00 		lds r24,235
 737               	.LVL58:
 738 01e4 8061      		ori r24,lo8(16)
 739 01e6 8093 EB00 		sts 235,r24
 740               	.LBE178:
 741               	.LBE177:
 742               	.LBB179:
 743               	.LBB180:
 584:lufa-lib-svn/LUFA/Drivers/USB/Class/Device/../../Core/AVR8/../AVR8/Endpoint_AVR8.h **** 				UECONX |= (1 << RSTDT);
 744               		.loc 2 584 0
 745 01ea 8091 EB00 		lds r24,235
 746 01ee 8860      		ori r24,lo8(8)
 747 01f0 8093 EB00 		sts 235,r24
 748               	.LBE180:
 749               	.LBE179:
 150:lufa-lib-svn/LUFA/Drivers/USB/Class/Device/MassStorageClassDevice.c **** 		Endpoint_SelectEndpoint(MSInterfaceInfo->Config.DataINEndpointNumber);
 750               		.loc 1 150 0
 751 01f4 8181      		ldd r24,Z+1
 752               	.LVL59:
 753               	.LBB181:
 754               	.LBB182:
 334:lufa-lib-svn/LUFA/Drivers/USB/Class/Device/../../Core/AVR8/../AVR8/Endpoint_AVR8.h **** 					UENUM = EndpointNumber;
 755               		.loc 2 334 0
 756 01f6 8093 E900 		sts 233,r24
 757               	.LBE182:
 758               	.LBE181:
 759               	.LBB183:
 760               	.LBB184:
 565:lufa-lib-svn/LUFA/Drivers/USB/Class/Device/../../Core/AVR8/../AVR8/Endpoint_AVR8.h **** 				UECONX |= (1 << STALLRQC);
 761               		.loc 2 565 0
 762 01fa 8091 EB00 		lds r24,235
 763               	.LVL60:
 764 01fe 8061      		ori r24,lo8(16)
 765 0200 8093 EB00 		sts 235,r24
 766               	.LBE184:
 767               	.LBE183:
 768               	.LBB185:
 769               	.LBB186:
 584:lufa-lib-svn/LUFA/Drivers/USB/Class/Device/../../Core/AVR8/../AVR8/Endpoint_AVR8.h **** 				UECONX |= (1 << RSTDT);
 770               		.loc 2 584 0
 771 0204 8091 EB00 		lds r24,235
 772 0208 8860      		ori r24,lo8(8)
 773 020a 8093 EB00 		sts 235,r24
 774               	.LBE186:
 775               	.LBE185:
 154:lufa-lib-svn/LUFA/Drivers/USB/Class/Device/MassStorageClassDevice.c **** 		MSInterfaceInfo->State.IsMassStoreReset = false;
 776               		.loc 1 154 0
 777 020e 16AA      		std Z+54,__zero_reg__
 778               	.LVL61:
 779               	.L26:
 780               	/* epilogue start */
 156:lufa-lib-svn/LUFA/Drivers/USB/Class/Device/MassStorageClassDevice.c **** }
 781               		.loc 1 156 0
 782 0210 0F90      		pop __tmp_reg__
 783 0212 0F90      		pop __tmp_reg__
 784 0214 DF91      		pop r29
 785 0216 CF91      		pop r28
 786 0218 1F91      		pop r17
 787 021a 0F91      		pop r16
 788               	.LVL62:
 789 021c FF90      		pop r15
 790 021e EF90      		pop r14
 791 0220 0895      		ret
 792               		.cfi_endproc
 793               	.LFE101:
 795               		.text
 796               	.Letext0:
 797               		.file 3 "/usr/lib/gcc/avr/4.7.0/../../../../avr/include/stdint.h"
 798               		.file 4 "lufa-lib-svn/LUFA/Drivers/USB/Class/Device/../../Core/AVR8/../StdRequestType.h"
 799               		.file 5 "lufa-lib-svn/LUFA/Drivers/USB/Class/Device/../../Core/AVR8/../Device.h"
 800               		.file 6 "lufa-lib-svn/LUFA/Drivers/USB/Class/Device/../../Core/AVR8/../EndpointStream.h"
 801               		.file 7 "lufa-lib-svn/LUFA/Drivers/USB/Class/Device/../Common/MassStorageClassCommon.h"
 802               		.file 8 "lufa-lib-svn/LUFA/Drivers/USB/Class/Device/MassStorageClassDevice.h"
 803               		.file 9 "lufa-lib-svn/LUFA/Drivers/USB/Class/Device/../../Core/AVR8/../AVR8/EndpointStream_AVR8.h"
 804               		.file 10 "lufa-lib-svn/LUFA/Drivers/USB/Class/Device/../../Core/USBTask.h"