   1               		.file	"EndpointStream_AVR8.c"
   2               	__SP_H__ = 0x3e
   3               	__SP_L__ = 0x3d
   4               	__SREG__ = 0x3f
   5               	__tmp_reg__ = 0
   6               	__zero_reg__ = 1
   7               		.text
   8               	.Ltext0:
   9               		.cfi_sections	.debug_frame
  10               		.section	.text.Endpoint_Discard_Stream,"ax",@progbits
  11               	.global	Endpoint_Discard_Stream
  13               	Endpoint_Discard_Stream:
  14               	.LFB84:
  15               		.file 1 "lufa-lib-svn/LUFA/Drivers/USB/Core/AVR8/EndpointStream_AVR8.c"
   1:lufa-lib-svn/LUFA/Drivers/USB/Core/AVR8/EndpointStream_AVR8.c **** /*
   2:lufa-lib-svn/LUFA/Drivers/USB/Core/AVR8/EndpointStream_AVR8.c ****              LUFA Library
   3:lufa-lib-svn/LUFA/Drivers/USB/Core/AVR8/EndpointStream_AVR8.c ****      Copyright (C) Dean Camera, 2011.
   4:lufa-lib-svn/LUFA/Drivers/USB/Core/AVR8/EndpointStream_AVR8.c ****               
   5:lufa-lib-svn/LUFA/Drivers/USB/Core/AVR8/EndpointStream_AVR8.c ****   dean [at] fourwalledcubicle [dot] com
   6:lufa-lib-svn/LUFA/Drivers/USB/Core/AVR8/EndpointStream_AVR8.c ****            www.lufa-lib.org
   7:lufa-lib-svn/LUFA/Drivers/USB/Core/AVR8/EndpointStream_AVR8.c **** */
   8:lufa-lib-svn/LUFA/Drivers/USB/Core/AVR8/EndpointStream_AVR8.c **** 
   9:lufa-lib-svn/LUFA/Drivers/USB/Core/AVR8/EndpointStream_AVR8.c **** /*
  10:lufa-lib-svn/LUFA/Drivers/USB/Core/AVR8/EndpointStream_AVR8.c ****   Copyright 2011  Dean Camera (dean [at] fourwalledcubicle [dot] com)
  11:lufa-lib-svn/LUFA/Drivers/USB/Core/AVR8/EndpointStream_AVR8.c **** 
  12:lufa-lib-svn/LUFA/Drivers/USB/Core/AVR8/EndpointStream_AVR8.c ****   Permission to use, copy, modify, distribute, and sell this 
  13:lufa-lib-svn/LUFA/Drivers/USB/Core/AVR8/EndpointStream_AVR8.c ****   software and its documentation for any purpose is hereby granted
  14:lufa-lib-svn/LUFA/Drivers/USB/Core/AVR8/EndpointStream_AVR8.c ****   without fee, provided that the above copyright notice appear in 
  15:lufa-lib-svn/LUFA/Drivers/USB/Core/AVR8/EndpointStream_AVR8.c ****   all copies and that both that the copyright notice and this
  16:lufa-lib-svn/LUFA/Drivers/USB/Core/AVR8/EndpointStream_AVR8.c ****   permission notice and warranty disclaimer appear in supporting 
  17:lufa-lib-svn/LUFA/Drivers/USB/Core/AVR8/EndpointStream_AVR8.c ****   documentation, and that the name of the author not be used in 
  18:lufa-lib-svn/LUFA/Drivers/USB/Core/AVR8/EndpointStream_AVR8.c ****   advertising or publicity pertaining to distribution of the 
  19:lufa-lib-svn/LUFA/Drivers/USB/Core/AVR8/EndpointStream_AVR8.c ****   software without specific, written prior permission.
  20:lufa-lib-svn/LUFA/Drivers/USB/Core/AVR8/EndpointStream_AVR8.c **** 
  21:lufa-lib-svn/LUFA/Drivers/USB/Core/AVR8/EndpointStream_AVR8.c ****   The author disclaim all warranties with regard to this
  22:lufa-lib-svn/LUFA/Drivers/USB/Core/AVR8/EndpointStream_AVR8.c ****   software, including all implied warranties of merchantability
  23:lufa-lib-svn/LUFA/Drivers/USB/Core/AVR8/EndpointStream_AVR8.c ****   and fitness.  In no event shall the author be liable for any
  24:lufa-lib-svn/LUFA/Drivers/USB/Core/AVR8/EndpointStream_AVR8.c ****   special, indirect or consequential damages or any damages
  25:lufa-lib-svn/LUFA/Drivers/USB/Core/AVR8/EndpointStream_AVR8.c ****   whatsoever resulting from loss of use, data or profits, whether
  26:lufa-lib-svn/LUFA/Drivers/USB/Core/AVR8/EndpointStream_AVR8.c ****   in an action of contract, negligence or other tortious action,
  27:lufa-lib-svn/LUFA/Drivers/USB/Core/AVR8/EndpointStream_AVR8.c ****   arising out of or in connection with the use or performance of
  28:lufa-lib-svn/LUFA/Drivers/USB/Core/AVR8/EndpointStream_AVR8.c ****   this software.
  29:lufa-lib-svn/LUFA/Drivers/USB/Core/AVR8/EndpointStream_AVR8.c **** */
  30:lufa-lib-svn/LUFA/Drivers/USB/Core/AVR8/EndpointStream_AVR8.c **** 
  31:lufa-lib-svn/LUFA/Drivers/USB/Core/AVR8/EndpointStream_AVR8.c **** #define  __INCLUDE_FROM_USB_DRIVER
  32:lufa-lib-svn/LUFA/Drivers/USB/Core/AVR8/EndpointStream_AVR8.c **** #include "../USBMode.h"
  33:lufa-lib-svn/LUFA/Drivers/USB/Core/AVR8/EndpointStream_AVR8.c **** 
  34:lufa-lib-svn/LUFA/Drivers/USB/Core/AVR8/EndpointStream_AVR8.c **** #if defined(USB_CAN_BE_DEVICE)
  35:lufa-lib-svn/LUFA/Drivers/USB/Core/AVR8/EndpointStream_AVR8.c **** 
  36:lufa-lib-svn/LUFA/Drivers/USB/Core/AVR8/EndpointStream_AVR8.c **** #include "EndpointStream_AVR8.h"
  37:lufa-lib-svn/LUFA/Drivers/USB/Core/AVR8/EndpointStream_AVR8.c **** 
  38:lufa-lib-svn/LUFA/Drivers/USB/Core/AVR8/EndpointStream_AVR8.c **** #if !defined(CONTROL_ONLY_DEVICE)
  39:lufa-lib-svn/LUFA/Drivers/USB/Core/AVR8/EndpointStream_AVR8.c **** uint8_t Endpoint_Discard_Stream(uint16_t Length,
  40:lufa-lib-svn/LUFA/Drivers/USB/Core/AVR8/EndpointStream_AVR8.c ****                                 uint16_t* const BytesProcessed)
  41:lufa-lib-svn/LUFA/Drivers/USB/Core/AVR8/EndpointStream_AVR8.c **** {
  16               		.loc 1 41 0
  17               		.cfi_startproc
  18               	.LVL0:
  19 0000 DF92      		push r13
  20               	.LCFI0:
  21               		.cfi_def_cfa_offset 3
  22               		.cfi_offset 13, -2
  23 0002 EF92      		push r14
  24               	.LCFI1:
  25               		.cfi_def_cfa_offset 4
  26               		.cfi_offset 14, -3
  27 0004 FF92      		push r15
  28               	.LCFI2:
  29               		.cfi_def_cfa_offset 5
  30               		.cfi_offset 15, -4
  31 0006 0F93      		push r16
  32               	.LCFI3:
  33               		.cfi_def_cfa_offset 6
  34               		.cfi_offset 16, -5
  35 0008 1F93      		push r17
  36               	.LCFI4:
  37               		.cfi_def_cfa_offset 7
  38               		.cfi_offset 17, -6
  39 000a CF93      		push r28
  40               	.LCFI5:
  41               		.cfi_def_cfa_offset 8
  42               		.cfi_offset 28, -7
  43 000c DF93      		push r29
  44               	.LCFI6:
  45               		.cfi_def_cfa_offset 9
  46               		.cfi_offset 29, -8
  47               	/* prologue: function */
  48               	/* frame size = 0 */
  49               	/* stack size = 7 */
  50               	.L__stack_usage = 7
  51 000e EC01      		movw r28,r24
  52 0010 8B01      		movw r16,r22
  53               	.LVL1:
  42:lufa-lib-svn/LUFA/Drivers/USB/Core/AVR8/EndpointStream_AVR8.c **** 	uint8_t  ErrorCode;
  43:lufa-lib-svn/LUFA/Drivers/USB/Core/AVR8/EndpointStream_AVR8.c **** 	uint16_t BytesInTransfer = 0;
  44:lufa-lib-svn/LUFA/Drivers/USB/Core/AVR8/EndpointStream_AVR8.c **** 	
  45:lufa-lib-svn/LUFA/Drivers/USB/Core/AVR8/EndpointStream_AVR8.c **** 	if ((ErrorCode = Endpoint_WaitUntilReady()))
  54               		.loc 1 45 0
  55 0012 0E94 0000 		call Endpoint_WaitUntilReady
  56               	.LVL2:
  57 0016 D82E      		mov r13,r24
  58               	.LVL3:
  59 0018 8111      		cpse r24,__zero_reg__
  60 001a 00C0      		rjmp .L2
  46:lufa-lib-svn/LUFA/Drivers/USB/Core/AVR8/EndpointStream_AVR8.c **** 	  return ErrorCode;
  47:lufa-lib-svn/LUFA/Drivers/USB/Core/AVR8/EndpointStream_AVR8.c **** 	  
  48:lufa-lib-svn/LUFA/Drivers/USB/Core/AVR8/EndpointStream_AVR8.c **** 	if (BytesProcessed != NULL)
  61               		.loc 1 48 0
  62 001c 0115      		cp r16,__zero_reg__
  63 001e 1105      		cpc r17,__zero_reg__
  64 0020 01F0      		breq .L3
  49:lufa-lib-svn/LUFA/Drivers/USB/Core/AVR8/EndpointStream_AVR8.c **** 	  Length -= *BytesProcessed;
  65               		.loc 1 49 0
  66 0022 F801      		movw r30,r16
  67 0024 2081      		ld r18,Z
  68 0026 3181      		ldd r19,Z+1
  69 0028 C21B      		sub r28,r18
  70 002a D30B      		sbc r29,r19
  71               	.LVL4:
  72               	.L3:
  41:lufa-lib-svn/LUFA/Drivers/USB/Core/AVR8/EndpointStream_AVR8.c **** {
  73               		.loc 1 41 0 discriminator 1
  74 002c E12C      		mov r14,__zero_reg__
  75 002e F12C      		mov r15,__zero_reg__
  76 0030 00C0      		rjmp .L13
  77               	.LVL5:
  78               	.L8:
  79               	.LBB256:
  80               	.LBB257:
  81               		.file 2 "lufa-lib-svn/LUFA/Drivers/USB/Core/AVR8/../AVR8/../AVR8/Endpoint_AVR8.h"
   1:lufa-lib-svn/LUFA/Drivers/USB/Core/AVR8/../AVR8/../AVR8/Endpoint_AVR8.h **** /*
   2:lufa-lib-svn/LUFA/Drivers/USB/Core/AVR8/../AVR8/../AVR8/Endpoint_AVR8.h ****              LUFA Library
   3:lufa-lib-svn/LUFA/Drivers/USB/Core/AVR8/../AVR8/../AVR8/Endpoint_AVR8.h ****      Copyright (C) Dean Camera, 2011.
   4:lufa-lib-svn/LUFA/Drivers/USB/Core/AVR8/../AVR8/../AVR8/Endpoint_AVR8.h **** 
   5:lufa-lib-svn/LUFA/Drivers/USB/Core/AVR8/../AVR8/../AVR8/Endpoint_AVR8.h ****   dean [at] fourwalledcubicle [dot] com
   6:lufa-lib-svn/LUFA/Drivers/USB/Core/AVR8/../AVR8/../AVR8/Endpoint_AVR8.h ****            www.lufa-lib.org
   7:lufa-lib-svn/LUFA/Drivers/USB/Core/AVR8/../AVR8/../AVR8/Endpoint_AVR8.h **** */
   8:lufa-lib-svn/LUFA/Drivers/USB/Core/AVR8/../AVR8/../AVR8/Endpoint_AVR8.h **** 
   9:lufa-lib-svn/LUFA/Drivers/USB/Core/AVR8/../AVR8/../AVR8/Endpoint_AVR8.h **** /*
  10:lufa-lib-svn/LUFA/Drivers/USB/Core/AVR8/../AVR8/../AVR8/Endpoint_AVR8.h ****   Copyright 2011  Dean Camera (dean [at] fourwalledcubicle [dot] com)
  11:lufa-lib-svn/LUFA/Drivers/USB/Core/AVR8/../AVR8/../AVR8/Endpoint_AVR8.h **** 
  12:lufa-lib-svn/LUFA/Drivers/USB/Core/AVR8/../AVR8/../AVR8/Endpoint_AVR8.h ****   Permission to use, copy, modify, distribute, and sell this
  13:lufa-lib-svn/LUFA/Drivers/USB/Core/AVR8/../AVR8/../AVR8/Endpoint_AVR8.h ****   software and its documentation for any purpose is hereby granted
  14:lufa-lib-svn/LUFA/Drivers/USB/Core/AVR8/../AVR8/../AVR8/Endpoint_AVR8.h ****   without fee, provided that the above copyright notice appear in
  15:lufa-lib-svn/LUFA/Drivers/USB/Core/AVR8/../AVR8/../AVR8/Endpoint_AVR8.h ****   all copies and that both that the copyright notice and this
  16:lufa-lib-svn/LUFA/Drivers/USB/Core/AVR8/../AVR8/../AVR8/Endpoint_AVR8.h ****   permission notice and warranty disclaimer appear in supporting
  17:lufa-lib-svn/LUFA/Drivers/USB/Core/AVR8/../AVR8/../AVR8/Endpoint_AVR8.h ****   documentation, and that the name of the author not be used in
  18:lufa-lib-svn/LUFA/Drivers/USB/Core/AVR8/../AVR8/../AVR8/Endpoint_AVR8.h ****   advertising or publicity pertaining to distribution of the
  19:lufa-lib-svn/LUFA/Drivers/USB/Core/AVR8/../AVR8/../AVR8/Endpoint_AVR8.h ****   software without specific, written prior permission.
  20:lufa-lib-svn/LUFA/Drivers/USB/Core/AVR8/../AVR8/../AVR8/Endpoint_AVR8.h **** 
  21:lufa-lib-svn/LUFA/Drivers/USB/Core/AVR8/../AVR8/../AVR8/Endpoint_AVR8.h ****   The author disclaim all warranties with regard to this
  22:lufa-lib-svn/LUFA/Drivers/USB/Core/AVR8/../AVR8/../AVR8/Endpoint_AVR8.h ****   software, including all implied warranties of merchantability
  23:lufa-lib-svn/LUFA/Drivers/USB/Core/AVR8/../AVR8/../AVR8/Endpoint_AVR8.h ****   and fitness.  In no event shall the author be liable for any
  24:lufa-lib-svn/LUFA/Drivers/USB/Core/AVR8/../AVR8/../AVR8/Endpoint_AVR8.h ****   special, indirect or consequential damages or any damages
  25:lufa-lib-svn/LUFA/Drivers/USB/Core/AVR8/../AVR8/../AVR8/Endpoint_AVR8.h ****   whatsoever resulting from loss of use, data or profits, whether
  26:lufa-lib-svn/LUFA/Drivers/USB/Core/AVR8/../AVR8/../AVR8/Endpoint_AVR8.h ****   in an action of contract, negligence or other tortious action,
  27:lufa-lib-svn/LUFA/Drivers/USB/Core/AVR8/../AVR8/../AVR8/Endpoint_AVR8.h ****   arising out of or in connection with the use or performance of
  28:lufa-lib-svn/LUFA/Drivers/USB/Core/AVR8/../AVR8/../AVR8/Endpoint_AVR8.h ****   this software.
  29:lufa-lib-svn/LUFA/Drivers/USB/Core/AVR8/../AVR8/../AVR8/Endpoint_AVR8.h **** */
  30:lufa-lib-svn/LUFA/Drivers/USB/Core/AVR8/../AVR8/../AVR8/Endpoint_AVR8.h **** 
  31:lufa-lib-svn/LUFA/Drivers/USB/Core/AVR8/../AVR8/../AVR8/Endpoint_AVR8.h **** /** \file
  32:lufa-lib-svn/LUFA/Drivers/USB/Core/AVR8/../AVR8/../AVR8/Endpoint_AVR8.h ****  *  \brief USB Endpoint definitions for the AVR8 microcontrollers.
  33:lufa-lib-svn/LUFA/Drivers/USB/Core/AVR8/../AVR8/../AVR8/Endpoint_AVR8.h ****  *  \copydetails Group_EndpointManagement_AVR8
  34:lufa-lib-svn/LUFA/Drivers/USB/Core/AVR8/../AVR8/../AVR8/Endpoint_AVR8.h ****  *
  35:lufa-lib-svn/LUFA/Drivers/USB/Core/AVR8/../AVR8/../AVR8/Endpoint_AVR8.h ****  *  \note This file should not be included directly. It is automatically included as needed by the 
  36:lufa-lib-svn/LUFA/Drivers/USB/Core/AVR8/../AVR8/../AVR8/Endpoint_AVR8.h ****  *        dispatch header located in LUFA/Drivers/USB/USB.h.
  37:lufa-lib-svn/LUFA/Drivers/USB/Core/AVR8/../AVR8/../AVR8/Endpoint_AVR8.h ****  */
  38:lufa-lib-svn/LUFA/Drivers/USB/Core/AVR8/../AVR8/../AVR8/Endpoint_AVR8.h **** 
  39:lufa-lib-svn/LUFA/Drivers/USB/Core/AVR8/../AVR8/../AVR8/Endpoint_AVR8.h **** /** \ingroup Group_EndpointRW
  40:lufa-lib-svn/LUFA/Drivers/USB/Core/AVR8/../AVR8/../AVR8/Endpoint_AVR8.h ****  *  \defgroup Group_EndpointRW_AVR8 Endpoint Data Reading and Writing (AVR8)
  41:lufa-lib-svn/LUFA/Drivers/USB/Core/AVR8/../AVR8/../AVR8/Endpoint_AVR8.h ****  *  \brief Endpoint data read/write definitions for the Atmel AVR8 architecture.
  42:lufa-lib-svn/LUFA/Drivers/USB/Core/AVR8/../AVR8/../AVR8/Endpoint_AVR8.h ****  *
  43:lufa-lib-svn/LUFA/Drivers/USB/Core/AVR8/../AVR8/../AVR8/Endpoint_AVR8.h ****  *  Functions, macros, variables, enums and types related to data reading and writing from and to e
  44:lufa-lib-svn/LUFA/Drivers/USB/Core/AVR8/../AVR8/../AVR8/Endpoint_AVR8.h ****  */
  45:lufa-lib-svn/LUFA/Drivers/USB/Core/AVR8/../AVR8/../AVR8/Endpoint_AVR8.h **** 
  46:lufa-lib-svn/LUFA/Drivers/USB/Core/AVR8/../AVR8/../AVR8/Endpoint_AVR8.h **** /** \ingroup Group_EndpointPrimitiveRW
  47:lufa-lib-svn/LUFA/Drivers/USB/Core/AVR8/../AVR8/../AVR8/Endpoint_AVR8.h ****  *  \defgroup Group_EndpointPrimitiveRW_AVR8 Read/Write of Primitive Data Types (AVR8)
  48:lufa-lib-svn/LUFA/Drivers/USB/Core/AVR8/../AVR8/../AVR8/Endpoint_AVR8.h ****  *  \brief Endpoint primitive read/write definitions for the Atmel AVR8 architecture.
  49:lufa-lib-svn/LUFA/Drivers/USB/Core/AVR8/../AVR8/../AVR8/Endpoint_AVR8.h ****  *
  50:lufa-lib-svn/LUFA/Drivers/USB/Core/AVR8/../AVR8/../AVR8/Endpoint_AVR8.h ****  *  Functions, macros, variables, enums and types related to data reading and writing of primitive 
  51:lufa-lib-svn/LUFA/Drivers/USB/Core/AVR8/../AVR8/../AVR8/Endpoint_AVR8.h ****  *  from and to endpoints.
  52:lufa-lib-svn/LUFA/Drivers/USB/Core/AVR8/../AVR8/../AVR8/Endpoint_AVR8.h ****  */
  53:lufa-lib-svn/LUFA/Drivers/USB/Core/AVR8/../AVR8/../AVR8/Endpoint_AVR8.h **** 
  54:lufa-lib-svn/LUFA/Drivers/USB/Core/AVR8/../AVR8/../AVR8/Endpoint_AVR8.h **** /** \ingroup Group_EndpointPacketManagement
  55:lufa-lib-svn/LUFA/Drivers/USB/Core/AVR8/../AVR8/../AVR8/Endpoint_AVR8.h ****  *  \defgroup Group_EndpointPacketManagement_AVR8 Endpoint Packet Management (AVR8)
  56:lufa-lib-svn/LUFA/Drivers/USB/Core/AVR8/../AVR8/../AVR8/Endpoint_AVR8.h ****  *  \brief Endpoint packet management definitions for the Atmel AVR8 architecture.
  57:lufa-lib-svn/LUFA/Drivers/USB/Core/AVR8/../AVR8/../AVR8/Endpoint_AVR8.h ****  *
  58:lufa-lib-svn/LUFA/Drivers/USB/Core/AVR8/../AVR8/../AVR8/Endpoint_AVR8.h ****  *  Functions, macros, variables, enums and types related to packet management of endpoints.
  59:lufa-lib-svn/LUFA/Drivers/USB/Core/AVR8/../AVR8/../AVR8/Endpoint_AVR8.h ****  */
  60:lufa-lib-svn/LUFA/Drivers/USB/Core/AVR8/../AVR8/../AVR8/Endpoint_AVR8.h **** 
  61:lufa-lib-svn/LUFA/Drivers/USB/Core/AVR8/../AVR8/../AVR8/Endpoint_AVR8.h **** /** \ingroup Group_EndpointManagement
  62:lufa-lib-svn/LUFA/Drivers/USB/Core/AVR8/../AVR8/../AVR8/Endpoint_AVR8.h ****  *  \defgroup Group_EndpointManagement_AVR8 Endpoint Management (AVR8)
  63:lufa-lib-svn/LUFA/Drivers/USB/Core/AVR8/../AVR8/../AVR8/Endpoint_AVR8.h ****  *  \brief Endpoint management definitions for the Atmel AVR8 architecture.
  64:lufa-lib-svn/LUFA/Drivers/USB/Core/AVR8/../AVR8/../AVR8/Endpoint_AVR8.h ****  *
  65:lufa-lib-svn/LUFA/Drivers/USB/Core/AVR8/../AVR8/../AVR8/Endpoint_AVR8.h ****  *  Functions, macros and enums related to endpoint management when in USB Device mode. This
  66:lufa-lib-svn/LUFA/Drivers/USB/Core/AVR8/../AVR8/../AVR8/Endpoint_AVR8.h ****  *  module contains the endpoint management macros, as well as endpoint interrupt and data
  67:lufa-lib-svn/LUFA/Drivers/USB/Core/AVR8/../AVR8/../AVR8/Endpoint_AVR8.h ****  *  send/receive functions for various data types.
  68:lufa-lib-svn/LUFA/Drivers/USB/Core/AVR8/../AVR8/../AVR8/Endpoint_AVR8.h ****  *
  69:lufa-lib-svn/LUFA/Drivers/USB/Core/AVR8/../AVR8/../AVR8/Endpoint_AVR8.h ****  *  @{
  70:lufa-lib-svn/LUFA/Drivers/USB/Core/AVR8/../AVR8/../AVR8/Endpoint_AVR8.h ****  */
  71:lufa-lib-svn/LUFA/Drivers/USB/Core/AVR8/../AVR8/../AVR8/Endpoint_AVR8.h **** 
  72:lufa-lib-svn/LUFA/Drivers/USB/Core/AVR8/../AVR8/../AVR8/Endpoint_AVR8.h **** #ifndef __ENDPOINT_AVR8_H__
  73:lufa-lib-svn/LUFA/Drivers/USB/Core/AVR8/../AVR8/../AVR8/Endpoint_AVR8.h **** #define __ENDPOINT_AVR8_H__
  74:lufa-lib-svn/LUFA/Drivers/USB/Core/AVR8/../AVR8/../AVR8/Endpoint_AVR8.h **** 
  75:lufa-lib-svn/LUFA/Drivers/USB/Core/AVR8/../AVR8/../AVR8/Endpoint_AVR8.h **** 	/* Includes: */
  76:lufa-lib-svn/LUFA/Drivers/USB/Core/AVR8/../AVR8/../AVR8/Endpoint_AVR8.h **** 		#include "../../../../Common/Common.h"
  77:lufa-lib-svn/LUFA/Drivers/USB/Core/AVR8/../AVR8/../AVR8/Endpoint_AVR8.h **** 		#include "../USBTask.h"
  78:lufa-lib-svn/LUFA/Drivers/USB/Core/AVR8/../AVR8/../AVR8/Endpoint_AVR8.h **** 		#include "../USBInterrupt.h"
  79:lufa-lib-svn/LUFA/Drivers/USB/Core/AVR8/../AVR8/../AVR8/Endpoint_AVR8.h **** 
  80:lufa-lib-svn/LUFA/Drivers/USB/Core/AVR8/../AVR8/../AVR8/Endpoint_AVR8.h **** 	/* Enable C linkage for C++ Compilers: */
  81:lufa-lib-svn/LUFA/Drivers/USB/Core/AVR8/../AVR8/../AVR8/Endpoint_AVR8.h **** 		#if defined(__cplusplus)
  82:lufa-lib-svn/LUFA/Drivers/USB/Core/AVR8/../AVR8/../AVR8/Endpoint_AVR8.h **** 			extern "C" {
  83:lufa-lib-svn/LUFA/Drivers/USB/Core/AVR8/../AVR8/../AVR8/Endpoint_AVR8.h **** 		#endif
  84:lufa-lib-svn/LUFA/Drivers/USB/Core/AVR8/../AVR8/../AVR8/Endpoint_AVR8.h **** 
  85:lufa-lib-svn/LUFA/Drivers/USB/Core/AVR8/../AVR8/../AVR8/Endpoint_AVR8.h **** 	/* Preprocessor Checks: */
  86:lufa-lib-svn/LUFA/Drivers/USB/Core/AVR8/../AVR8/../AVR8/Endpoint_AVR8.h **** 		#if !defined(__INCLUDE_FROM_USB_DRIVER)
  87:lufa-lib-svn/LUFA/Drivers/USB/Core/AVR8/../AVR8/../AVR8/Endpoint_AVR8.h **** 			#error Do not include this file directly. Include LUFA/Drivers/USB/USB.h instead.
  88:lufa-lib-svn/LUFA/Drivers/USB/Core/AVR8/../AVR8/../AVR8/Endpoint_AVR8.h **** 		#endif
  89:lufa-lib-svn/LUFA/Drivers/USB/Core/AVR8/../AVR8/../AVR8/Endpoint_AVR8.h **** 
  90:lufa-lib-svn/LUFA/Drivers/USB/Core/AVR8/../AVR8/../AVR8/Endpoint_AVR8.h **** 	/* Private Interface - For use in library only: */
  91:lufa-lib-svn/LUFA/Drivers/USB/Core/AVR8/../AVR8/../AVR8/Endpoint_AVR8.h **** 	#if !defined(__DOXYGEN__)
  92:lufa-lib-svn/LUFA/Drivers/USB/Core/AVR8/../AVR8/../AVR8/Endpoint_AVR8.h **** 		/* Macros: */
  93:lufa-lib-svn/LUFA/Drivers/USB/Core/AVR8/../AVR8/../AVR8/Endpoint_AVR8.h **** 			#define _ENDPOINT_GET_MAXSIZE(EPIndex)         _ENDPOINT_GET_MAXSIZE2(ENDPOINT_DETAILS_EP ## EPI
  94:lufa-lib-svn/LUFA/Drivers/USB/Core/AVR8/../AVR8/../AVR8/Endpoint_AVR8.h **** 			#define _ENDPOINT_GET_MAXSIZE2(EPDetails)      _ENDPOINT_GET_MAXSIZE3(EPDetails)
  95:lufa-lib-svn/LUFA/Drivers/USB/Core/AVR8/../AVR8/../AVR8/Endpoint_AVR8.h **** 			#define _ENDPOINT_GET_MAXSIZE3(MaxSize, Banks) (MaxSize)
  96:lufa-lib-svn/LUFA/Drivers/USB/Core/AVR8/../AVR8/../AVR8/Endpoint_AVR8.h **** 
  97:lufa-lib-svn/LUFA/Drivers/USB/Core/AVR8/../AVR8/../AVR8/Endpoint_AVR8.h **** 			#define _ENDPOINT_GET_BANKS(EPIndex)           _ENDPOINT_GET_BANKS2(ENDPOINT_DETAILS_EP ## EPInd
  98:lufa-lib-svn/LUFA/Drivers/USB/Core/AVR8/../AVR8/../AVR8/Endpoint_AVR8.h **** 			#define _ENDPOINT_GET_BANKS2(EPDetails)        _ENDPOINT_GET_BANKS3(EPDetails)
  99:lufa-lib-svn/LUFA/Drivers/USB/Core/AVR8/../AVR8/../AVR8/Endpoint_AVR8.h **** 			#define _ENDPOINT_GET_BANKS3(MaxSize, Banks)   (Banks)
 100:lufa-lib-svn/LUFA/Drivers/USB/Core/AVR8/../AVR8/../AVR8/Endpoint_AVR8.h **** 
 101:lufa-lib-svn/LUFA/Drivers/USB/Core/AVR8/../AVR8/../AVR8/Endpoint_AVR8.h **** 			#if defined(USB_SERIES_4_AVR) || defined(USB_SERIES_6_AVR) || defined(USB_SERIES_7_AVR)
 102:lufa-lib-svn/LUFA/Drivers/USB/Core/AVR8/../AVR8/../AVR8/Endpoint_AVR8.h **** 				#define ENDPOINT_DETAILS_MAXEP             7
 103:lufa-lib-svn/LUFA/Drivers/USB/Core/AVR8/../AVR8/../AVR8/Endpoint_AVR8.h **** 
 104:lufa-lib-svn/LUFA/Drivers/USB/Core/AVR8/../AVR8/../AVR8/Endpoint_AVR8.h **** 				#define ENDPOINT_DETAILS_EP0               64,  1
 105:lufa-lib-svn/LUFA/Drivers/USB/Core/AVR8/../AVR8/../AVR8/Endpoint_AVR8.h **** 				#define ENDPOINT_DETAILS_EP1               256, 2
 106:lufa-lib-svn/LUFA/Drivers/USB/Core/AVR8/../AVR8/../AVR8/Endpoint_AVR8.h **** 				#define ENDPOINT_DETAILS_EP2               64,  2
 107:lufa-lib-svn/LUFA/Drivers/USB/Core/AVR8/../AVR8/../AVR8/Endpoint_AVR8.h **** 				#define ENDPOINT_DETAILS_EP3               64,  2
 108:lufa-lib-svn/LUFA/Drivers/USB/Core/AVR8/../AVR8/../AVR8/Endpoint_AVR8.h **** 				#define ENDPOINT_DETAILS_EP4               64,  2
 109:lufa-lib-svn/LUFA/Drivers/USB/Core/AVR8/../AVR8/../AVR8/Endpoint_AVR8.h **** 				#define ENDPOINT_DETAILS_EP5               64,  2
 110:lufa-lib-svn/LUFA/Drivers/USB/Core/AVR8/../AVR8/../AVR8/Endpoint_AVR8.h **** 				#define ENDPOINT_DETAILS_EP6               64,  2
 111:lufa-lib-svn/LUFA/Drivers/USB/Core/AVR8/../AVR8/../AVR8/Endpoint_AVR8.h **** 			#else
 112:lufa-lib-svn/LUFA/Drivers/USB/Core/AVR8/../AVR8/../AVR8/Endpoint_AVR8.h **** 				#define ENDPOINT_DETAILS_MAXEP             5
 113:lufa-lib-svn/LUFA/Drivers/USB/Core/AVR8/../AVR8/../AVR8/Endpoint_AVR8.h **** 
 114:lufa-lib-svn/LUFA/Drivers/USB/Core/AVR8/../AVR8/../AVR8/Endpoint_AVR8.h **** 				#define ENDPOINT_DETAILS_EP0               64,  1
 115:lufa-lib-svn/LUFA/Drivers/USB/Core/AVR8/../AVR8/../AVR8/Endpoint_AVR8.h **** 				#define ENDPOINT_DETAILS_EP1               64,  1
 116:lufa-lib-svn/LUFA/Drivers/USB/Core/AVR8/../AVR8/../AVR8/Endpoint_AVR8.h **** 				#define ENDPOINT_DETAILS_EP2               64,  1
 117:lufa-lib-svn/LUFA/Drivers/USB/Core/AVR8/../AVR8/../AVR8/Endpoint_AVR8.h **** 				#define ENDPOINT_DETAILS_EP3               64,  2
 118:lufa-lib-svn/LUFA/Drivers/USB/Core/AVR8/../AVR8/../AVR8/Endpoint_AVR8.h **** 				#define ENDPOINT_DETAILS_EP4               64,  2
 119:lufa-lib-svn/LUFA/Drivers/USB/Core/AVR8/../AVR8/../AVR8/Endpoint_AVR8.h **** 			#endif
 120:lufa-lib-svn/LUFA/Drivers/USB/Core/AVR8/../AVR8/../AVR8/Endpoint_AVR8.h **** 
 121:lufa-lib-svn/LUFA/Drivers/USB/Core/AVR8/../AVR8/../AVR8/Endpoint_AVR8.h **** 		/* Inline Functions: */
 122:lufa-lib-svn/LUFA/Drivers/USB/Core/AVR8/../AVR8/../AVR8/Endpoint_AVR8.h **** 			static inline uint8_t Endpoint_BytesToEPSizeMask(const uint16_t Bytes) ATTR_WARN_UNUSED_RESULT A
 123:lufa-lib-svn/LUFA/Drivers/USB/Core/AVR8/../AVR8/../AVR8/Endpoint_AVR8.h **** 			                                                                       ATTR_ALWAYS_INLINE;
 124:lufa-lib-svn/LUFA/Drivers/USB/Core/AVR8/../AVR8/../AVR8/Endpoint_AVR8.h **** 			static inline uint8_t Endpoint_BytesToEPSizeMask(const uint16_t Bytes)
 125:lufa-lib-svn/LUFA/Drivers/USB/Core/AVR8/../AVR8/../AVR8/Endpoint_AVR8.h **** 			{
 126:lufa-lib-svn/LUFA/Drivers/USB/Core/AVR8/../AVR8/../AVR8/Endpoint_AVR8.h **** 				uint8_t  MaskVal    = 0;
 127:lufa-lib-svn/LUFA/Drivers/USB/Core/AVR8/../AVR8/../AVR8/Endpoint_AVR8.h **** 				uint16_t CheckBytes = 8;
 128:lufa-lib-svn/LUFA/Drivers/USB/Core/AVR8/../AVR8/../AVR8/Endpoint_AVR8.h **** 
 129:lufa-lib-svn/LUFA/Drivers/USB/Core/AVR8/../AVR8/../AVR8/Endpoint_AVR8.h **** 				while (CheckBytes < Bytes)
 130:lufa-lib-svn/LUFA/Drivers/USB/Core/AVR8/../AVR8/../AVR8/Endpoint_AVR8.h **** 				{
 131:lufa-lib-svn/LUFA/Drivers/USB/Core/AVR8/../AVR8/../AVR8/Endpoint_AVR8.h **** 					MaskVal++;
 132:lufa-lib-svn/LUFA/Drivers/USB/Core/AVR8/../AVR8/../AVR8/Endpoint_AVR8.h **** 					CheckBytes <<= 1;
 133:lufa-lib-svn/LUFA/Drivers/USB/Core/AVR8/../AVR8/../AVR8/Endpoint_AVR8.h **** 				}
 134:lufa-lib-svn/LUFA/Drivers/USB/Core/AVR8/../AVR8/../AVR8/Endpoint_AVR8.h **** 
 135:lufa-lib-svn/LUFA/Drivers/USB/Core/AVR8/../AVR8/../AVR8/Endpoint_AVR8.h **** 				return (MaskVal << EPSIZE0);
 136:lufa-lib-svn/LUFA/Drivers/USB/Core/AVR8/../AVR8/../AVR8/Endpoint_AVR8.h **** 			}
 137:lufa-lib-svn/LUFA/Drivers/USB/Core/AVR8/../AVR8/../AVR8/Endpoint_AVR8.h **** 
 138:lufa-lib-svn/LUFA/Drivers/USB/Core/AVR8/../AVR8/../AVR8/Endpoint_AVR8.h **** 		/* Function Prototypes: */
 139:lufa-lib-svn/LUFA/Drivers/USB/Core/AVR8/../AVR8/../AVR8/Endpoint_AVR8.h **** 			void Endpoint_ClearEndpoints(void);
 140:lufa-lib-svn/LUFA/Drivers/USB/Core/AVR8/../AVR8/../AVR8/Endpoint_AVR8.h **** 			bool Endpoint_ConfigureEndpoint_Prv(const uint8_t Number,
 141:lufa-lib-svn/LUFA/Drivers/USB/Core/AVR8/../AVR8/../AVR8/Endpoint_AVR8.h **** 			                                    const uint8_t UECFG0XData,
 142:lufa-lib-svn/LUFA/Drivers/USB/Core/AVR8/../AVR8/../AVR8/Endpoint_AVR8.h **** 			                                    const uint8_t UECFG1XData);
 143:lufa-lib-svn/LUFA/Drivers/USB/Core/AVR8/../AVR8/../AVR8/Endpoint_AVR8.h **** 
 144:lufa-lib-svn/LUFA/Drivers/USB/Core/AVR8/../AVR8/../AVR8/Endpoint_AVR8.h **** 	#endif
 145:lufa-lib-svn/LUFA/Drivers/USB/Core/AVR8/../AVR8/../AVR8/Endpoint_AVR8.h **** 
 146:lufa-lib-svn/LUFA/Drivers/USB/Core/AVR8/../AVR8/../AVR8/Endpoint_AVR8.h **** 	/* Public Interface - May be used in end-application: */
 147:lufa-lib-svn/LUFA/Drivers/USB/Core/AVR8/../AVR8/../AVR8/Endpoint_AVR8.h **** 		/* Macros: */
 148:lufa-lib-svn/LUFA/Drivers/USB/Core/AVR8/../AVR8/../AVR8/Endpoint_AVR8.h **** 			/** \name Endpoint Bank Mode Masks */
 149:lufa-lib-svn/LUFA/Drivers/USB/Core/AVR8/../AVR8/../AVR8/Endpoint_AVR8.h **** 			//@{
 150:lufa-lib-svn/LUFA/Drivers/USB/Core/AVR8/../AVR8/../AVR8/Endpoint_AVR8.h **** 			/** Mask for the bank mode selection for the \ref Endpoint_ConfigureEndpoint() macro. This indic
 151:lufa-lib-svn/LUFA/Drivers/USB/Core/AVR8/../AVR8/../AVR8/Endpoint_AVR8.h **** 			 *  that the endpoint should have one single bank, which requires less USB FIFO memory but resul
 152:lufa-lib-svn/LUFA/Drivers/USB/Core/AVR8/../AVR8/../AVR8/Endpoint_AVR8.h **** 			 *  in slower transfers as only one USB device (the AVR or the host) can access the endpoint's
 153:lufa-lib-svn/LUFA/Drivers/USB/Core/AVR8/../AVR8/../AVR8/Endpoint_AVR8.h **** 			 *  bank at the one time.
 154:lufa-lib-svn/LUFA/Drivers/USB/Core/AVR8/../AVR8/../AVR8/Endpoint_AVR8.h **** 			 */
 155:lufa-lib-svn/LUFA/Drivers/USB/Core/AVR8/../AVR8/../AVR8/Endpoint_AVR8.h **** 			#define ENDPOINT_BANK_SINGLE                    (0 << EPBK0)
 156:lufa-lib-svn/LUFA/Drivers/USB/Core/AVR8/../AVR8/../AVR8/Endpoint_AVR8.h **** 
 157:lufa-lib-svn/LUFA/Drivers/USB/Core/AVR8/../AVR8/../AVR8/Endpoint_AVR8.h **** 			/** Mask for the bank mode selection for the \ref Endpoint_ConfigureEndpoint() macro. This indic
 158:lufa-lib-svn/LUFA/Drivers/USB/Core/AVR8/../AVR8/../AVR8/Endpoint_AVR8.h **** 			 *  that the endpoint should have two banks, which requires more USB FIFO memory but results
 159:lufa-lib-svn/LUFA/Drivers/USB/Core/AVR8/../AVR8/../AVR8/Endpoint_AVR8.h **** 			 *  in faster transfers as one USB device (the AVR or the host) can access one bank while the ot
 160:lufa-lib-svn/LUFA/Drivers/USB/Core/AVR8/../AVR8/../AVR8/Endpoint_AVR8.h **** 			 *  accesses the second bank.
 161:lufa-lib-svn/LUFA/Drivers/USB/Core/AVR8/../AVR8/../AVR8/Endpoint_AVR8.h **** 			 */
 162:lufa-lib-svn/LUFA/Drivers/USB/Core/AVR8/../AVR8/../AVR8/Endpoint_AVR8.h **** 			#define ENDPOINT_BANK_DOUBLE                    (1 << EPBK0)
 163:lufa-lib-svn/LUFA/Drivers/USB/Core/AVR8/../AVR8/../AVR8/Endpoint_AVR8.h **** 			//@}
 164:lufa-lib-svn/LUFA/Drivers/USB/Core/AVR8/../AVR8/../AVR8/Endpoint_AVR8.h **** 
 165:lufa-lib-svn/LUFA/Drivers/USB/Core/AVR8/../AVR8/../AVR8/Endpoint_AVR8.h **** 			#if (!defined(FIXED_CONTROL_ENDPOINT_SIZE) || defined(__DOXYGEN__))
 166:lufa-lib-svn/LUFA/Drivers/USB/Core/AVR8/../AVR8/../AVR8/Endpoint_AVR8.h **** 				/** Default size of the default control endpoint's bank, until altered by the control endpoint 
 167:lufa-lib-svn/LUFA/Drivers/USB/Core/AVR8/../AVR8/../AVR8/Endpoint_AVR8.h **** 				 *  value in the device descriptor. Not available if the \c FIXED_CONTROL_ENDPOINT_SIZE token i
 168:lufa-lib-svn/LUFA/Drivers/USB/Core/AVR8/../AVR8/../AVR8/Endpoint_AVR8.h **** 				 */
 169:lufa-lib-svn/LUFA/Drivers/USB/Core/AVR8/../AVR8/../AVR8/Endpoint_AVR8.h **** 				#define ENDPOINT_CONTROLEP_DEFAULT_SIZE     8
 170:lufa-lib-svn/LUFA/Drivers/USB/Core/AVR8/../AVR8/../AVR8/Endpoint_AVR8.h **** 			#endif
 171:lufa-lib-svn/LUFA/Drivers/USB/Core/AVR8/../AVR8/../AVR8/Endpoint_AVR8.h **** 
 172:lufa-lib-svn/LUFA/Drivers/USB/Core/AVR8/../AVR8/../AVR8/Endpoint_AVR8.h **** 			/** Retrieves the maximum bank size in bytes of a given endpoint.
 173:lufa-lib-svn/LUFA/Drivers/USB/Core/AVR8/../AVR8/../AVR8/Endpoint_AVR8.h **** 			 *
 174:lufa-lib-svn/LUFA/Drivers/USB/Core/AVR8/../AVR8/../AVR8/Endpoint_AVR8.h **** 			 *  \note This macro will only work correctly on endpoint indexes that are compile-time constant
 175:lufa-lib-svn/LUFA/Drivers/USB/Core/AVR8/../AVR8/../AVR8/Endpoint_AVR8.h **** 			 *        defined by the preprocessor.
 176:lufa-lib-svn/LUFA/Drivers/USB/Core/AVR8/../AVR8/../AVR8/Endpoint_AVR8.h **** 			 *
 177:lufa-lib-svn/LUFA/Drivers/USB/Core/AVR8/../AVR8/../AVR8/Endpoint_AVR8.h **** 			 *  \param[in] EPIndex  Endpoint number, a value between 0 and (\ref ENDPOINT_TOTAL_ENDPOINTS - 
 178:lufa-lib-svn/LUFA/Drivers/USB/Core/AVR8/../AVR8/../AVR8/Endpoint_AVR8.h **** 			 */
 179:lufa-lib-svn/LUFA/Drivers/USB/Core/AVR8/../AVR8/../AVR8/Endpoint_AVR8.h **** 			#define ENDPOINT_MAX_SIZE(EPIndex)              _ENDPOINT_GET_MAXSIZE(EPIndex)
 180:lufa-lib-svn/LUFA/Drivers/USB/Core/AVR8/../AVR8/../AVR8/Endpoint_AVR8.h **** 
 181:lufa-lib-svn/LUFA/Drivers/USB/Core/AVR8/../AVR8/../AVR8/Endpoint_AVR8.h **** 			/** Retrieves the total number of banks supported by the given endpoint.
 182:lufa-lib-svn/LUFA/Drivers/USB/Core/AVR8/../AVR8/../AVR8/Endpoint_AVR8.h **** 			 *
 183:lufa-lib-svn/LUFA/Drivers/USB/Core/AVR8/../AVR8/../AVR8/Endpoint_AVR8.h **** 			 *  \note This macro will only work correctly on endpoint indexes that are compile-time constant
 184:lufa-lib-svn/LUFA/Drivers/USB/Core/AVR8/../AVR8/../AVR8/Endpoint_AVR8.h **** 			 *        defined by the preprocessor.
 185:lufa-lib-svn/LUFA/Drivers/USB/Core/AVR8/../AVR8/../AVR8/Endpoint_AVR8.h **** 			 *
 186:lufa-lib-svn/LUFA/Drivers/USB/Core/AVR8/../AVR8/../AVR8/Endpoint_AVR8.h **** 			 *  \param[in] EPIndex  Endpoint number, a value between 0 and (\ref ENDPOINT_TOTAL_ENDPOINTS - 
 187:lufa-lib-svn/LUFA/Drivers/USB/Core/AVR8/../AVR8/../AVR8/Endpoint_AVR8.h **** 			 */
 188:lufa-lib-svn/LUFA/Drivers/USB/Core/AVR8/../AVR8/../AVR8/Endpoint_AVR8.h **** 			#define ENDPOINT_BANKS_SUPPORTED(EPIndex)       _ENDPOINT_GET_BANKS(EPIndex)
 189:lufa-lib-svn/LUFA/Drivers/USB/Core/AVR8/../AVR8/../AVR8/Endpoint_AVR8.h **** 
 190:lufa-lib-svn/LUFA/Drivers/USB/Core/AVR8/../AVR8/../AVR8/Endpoint_AVR8.h **** 			#if !defined(CONTROL_ONLY_DEVICE) || defined(__DOXYGEN__)
 191:lufa-lib-svn/LUFA/Drivers/USB/Core/AVR8/../AVR8/../AVR8/Endpoint_AVR8.h **** 				/** Total number of endpoints (including the default control endpoint at address 0) which may
 192:lufa-lib-svn/LUFA/Drivers/USB/Core/AVR8/../AVR8/../AVR8/Endpoint_AVR8.h **** 				 *  be used in the device. Different USB AVR models support different amounts of endpoints,
 193:lufa-lib-svn/LUFA/Drivers/USB/Core/AVR8/../AVR8/../AVR8/Endpoint_AVR8.h **** 				 *  this value reflects the maximum number of endpoints for the currently selected AVR model.
 194:lufa-lib-svn/LUFA/Drivers/USB/Core/AVR8/../AVR8/../AVR8/Endpoint_AVR8.h **** 				 */
 195:lufa-lib-svn/LUFA/Drivers/USB/Core/AVR8/../AVR8/../AVR8/Endpoint_AVR8.h **** 				#define ENDPOINT_TOTAL_ENDPOINTS            ENDPOINT_DETAILS_MAXEP
 196:lufa-lib-svn/LUFA/Drivers/USB/Core/AVR8/../AVR8/../AVR8/Endpoint_AVR8.h **** 			#else
 197:lufa-lib-svn/LUFA/Drivers/USB/Core/AVR8/../AVR8/../AVR8/Endpoint_AVR8.h **** 				#define ENDPOINT_TOTAL_ENDPOINTS            1
 198:lufa-lib-svn/LUFA/Drivers/USB/Core/AVR8/../AVR8/../AVR8/Endpoint_AVR8.h **** 			#endif
 199:lufa-lib-svn/LUFA/Drivers/USB/Core/AVR8/../AVR8/../AVR8/Endpoint_AVR8.h **** 
 200:lufa-lib-svn/LUFA/Drivers/USB/Core/AVR8/../AVR8/../AVR8/Endpoint_AVR8.h **** 		/* Enums: */
 201:lufa-lib-svn/LUFA/Drivers/USB/Core/AVR8/../AVR8/../AVR8/Endpoint_AVR8.h **** 			/** Enum for the possible error return codes of the \ref Endpoint_WaitUntilReady() function.
 202:lufa-lib-svn/LUFA/Drivers/USB/Core/AVR8/../AVR8/../AVR8/Endpoint_AVR8.h **** 			 *
 203:lufa-lib-svn/LUFA/Drivers/USB/Core/AVR8/../AVR8/../AVR8/Endpoint_AVR8.h **** 			 *  \ingroup Group_EndpointRW_AVR8
 204:lufa-lib-svn/LUFA/Drivers/USB/Core/AVR8/../AVR8/../AVR8/Endpoint_AVR8.h **** 			 */
 205:lufa-lib-svn/LUFA/Drivers/USB/Core/AVR8/../AVR8/../AVR8/Endpoint_AVR8.h **** 			enum Endpoint_WaitUntilReady_ErrorCodes_t
 206:lufa-lib-svn/LUFA/Drivers/USB/Core/AVR8/../AVR8/../AVR8/Endpoint_AVR8.h **** 			{
 207:lufa-lib-svn/LUFA/Drivers/USB/Core/AVR8/../AVR8/../AVR8/Endpoint_AVR8.h **** 				ENDPOINT_READYWAIT_NoError                 = 0, /**< Endpoint is ready for next packet, no erro
 208:lufa-lib-svn/LUFA/Drivers/USB/Core/AVR8/../AVR8/../AVR8/Endpoint_AVR8.h **** 				ENDPOINT_READYWAIT_EndpointStalled         = 1, /**< The endpoint was stalled during the stream
 209:lufa-lib-svn/LUFA/Drivers/USB/Core/AVR8/../AVR8/../AVR8/Endpoint_AVR8.h **** 				                                                 *   transfer by the host or device.
 210:lufa-lib-svn/LUFA/Drivers/USB/Core/AVR8/../AVR8/../AVR8/Endpoint_AVR8.h **** 				                                                 */
 211:lufa-lib-svn/LUFA/Drivers/USB/Core/AVR8/../AVR8/../AVR8/Endpoint_AVR8.h **** 				ENDPOINT_READYWAIT_DeviceDisconnected      = 2,	/**< Device was disconnected from the host whil
 212:lufa-lib-svn/LUFA/Drivers/USB/Core/AVR8/../AVR8/../AVR8/Endpoint_AVR8.h **** 				                                                 *   waiting for the endpoint to become ready.
 213:lufa-lib-svn/LUFA/Drivers/USB/Core/AVR8/../AVR8/../AVR8/Endpoint_AVR8.h **** 				                                                 */
 214:lufa-lib-svn/LUFA/Drivers/USB/Core/AVR8/../AVR8/../AVR8/Endpoint_AVR8.h **** 				ENDPOINT_READYWAIT_BusSuspended            = 3, /**< The USB bus has been suspended by the host
 215:lufa-lib-svn/LUFA/Drivers/USB/Core/AVR8/../AVR8/../AVR8/Endpoint_AVR8.h **** 				                                                 *   no USB endpoint traffic can occur until th
 216:lufa-lib-svn/LUFA/Drivers/USB/Core/AVR8/../AVR8/../AVR8/Endpoint_AVR8.h **** 				                                                 *   has resumed.
 217:lufa-lib-svn/LUFA/Drivers/USB/Core/AVR8/../AVR8/../AVR8/Endpoint_AVR8.h **** 				                                                 */
 218:lufa-lib-svn/LUFA/Drivers/USB/Core/AVR8/../AVR8/../AVR8/Endpoint_AVR8.h **** 				ENDPOINT_READYWAIT_Timeout                 = 4, /**< The host failed to accept or send the next
 219:lufa-lib-svn/LUFA/Drivers/USB/Core/AVR8/../AVR8/../AVR8/Endpoint_AVR8.h **** 				                                                 *   within the software timeout period set by 
 220:lufa-lib-svn/LUFA/Drivers/USB/Core/AVR8/../AVR8/../AVR8/Endpoint_AVR8.h **** 				                                                 *   \ref USB_STREAM_TIMEOUT_MS macro.
 221:lufa-lib-svn/LUFA/Drivers/USB/Core/AVR8/../AVR8/../AVR8/Endpoint_AVR8.h **** 				                                                 */
 222:lufa-lib-svn/LUFA/Drivers/USB/Core/AVR8/../AVR8/../AVR8/Endpoint_AVR8.h **** 				ENDPOINT_READYWAIT_TransmissionInProgress  = 5, /**< The bank for the USB endpoint is currently
 223:lufa-lib-svn/LUFA/Drivers/USB/Core/AVR8/../AVR8/../AVR8/Endpoint_AVR8.h ****                                                          *   and can't be written at the moment.
 224:lufa-lib-svn/LUFA/Drivers/USB/Core/AVR8/../AVR8/../AVR8/Endpoint_AVR8.h **** 				                                                 */
 225:lufa-lib-svn/LUFA/Drivers/USB/Core/AVR8/../AVR8/../AVR8/Endpoint_AVR8.h **** 
 226:lufa-lib-svn/LUFA/Drivers/USB/Core/AVR8/../AVR8/../AVR8/Endpoint_AVR8.h **** 			};
 227:lufa-lib-svn/LUFA/Drivers/USB/Core/AVR8/../AVR8/../AVR8/Endpoint_AVR8.h **** 
 228:lufa-lib-svn/LUFA/Drivers/USB/Core/AVR8/../AVR8/../AVR8/Endpoint_AVR8.h **** 		/* Inline Functions: */
 229:lufa-lib-svn/LUFA/Drivers/USB/Core/AVR8/../AVR8/../AVR8/Endpoint_AVR8.h **** 			/** Configures the specified endpoint number with the given endpoint type, direction, bank size
 230:lufa-lib-svn/LUFA/Drivers/USB/Core/AVR8/../AVR8/../AVR8/Endpoint_AVR8.h **** 			 *  and banking mode. Once configured, the endpoint may be read from or written to, depending
 231:lufa-lib-svn/LUFA/Drivers/USB/Core/AVR8/../AVR8/../AVR8/Endpoint_AVR8.h **** 			 *  on its direction.
 232:lufa-lib-svn/LUFA/Drivers/USB/Core/AVR8/../AVR8/../AVR8/Endpoint_AVR8.h **** 			 *
 233:lufa-lib-svn/LUFA/Drivers/USB/Core/AVR8/../AVR8/../AVR8/Endpoint_AVR8.h **** 			 *  \param[in] Number     Endpoint number to configure. This must be more than 0 and less than
 234:lufa-lib-svn/LUFA/Drivers/USB/Core/AVR8/../AVR8/../AVR8/Endpoint_AVR8.h **** 			 *                        \ref ENDPOINT_TOTAL_ENDPOINTS.
 235:lufa-lib-svn/LUFA/Drivers/USB/Core/AVR8/../AVR8/../AVR8/Endpoint_AVR8.h **** 			 *
 236:lufa-lib-svn/LUFA/Drivers/USB/Core/AVR8/../AVR8/../AVR8/Endpoint_AVR8.h **** 			 *  \param[in] Type       Type of endpoint to configure, a \c EP_TYPE_* mask. Not all endpoint t
 237:lufa-lib-svn/LUFA/Drivers/USB/Core/AVR8/../AVR8/../AVR8/Endpoint_AVR8.h **** 			 *                        are available on Low Speed USB devices - refer to the USB 2.0 specific
 238:lufa-lib-svn/LUFA/Drivers/USB/Core/AVR8/../AVR8/../AVR8/Endpoint_AVR8.h **** 			 *
 239:lufa-lib-svn/LUFA/Drivers/USB/Core/AVR8/../AVR8/../AVR8/Endpoint_AVR8.h **** 			 *  \param[in] Direction  Endpoint data direction, either \ref ENDPOINT_DIR_OUT or \ref ENDPOINT
 240:lufa-lib-svn/LUFA/Drivers/USB/Core/AVR8/../AVR8/../AVR8/Endpoint_AVR8.h **** 			 *                        All endpoints (except Control type) are unidirectional - data may only
 241:lufa-lib-svn/LUFA/Drivers/USB/Core/AVR8/../AVR8/../AVR8/Endpoint_AVR8.h **** 			 *                        from or written to the endpoint bank based on its direction, not both.
 242:lufa-lib-svn/LUFA/Drivers/USB/Core/AVR8/../AVR8/../AVR8/Endpoint_AVR8.h **** 			 *
 243:lufa-lib-svn/LUFA/Drivers/USB/Core/AVR8/../AVR8/../AVR8/Endpoint_AVR8.h **** 			 *  \param[in] Size       Size of the endpoint's bank, where packets are stored before they are 
 244:lufa-lib-svn/LUFA/Drivers/USB/Core/AVR8/../AVR8/../AVR8/Endpoint_AVR8.h **** 			 *                        to the USB host, or after they have been received from the USB host (d
 245:lufa-lib-svn/LUFA/Drivers/USB/Core/AVR8/../AVR8/../AVR8/Endpoint_AVR8.h **** 			 *                        the endpoint's data direction). The bank size must indicate the maximu
 246:lufa-lib-svn/LUFA/Drivers/USB/Core/AVR8/../AVR8/../AVR8/Endpoint_AVR8.h **** 			 *                        that the endpoint can handle.
 247:lufa-lib-svn/LUFA/Drivers/USB/Core/AVR8/../AVR8/../AVR8/Endpoint_AVR8.h **** 			 *
 248:lufa-lib-svn/LUFA/Drivers/USB/Core/AVR8/../AVR8/../AVR8/Endpoint_AVR8.h **** 			 *  \param[in] Banks      Number of banks to use for the endpoint being configured, an \c ENDPOI
 249:lufa-lib-svn/LUFA/Drivers/USB/Core/AVR8/../AVR8/../AVR8/Endpoint_AVR8.h **** 			 *                        More banks uses more USB DPRAM, but offers better performance. Isochro
 250:lufa-lib-svn/LUFA/Drivers/USB/Core/AVR8/../AVR8/../AVR8/Endpoint_AVR8.h **** 			 *                        endpoints <b>must</b> have at least two banks.
 251:lufa-lib-svn/LUFA/Drivers/USB/Core/AVR8/../AVR8/../AVR8/Endpoint_AVR8.h **** 			 *
 252:lufa-lib-svn/LUFA/Drivers/USB/Core/AVR8/../AVR8/../AVR8/Endpoint_AVR8.h **** 			 *  \note When the \c ORDERED_EP_CONFIG compile time option is used, Endpoints <b>must</b> be co
 253:lufa-lib-svn/LUFA/Drivers/USB/Core/AVR8/../AVR8/../AVR8/Endpoint_AVR8.h **** 			 *        ascending order, or bank corruption will occur.
 254:lufa-lib-svn/LUFA/Drivers/USB/Core/AVR8/../AVR8/../AVR8/Endpoint_AVR8.h **** 			 *        \n\n
 255:lufa-lib-svn/LUFA/Drivers/USB/Core/AVR8/../AVR8/../AVR8/Endpoint_AVR8.h **** 			 *
 256:lufa-lib-svn/LUFA/Drivers/USB/Core/AVR8/../AVR8/../AVR8/Endpoint_AVR8.h **** 			 *  \note Different endpoints may have different maximum packet sizes based on the endpoint's in
 257:lufa-lib-svn/LUFA/Drivers/USB/Core/AVR8/../AVR8/../AVR8/Endpoint_AVR8.h **** 			 *        the chosen microcontroller model's datasheet to determine the maximum bank size for ea
 258:lufa-lib-svn/LUFA/Drivers/USB/Core/AVR8/../AVR8/../AVR8/Endpoint_AVR8.h **** 			 *        \n\n
 259:lufa-lib-svn/LUFA/Drivers/USB/Core/AVR8/../AVR8/../AVR8/Endpoint_AVR8.h **** 			 *
 260:lufa-lib-svn/LUFA/Drivers/USB/Core/AVR8/../AVR8/../AVR8/Endpoint_AVR8.h **** 			 *  \note The default control endpoint should not be manually configured by the user application
 261:lufa-lib-svn/LUFA/Drivers/USB/Core/AVR8/../AVR8/../AVR8/Endpoint_AVR8.h **** 			 *        it is automatically configured by the library internally.
 262:lufa-lib-svn/LUFA/Drivers/USB/Core/AVR8/../AVR8/../AVR8/Endpoint_AVR8.h **** 			 *        \n\n
 263:lufa-lib-svn/LUFA/Drivers/USB/Core/AVR8/../AVR8/../AVR8/Endpoint_AVR8.h **** 			 *
 264:lufa-lib-svn/LUFA/Drivers/USB/Core/AVR8/../AVR8/../AVR8/Endpoint_AVR8.h **** 			 *  \note This routine will automatically select the specified endpoint upon success. Upon failu
 265:lufa-lib-svn/LUFA/Drivers/USB/Core/AVR8/../AVR8/../AVR8/Endpoint_AVR8.h **** 			 *        which failed to reconfigure correctly will be selected.
 266:lufa-lib-svn/LUFA/Drivers/USB/Core/AVR8/../AVR8/../AVR8/Endpoint_AVR8.h **** 			 *
 267:lufa-lib-svn/LUFA/Drivers/USB/Core/AVR8/../AVR8/../AVR8/Endpoint_AVR8.h **** 			 *  \return Boolean \c true if the configuration succeeded, \c false otherwise.
 268:lufa-lib-svn/LUFA/Drivers/USB/Core/AVR8/../AVR8/../AVR8/Endpoint_AVR8.h **** 			 */
 269:lufa-lib-svn/LUFA/Drivers/USB/Core/AVR8/../AVR8/../AVR8/Endpoint_AVR8.h **** 			static inline bool Endpoint_ConfigureEndpoint(const uint8_t Number,
 270:lufa-lib-svn/LUFA/Drivers/USB/Core/AVR8/../AVR8/../AVR8/Endpoint_AVR8.h **** 			                                              const uint8_t Type,
 271:lufa-lib-svn/LUFA/Drivers/USB/Core/AVR8/../AVR8/../AVR8/Endpoint_AVR8.h **** 			                                              const uint8_t Direction,
 272:lufa-lib-svn/LUFA/Drivers/USB/Core/AVR8/../AVR8/../AVR8/Endpoint_AVR8.h **** 			                                              const uint16_t Size,
 273:lufa-lib-svn/LUFA/Drivers/USB/Core/AVR8/../AVR8/../AVR8/Endpoint_AVR8.h **** 			                                              const uint8_t Banks) ATTR_ALWAYS_INLINE;
 274:lufa-lib-svn/LUFA/Drivers/USB/Core/AVR8/../AVR8/../AVR8/Endpoint_AVR8.h **** 			static inline bool Endpoint_ConfigureEndpoint(const uint8_t Number,
 275:lufa-lib-svn/LUFA/Drivers/USB/Core/AVR8/../AVR8/../AVR8/Endpoint_AVR8.h **** 			                                              const uint8_t Type,
 276:lufa-lib-svn/LUFA/Drivers/USB/Core/AVR8/../AVR8/../AVR8/Endpoint_AVR8.h **** 			                                              const uint8_t Direction,
 277:lufa-lib-svn/LUFA/Drivers/USB/Core/AVR8/../AVR8/../AVR8/Endpoint_AVR8.h **** 			                                              const uint16_t Size,
 278:lufa-lib-svn/LUFA/Drivers/USB/Core/AVR8/../AVR8/../AVR8/Endpoint_AVR8.h **** 			                                              const uint8_t Banks)
 279:lufa-lib-svn/LUFA/Drivers/USB/Core/AVR8/../AVR8/../AVR8/Endpoint_AVR8.h **** 			{
 280:lufa-lib-svn/LUFA/Drivers/USB/Core/AVR8/../AVR8/../AVR8/Endpoint_AVR8.h **** 				return Endpoint_ConfigureEndpoint_Prv(Number, ((Type << EPTYPE0) | (Direction ? (1 << EPDIR) : 
 281:lufa-lib-svn/LUFA/Drivers/USB/Core/AVR8/../AVR8/../AVR8/Endpoint_AVR8.h **** 				                                      ((1 << ALLOC) | Banks | Endpoint_BytesToEPSizeMask(Size))
 282:lufa-lib-svn/LUFA/Drivers/USB/Core/AVR8/../AVR8/../AVR8/Endpoint_AVR8.h **** 			}
 283:lufa-lib-svn/LUFA/Drivers/USB/Core/AVR8/../AVR8/../AVR8/Endpoint_AVR8.h **** 
 284:lufa-lib-svn/LUFA/Drivers/USB/Core/AVR8/../AVR8/../AVR8/Endpoint_AVR8.h **** 			/** Indicates the number of bytes currently stored in the current endpoint's selected bank.
 285:lufa-lib-svn/LUFA/Drivers/USB/Core/AVR8/../AVR8/../AVR8/Endpoint_AVR8.h **** 			 *
 286:lufa-lib-svn/LUFA/Drivers/USB/Core/AVR8/../AVR8/../AVR8/Endpoint_AVR8.h **** 			 *  \note The return width of this function may differ, depending on the maximum endpoint bank s
 287:lufa-lib-svn/LUFA/Drivers/USB/Core/AVR8/../AVR8/../AVR8/Endpoint_AVR8.h **** 			 *        of the selected AVR model.
 288:lufa-lib-svn/LUFA/Drivers/USB/Core/AVR8/../AVR8/../AVR8/Endpoint_AVR8.h **** 			 *
 289:lufa-lib-svn/LUFA/Drivers/USB/Core/AVR8/../AVR8/../AVR8/Endpoint_AVR8.h **** 			 *  \ingroup Group_EndpointRW_AVR8
 290:lufa-lib-svn/LUFA/Drivers/USB/Core/AVR8/../AVR8/../AVR8/Endpoint_AVR8.h **** 			 *
 291:lufa-lib-svn/LUFA/Drivers/USB/Core/AVR8/../AVR8/../AVR8/Endpoint_AVR8.h **** 			 *  \return Total number of bytes in the currently selected Endpoint's FIFO buffer.
 292:lufa-lib-svn/LUFA/Drivers/USB/Core/AVR8/../AVR8/../AVR8/Endpoint_AVR8.h **** 			 */
 293:lufa-lib-svn/LUFA/Drivers/USB/Core/AVR8/../AVR8/../AVR8/Endpoint_AVR8.h **** 			static inline uint16_t Endpoint_BytesInEndpoint(void) ATTR_WARN_UNUSED_RESULT ATTR_ALWAYS_INLINE
 294:lufa-lib-svn/LUFA/Drivers/USB/Core/AVR8/../AVR8/../AVR8/Endpoint_AVR8.h **** 			static inline uint16_t Endpoint_BytesInEndpoint(void)
 295:lufa-lib-svn/LUFA/Drivers/USB/Core/AVR8/../AVR8/../AVR8/Endpoint_AVR8.h **** 			{
 296:lufa-lib-svn/LUFA/Drivers/USB/Core/AVR8/../AVR8/../AVR8/Endpoint_AVR8.h **** 				#if defined(USB_SERIES_6_AVR) || defined(USB_SERIES_7_AVR)
 297:lufa-lib-svn/LUFA/Drivers/USB/Core/AVR8/../AVR8/../AVR8/Endpoint_AVR8.h **** 					return UEBCX;
 298:lufa-lib-svn/LUFA/Drivers/USB/Core/AVR8/../AVR8/../AVR8/Endpoint_AVR8.h **** 				#elif defined(USB_SERIES_4_AVR)
 299:lufa-lib-svn/LUFA/Drivers/USB/Core/AVR8/../AVR8/../AVR8/Endpoint_AVR8.h **** 					return (((uint16_t)UEBCHX << 8) | UEBCLX);
 300:lufa-lib-svn/LUFA/Drivers/USB/Core/AVR8/../AVR8/../AVR8/Endpoint_AVR8.h **** 				#elif defined(USB_SERIES_2_AVR)
 301:lufa-lib-svn/LUFA/Drivers/USB/Core/AVR8/../AVR8/../AVR8/Endpoint_AVR8.h **** 					return UEBCLX;
 302:lufa-lib-svn/LUFA/Drivers/USB/Core/AVR8/../AVR8/../AVR8/Endpoint_AVR8.h **** 				#endif
 303:lufa-lib-svn/LUFA/Drivers/USB/Core/AVR8/../AVR8/../AVR8/Endpoint_AVR8.h **** 			}
 304:lufa-lib-svn/LUFA/Drivers/USB/Core/AVR8/../AVR8/../AVR8/Endpoint_AVR8.h **** 
 305:lufa-lib-svn/LUFA/Drivers/USB/Core/AVR8/../AVR8/../AVR8/Endpoint_AVR8.h **** 			/** Get the endpoint address of the currently selected endpoint. This is typically used to save
 306:lufa-lib-svn/LUFA/Drivers/USB/Core/AVR8/../AVR8/../AVR8/Endpoint_AVR8.h **** 			 *  the currently selected endpoint number so that it can be restored after another endpoint has
 307:lufa-lib-svn/LUFA/Drivers/USB/Core/AVR8/../AVR8/../AVR8/Endpoint_AVR8.h **** 			 *  been manipulated.
 308:lufa-lib-svn/LUFA/Drivers/USB/Core/AVR8/../AVR8/../AVR8/Endpoint_AVR8.h **** 			 *
 309:lufa-lib-svn/LUFA/Drivers/USB/Core/AVR8/../AVR8/../AVR8/Endpoint_AVR8.h **** 			 *  \return Index of the currently selected endpoint.
 310:lufa-lib-svn/LUFA/Drivers/USB/Core/AVR8/../AVR8/../AVR8/Endpoint_AVR8.h **** 			 */
 311:lufa-lib-svn/LUFA/Drivers/USB/Core/AVR8/../AVR8/../AVR8/Endpoint_AVR8.h **** 			static inline uint8_t Endpoint_GetCurrentEndpoint(void) ATTR_WARN_UNUSED_RESULT ATTR_ALWAYS_INLI
 312:lufa-lib-svn/LUFA/Drivers/USB/Core/AVR8/../AVR8/../AVR8/Endpoint_AVR8.h **** 			static inline uint8_t Endpoint_GetCurrentEndpoint(void)
 313:lufa-lib-svn/LUFA/Drivers/USB/Core/AVR8/../AVR8/../AVR8/Endpoint_AVR8.h **** 			{
 314:lufa-lib-svn/LUFA/Drivers/USB/Core/AVR8/../AVR8/../AVR8/Endpoint_AVR8.h **** 				#if !defined(CONTROL_ONLY_DEVICE)
 315:lufa-lib-svn/LUFA/Drivers/USB/Core/AVR8/../AVR8/../AVR8/Endpoint_AVR8.h **** 					return (UENUM & ENDPOINT_EPNUM_MASK);
 316:lufa-lib-svn/LUFA/Drivers/USB/Core/AVR8/../AVR8/../AVR8/Endpoint_AVR8.h **** 				#else
 317:lufa-lib-svn/LUFA/Drivers/USB/Core/AVR8/../AVR8/../AVR8/Endpoint_AVR8.h **** 					return ENDPOINT_CONTROLEP;
 318:lufa-lib-svn/LUFA/Drivers/USB/Core/AVR8/../AVR8/../AVR8/Endpoint_AVR8.h **** 				#endif
 319:lufa-lib-svn/LUFA/Drivers/USB/Core/AVR8/../AVR8/../AVR8/Endpoint_AVR8.h **** 			}
 320:lufa-lib-svn/LUFA/Drivers/USB/Core/AVR8/../AVR8/../AVR8/Endpoint_AVR8.h **** 
 321:lufa-lib-svn/LUFA/Drivers/USB/Core/AVR8/../AVR8/../AVR8/Endpoint_AVR8.h **** 			/** Selects the given endpoint number. If the address from the device descriptors is used, the
 322:lufa-lib-svn/LUFA/Drivers/USB/Core/AVR8/../AVR8/../AVR8/Endpoint_AVR8.h **** 			 *  value should be masked with the \ref ENDPOINT_EPNUM_MASK constant to extract only the endpoi
 323:lufa-lib-svn/LUFA/Drivers/USB/Core/AVR8/../AVR8/../AVR8/Endpoint_AVR8.h **** 			 *  number (and discarding the endpoint direction bit).
 324:lufa-lib-svn/LUFA/Drivers/USB/Core/AVR8/../AVR8/../AVR8/Endpoint_AVR8.h **** 			 *
 325:lufa-lib-svn/LUFA/Drivers/USB/Core/AVR8/../AVR8/../AVR8/Endpoint_AVR8.h **** 			 *  Any endpoint operations which do not require the endpoint number to be indicated will operat
 326:lufa-lib-svn/LUFA/Drivers/USB/Core/AVR8/../AVR8/../AVR8/Endpoint_AVR8.h **** 			 *  the currently selected endpoint.
 327:lufa-lib-svn/LUFA/Drivers/USB/Core/AVR8/../AVR8/../AVR8/Endpoint_AVR8.h **** 			 *
 328:lufa-lib-svn/LUFA/Drivers/USB/Core/AVR8/../AVR8/../AVR8/Endpoint_AVR8.h **** 			 *  \param[in] EndpointNumber Endpoint number to select.
 329:lufa-lib-svn/LUFA/Drivers/USB/Core/AVR8/../AVR8/../AVR8/Endpoint_AVR8.h **** 			 */
 330:lufa-lib-svn/LUFA/Drivers/USB/Core/AVR8/../AVR8/../AVR8/Endpoint_AVR8.h **** 			static inline void Endpoint_SelectEndpoint(const uint8_t EndpointNumber) ATTR_ALWAYS_INLINE;
 331:lufa-lib-svn/LUFA/Drivers/USB/Core/AVR8/../AVR8/../AVR8/Endpoint_AVR8.h **** 			static inline void Endpoint_SelectEndpoint(const uint8_t EndpointNumber)
 332:lufa-lib-svn/LUFA/Drivers/USB/Core/AVR8/../AVR8/../AVR8/Endpoint_AVR8.h **** 			{
 333:lufa-lib-svn/LUFA/Drivers/USB/Core/AVR8/../AVR8/../AVR8/Endpoint_AVR8.h **** 				#if !defined(CONTROL_ONLY_DEVICE)
 334:lufa-lib-svn/LUFA/Drivers/USB/Core/AVR8/../AVR8/../AVR8/Endpoint_AVR8.h **** 					UENUM = EndpointNumber;
 335:lufa-lib-svn/LUFA/Drivers/USB/Core/AVR8/../AVR8/../AVR8/Endpoint_AVR8.h **** 				#endif
 336:lufa-lib-svn/LUFA/Drivers/USB/Core/AVR8/../AVR8/../AVR8/Endpoint_AVR8.h **** 			}
 337:lufa-lib-svn/LUFA/Drivers/USB/Core/AVR8/../AVR8/../AVR8/Endpoint_AVR8.h **** 
 338:lufa-lib-svn/LUFA/Drivers/USB/Core/AVR8/../AVR8/../AVR8/Endpoint_AVR8.h **** 			/** Resets the endpoint bank FIFO. This clears all the endpoint banks and resets the USB control
 339:lufa-lib-svn/LUFA/Drivers/USB/Core/AVR8/../AVR8/../AVR8/Endpoint_AVR8.h **** 			 *  data In and Out pointers to the bank's contents.
 340:lufa-lib-svn/LUFA/Drivers/USB/Core/AVR8/../AVR8/../AVR8/Endpoint_AVR8.h **** 			 *
 341:lufa-lib-svn/LUFA/Drivers/USB/Core/AVR8/../AVR8/../AVR8/Endpoint_AVR8.h **** 			 *  \param[in] EndpointNumber Endpoint number whose FIFO buffers are to be reset.
 342:lufa-lib-svn/LUFA/Drivers/USB/Core/AVR8/../AVR8/../AVR8/Endpoint_AVR8.h **** 			 */
 343:lufa-lib-svn/LUFA/Drivers/USB/Core/AVR8/../AVR8/../AVR8/Endpoint_AVR8.h **** 			static inline void Endpoint_ResetEndpoint(const uint8_t EndpointNumber) ATTR_ALWAYS_INLINE;
 344:lufa-lib-svn/LUFA/Drivers/USB/Core/AVR8/../AVR8/../AVR8/Endpoint_AVR8.h **** 			static inline void Endpoint_ResetEndpoint(const uint8_t EndpointNumber)
 345:lufa-lib-svn/LUFA/Drivers/USB/Core/AVR8/../AVR8/../AVR8/Endpoint_AVR8.h **** 			{
 346:lufa-lib-svn/LUFA/Drivers/USB/Core/AVR8/../AVR8/../AVR8/Endpoint_AVR8.h **** 				UERST = (1 << EndpointNumber);
 347:lufa-lib-svn/LUFA/Drivers/USB/Core/AVR8/../AVR8/../AVR8/Endpoint_AVR8.h **** 				UERST = 0;
 348:lufa-lib-svn/LUFA/Drivers/USB/Core/AVR8/../AVR8/../AVR8/Endpoint_AVR8.h **** 			}
 349:lufa-lib-svn/LUFA/Drivers/USB/Core/AVR8/../AVR8/../AVR8/Endpoint_AVR8.h **** 
 350:lufa-lib-svn/LUFA/Drivers/USB/Core/AVR8/../AVR8/../AVR8/Endpoint_AVR8.h **** 			/** Enables the currently selected endpoint so that data can be sent and received through it to
 351:lufa-lib-svn/LUFA/Drivers/USB/Core/AVR8/../AVR8/../AVR8/Endpoint_AVR8.h **** 			 *  and from a host.
 352:lufa-lib-svn/LUFA/Drivers/USB/Core/AVR8/../AVR8/../AVR8/Endpoint_AVR8.h **** 			 *
 353:lufa-lib-svn/LUFA/Drivers/USB/Core/AVR8/../AVR8/../AVR8/Endpoint_AVR8.h **** 			 *  \note Endpoints must first be configured properly via \ref Endpoint_ConfigureEndpoint().
 354:lufa-lib-svn/LUFA/Drivers/USB/Core/AVR8/../AVR8/../AVR8/Endpoint_AVR8.h **** 			 */
 355:lufa-lib-svn/LUFA/Drivers/USB/Core/AVR8/../AVR8/../AVR8/Endpoint_AVR8.h **** 			static inline void Endpoint_EnableEndpoint(void) ATTR_ALWAYS_INLINE;
 356:lufa-lib-svn/LUFA/Drivers/USB/Core/AVR8/../AVR8/../AVR8/Endpoint_AVR8.h **** 			static inline void Endpoint_EnableEndpoint(void)
 357:lufa-lib-svn/LUFA/Drivers/USB/Core/AVR8/../AVR8/../AVR8/Endpoint_AVR8.h **** 			{
 358:lufa-lib-svn/LUFA/Drivers/USB/Core/AVR8/../AVR8/../AVR8/Endpoint_AVR8.h **** 				UECONX |= (1 << EPEN);
 359:lufa-lib-svn/LUFA/Drivers/USB/Core/AVR8/../AVR8/../AVR8/Endpoint_AVR8.h **** 			}
 360:lufa-lib-svn/LUFA/Drivers/USB/Core/AVR8/../AVR8/../AVR8/Endpoint_AVR8.h **** 
 361:lufa-lib-svn/LUFA/Drivers/USB/Core/AVR8/../AVR8/../AVR8/Endpoint_AVR8.h **** 			/** Disables the currently selected endpoint so that data cannot be sent and received through it
 362:lufa-lib-svn/LUFA/Drivers/USB/Core/AVR8/../AVR8/../AVR8/Endpoint_AVR8.h **** 			 *  to and from a host.
 363:lufa-lib-svn/LUFA/Drivers/USB/Core/AVR8/../AVR8/../AVR8/Endpoint_AVR8.h **** 			 */
 364:lufa-lib-svn/LUFA/Drivers/USB/Core/AVR8/../AVR8/../AVR8/Endpoint_AVR8.h **** 			static inline void Endpoint_DisableEndpoint(void) ATTR_ALWAYS_INLINE;
 365:lufa-lib-svn/LUFA/Drivers/USB/Core/AVR8/../AVR8/../AVR8/Endpoint_AVR8.h **** 			static inline void Endpoint_DisableEndpoint(void)
 366:lufa-lib-svn/LUFA/Drivers/USB/Core/AVR8/../AVR8/../AVR8/Endpoint_AVR8.h **** 			{
 367:lufa-lib-svn/LUFA/Drivers/USB/Core/AVR8/../AVR8/../AVR8/Endpoint_AVR8.h **** 				UECONX &= ~(1 << EPEN);
 368:lufa-lib-svn/LUFA/Drivers/USB/Core/AVR8/../AVR8/../AVR8/Endpoint_AVR8.h **** 			}
 369:lufa-lib-svn/LUFA/Drivers/USB/Core/AVR8/../AVR8/../AVR8/Endpoint_AVR8.h **** 
 370:lufa-lib-svn/LUFA/Drivers/USB/Core/AVR8/../AVR8/../AVR8/Endpoint_AVR8.h **** 			/** Determines if the currently selected endpoint is enabled, but not necessarily configured.
 371:lufa-lib-svn/LUFA/Drivers/USB/Core/AVR8/../AVR8/../AVR8/Endpoint_AVR8.h **** 			 *
 372:lufa-lib-svn/LUFA/Drivers/USB/Core/AVR8/../AVR8/../AVR8/Endpoint_AVR8.h **** 			 * \return Boolean \c true if the currently selected endpoint is enabled, \c false otherwise.
 373:lufa-lib-svn/LUFA/Drivers/USB/Core/AVR8/../AVR8/../AVR8/Endpoint_AVR8.h **** 			 */
 374:lufa-lib-svn/LUFA/Drivers/USB/Core/AVR8/../AVR8/../AVR8/Endpoint_AVR8.h **** 			static inline bool Endpoint_IsEnabled(void) ATTR_WARN_UNUSED_RESULT ATTR_ALWAYS_INLINE;
 375:lufa-lib-svn/LUFA/Drivers/USB/Core/AVR8/../AVR8/../AVR8/Endpoint_AVR8.h **** 			static inline bool Endpoint_IsEnabled(void)
 376:lufa-lib-svn/LUFA/Drivers/USB/Core/AVR8/../AVR8/../AVR8/Endpoint_AVR8.h **** 			{
 377:lufa-lib-svn/LUFA/Drivers/USB/Core/AVR8/../AVR8/../AVR8/Endpoint_AVR8.h **** 				return ((UECONX & (1 << EPEN)) ? true : false);
 378:lufa-lib-svn/LUFA/Drivers/USB/Core/AVR8/../AVR8/../AVR8/Endpoint_AVR8.h **** 			}
 379:lufa-lib-svn/LUFA/Drivers/USB/Core/AVR8/../AVR8/../AVR8/Endpoint_AVR8.h **** 
 380:lufa-lib-svn/LUFA/Drivers/USB/Core/AVR8/../AVR8/../AVR8/Endpoint_AVR8.h **** 			/** Retrieves the number of busy banks in the currently selected endpoint, which have been queue
 381:lufa-lib-svn/LUFA/Drivers/USB/Core/AVR8/../AVR8/../AVR8/Endpoint_AVR8.h **** 			 *  transmission via the \ref Endpoint_ClearIN() command, or are awaiting acknowledgement via th
 382:lufa-lib-svn/LUFA/Drivers/USB/Core/AVR8/../AVR8/../AVR8/Endpoint_AVR8.h **** 			 *  \ref Endpoint_ClearOUT() command.
 383:lufa-lib-svn/LUFA/Drivers/USB/Core/AVR8/../AVR8/../AVR8/Endpoint_AVR8.h **** 			 *
 384:lufa-lib-svn/LUFA/Drivers/USB/Core/AVR8/../AVR8/../AVR8/Endpoint_AVR8.h **** 			 *  \ingroup Group_EndpointPacketManagement_AVR8
 385:lufa-lib-svn/LUFA/Drivers/USB/Core/AVR8/../AVR8/../AVR8/Endpoint_AVR8.h **** 			 *
 386:lufa-lib-svn/LUFA/Drivers/USB/Core/AVR8/../AVR8/../AVR8/Endpoint_AVR8.h **** 			 *  \return Total number of busy banks in the selected endpoint.
 387:lufa-lib-svn/LUFA/Drivers/USB/Core/AVR8/../AVR8/../AVR8/Endpoint_AVR8.h **** 			 */
 388:lufa-lib-svn/LUFA/Drivers/USB/Core/AVR8/../AVR8/../AVR8/Endpoint_AVR8.h **** 			static inline uint8_t Endpoint_GetBusyBanks(void) ATTR_ALWAYS_INLINE ATTR_WARN_UNUSED_RESULT;
 389:lufa-lib-svn/LUFA/Drivers/USB/Core/AVR8/../AVR8/../AVR8/Endpoint_AVR8.h **** 			static inline uint8_t Endpoint_GetBusyBanks(void)
 390:lufa-lib-svn/LUFA/Drivers/USB/Core/AVR8/../AVR8/../AVR8/Endpoint_AVR8.h **** 			{
 391:lufa-lib-svn/LUFA/Drivers/USB/Core/AVR8/../AVR8/../AVR8/Endpoint_AVR8.h **** 				return (UESTA0X & (0x03 << NBUSYBK0));
 392:lufa-lib-svn/LUFA/Drivers/USB/Core/AVR8/../AVR8/../AVR8/Endpoint_AVR8.h **** 			}
 393:lufa-lib-svn/LUFA/Drivers/USB/Core/AVR8/../AVR8/../AVR8/Endpoint_AVR8.h **** 
 394:lufa-lib-svn/LUFA/Drivers/USB/Core/AVR8/../AVR8/../AVR8/Endpoint_AVR8.h **** 			/** Aborts all pending IN transactions on the currently selected endpoint, once the bank
 395:lufa-lib-svn/LUFA/Drivers/USB/Core/AVR8/../AVR8/../AVR8/Endpoint_AVR8.h **** 			 *  has been queued for transmission to the host via \ref Endpoint_ClearIN(). This function
 396:lufa-lib-svn/LUFA/Drivers/USB/Core/AVR8/../AVR8/../AVR8/Endpoint_AVR8.h **** 			 *  will terminate all queued transactions, resetting the endpoint banks ready for a new
 397:lufa-lib-svn/LUFA/Drivers/USB/Core/AVR8/../AVR8/../AVR8/Endpoint_AVR8.h **** 			 *  packet.
 398:lufa-lib-svn/LUFA/Drivers/USB/Core/AVR8/../AVR8/../AVR8/Endpoint_AVR8.h **** 			 *
 399:lufa-lib-svn/LUFA/Drivers/USB/Core/AVR8/../AVR8/../AVR8/Endpoint_AVR8.h **** 			 *  \ingroup Group_EndpointPacketManagement_AVR8
 400:lufa-lib-svn/LUFA/Drivers/USB/Core/AVR8/../AVR8/../AVR8/Endpoint_AVR8.h **** 			 */
 401:lufa-lib-svn/LUFA/Drivers/USB/Core/AVR8/../AVR8/../AVR8/Endpoint_AVR8.h **** 			static inline void Endpoint_AbortPendingIN(void)
 402:lufa-lib-svn/LUFA/Drivers/USB/Core/AVR8/../AVR8/../AVR8/Endpoint_AVR8.h **** 			{
 403:lufa-lib-svn/LUFA/Drivers/USB/Core/AVR8/../AVR8/../AVR8/Endpoint_AVR8.h **** 				while (Endpoint_GetBusyBanks() != 0)
 404:lufa-lib-svn/LUFA/Drivers/USB/Core/AVR8/../AVR8/../AVR8/Endpoint_AVR8.h **** 				{
 405:lufa-lib-svn/LUFA/Drivers/USB/Core/AVR8/../AVR8/../AVR8/Endpoint_AVR8.h **** 					UEINTX |= (1 << RXOUTI);
 406:lufa-lib-svn/LUFA/Drivers/USB/Core/AVR8/../AVR8/../AVR8/Endpoint_AVR8.h **** 					while (UEINTX & (1 << RXOUTI));
 407:lufa-lib-svn/LUFA/Drivers/USB/Core/AVR8/../AVR8/../AVR8/Endpoint_AVR8.h **** 				}
 408:lufa-lib-svn/LUFA/Drivers/USB/Core/AVR8/../AVR8/../AVR8/Endpoint_AVR8.h **** 			}
 409:lufa-lib-svn/LUFA/Drivers/USB/Core/AVR8/../AVR8/../AVR8/Endpoint_AVR8.h **** 
 410:lufa-lib-svn/LUFA/Drivers/USB/Core/AVR8/../AVR8/../AVR8/Endpoint_AVR8.h **** 			/** Determines if the currently selected endpoint may be read from (if data is waiting in the en
 411:lufa-lib-svn/LUFA/Drivers/USB/Core/AVR8/../AVR8/../AVR8/Endpoint_AVR8.h **** 			 *  bank and the endpoint is an OUT direction, or if the bank is not yet full if the endpoint is
 412:lufa-lib-svn/LUFA/Drivers/USB/Core/AVR8/../AVR8/../AVR8/Endpoint_AVR8.h **** 			 *  direction). This function will return false if an error has occurred in the endpoint, if the
 413:lufa-lib-svn/LUFA/Drivers/USB/Core/AVR8/../AVR8/../AVR8/Endpoint_AVR8.h **** 			 *  is an OUT direction and no packet (or an empty packet) has been received, or if the endpoint
 414:lufa-lib-svn/LUFA/Drivers/USB/Core/AVR8/../AVR8/../AVR8/Endpoint_AVR8.h **** 			 *  direction and the endpoint bank is full.
 415:lufa-lib-svn/LUFA/Drivers/USB/Core/AVR8/../AVR8/../AVR8/Endpoint_AVR8.h **** 			 *
 416:lufa-lib-svn/LUFA/Drivers/USB/Core/AVR8/../AVR8/../AVR8/Endpoint_AVR8.h **** 			 *  \ingroup Group_EndpointPacketManagement_AVR8
 417:lufa-lib-svn/LUFA/Drivers/USB/Core/AVR8/../AVR8/../AVR8/Endpoint_AVR8.h **** 			 *
 418:lufa-lib-svn/LUFA/Drivers/USB/Core/AVR8/../AVR8/../AVR8/Endpoint_AVR8.h **** 			 *  \return Boolean \c true if the currently selected endpoint may be read from or written to, d
 419:lufa-lib-svn/LUFA/Drivers/USB/Core/AVR8/../AVR8/../AVR8/Endpoint_AVR8.h **** 			 *          on its direction.
 420:lufa-lib-svn/LUFA/Drivers/USB/Core/AVR8/../AVR8/../AVR8/Endpoint_AVR8.h **** 			 */
 421:lufa-lib-svn/LUFA/Drivers/USB/Core/AVR8/../AVR8/../AVR8/Endpoint_AVR8.h **** 			static inline bool Endpoint_IsReadWriteAllowed(void) ATTR_WARN_UNUSED_RESULT ATTR_ALWAYS_INLINE;
 422:lufa-lib-svn/LUFA/Drivers/USB/Core/AVR8/../AVR8/../AVR8/Endpoint_AVR8.h **** 			static inline bool Endpoint_IsReadWriteAllowed(void)
 423:lufa-lib-svn/LUFA/Drivers/USB/Core/AVR8/../AVR8/../AVR8/Endpoint_AVR8.h **** 			{
 424:lufa-lib-svn/LUFA/Drivers/USB/Core/AVR8/../AVR8/../AVR8/Endpoint_AVR8.h **** 				return ((UEINTX & (1 << RWAL)) ? true : false);
  82               		.loc 2 424 0
  83 0032 8091 E800 		lds r24,232
  84               	.LBE257:
  85               	.LBE256:
  50:lufa-lib-svn/LUFA/Drivers/USB/Core/AVR8/EndpointStream_AVR8.c **** 
  51:lufa-lib-svn/LUFA/Drivers/USB/Core/AVR8/EndpointStream_AVR8.c **** 	while (Length)
  52:lufa-lib-svn/LUFA/Drivers/USB/Core/AVR8/EndpointStream_AVR8.c **** 	{
  53:lufa-lib-svn/LUFA/Drivers/USB/Core/AVR8/EndpointStream_AVR8.c **** 		if (!(Endpoint_IsReadWriteAllowed()))
  86               		.loc 1 53 0
  87 0036 85FD      		sbrc r24,5
  88 0038 00C0      		rjmp .L5
  89               	.LBB258:
  90               	.LBB259:
 425:lufa-lib-svn/LUFA/Drivers/USB/Core/AVR8/../AVR8/../AVR8/Endpoint_AVR8.h **** 			}
 426:lufa-lib-svn/LUFA/Drivers/USB/Core/AVR8/../AVR8/../AVR8/Endpoint_AVR8.h **** 
 427:lufa-lib-svn/LUFA/Drivers/USB/Core/AVR8/../AVR8/../AVR8/Endpoint_AVR8.h **** 			/** Determines if the currently selected endpoint is configured.
 428:lufa-lib-svn/LUFA/Drivers/USB/Core/AVR8/../AVR8/../AVR8/Endpoint_AVR8.h **** 			 *
 429:lufa-lib-svn/LUFA/Drivers/USB/Core/AVR8/../AVR8/../AVR8/Endpoint_AVR8.h **** 			 *  \return Boolean \c true if the currently selected endpoint has been configured, \c false oth
 430:lufa-lib-svn/LUFA/Drivers/USB/Core/AVR8/../AVR8/../AVR8/Endpoint_AVR8.h **** 			 */
 431:lufa-lib-svn/LUFA/Drivers/USB/Core/AVR8/../AVR8/../AVR8/Endpoint_AVR8.h **** 			static inline bool Endpoint_IsConfigured(void) ATTR_WARN_UNUSED_RESULT ATTR_ALWAYS_INLINE;
 432:lufa-lib-svn/LUFA/Drivers/USB/Core/AVR8/../AVR8/../AVR8/Endpoint_AVR8.h **** 			static inline bool Endpoint_IsConfigured(void)
 433:lufa-lib-svn/LUFA/Drivers/USB/Core/AVR8/../AVR8/../AVR8/Endpoint_AVR8.h **** 			{
 434:lufa-lib-svn/LUFA/Drivers/USB/Core/AVR8/../AVR8/../AVR8/Endpoint_AVR8.h **** 				return ((UESTA0X & (1 << CFGOK)) ? true : false);
 435:lufa-lib-svn/LUFA/Drivers/USB/Core/AVR8/../AVR8/../AVR8/Endpoint_AVR8.h **** 			}
 436:lufa-lib-svn/LUFA/Drivers/USB/Core/AVR8/../AVR8/../AVR8/Endpoint_AVR8.h **** 
 437:lufa-lib-svn/LUFA/Drivers/USB/Core/AVR8/../AVR8/../AVR8/Endpoint_AVR8.h **** 			/** Returns a mask indicating which INTERRUPT type endpoints have interrupted - i.e. their
 438:lufa-lib-svn/LUFA/Drivers/USB/Core/AVR8/../AVR8/../AVR8/Endpoint_AVR8.h **** 			 *  interrupt duration has elapsed. Which endpoints have interrupted can be determined by
 439:lufa-lib-svn/LUFA/Drivers/USB/Core/AVR8/../AVR8/../AVR8/Endpoint_AVR8.h **** 			 *  masking the return value against <tt>(1 << <i>{Endpoint Number}</i>)</tt>.
 440:lufa-lib-svn/LUFA/Drivers/USB/Core/AVR8/../AVR8/../AVR8/Endpoint_AVR8.h **** 			 *
 441:lufa-lib-svn/LUFA/Drivers/USB/Core/AVR8/../AVR8/../AVR8/Endpoint_AVR8.h **** 			 *  \return Mask whose bits indicate which endpoints have interrupted.
 442:lufa-lib-svn/LUFA/Drivers/USB/Core/AVR8/../AVR8/../AVR8/Endpoint_AVR8.h **** 			 */
 443:lufa-lib-svn/LUFA/Drivers/USB/Core/AVR8/../AVR8/../AVR8/Endpoint_AVR8.h **** 			static inline uint8_t Endpoint_GetEndpointInterrupts(void) ATTR_WARN_UNUSED_RESULT ATTR_ALWAYS_I
 444:lufa-lib-svn/LUFA/Drivers/USB/Core/AVR8/../AVR8/../AVR8/Endpoint_AVR8.h **** 			static inline uint8_t Endpoint_GetEndpointInterrupts(void)
 445:lufa-lib-svn/LUFA/Drivers/USB/Core/AVR8/../AVR8/../AVR8/Endpoint_AVR8.h **** 			{
 446:lufa-lib-svn/LUFA/Drivers/USB/Core/AVR8/../AVR8/../AVR8/Endpoint_AVR8.h **** 				return UEINT;
 447:lufa-lib-svn/LUFA/Drivers/USB/Core/AVR8/../AVR8/../AVR8/Endpoint_AVR8.h **** 			}
 448:lufa-lib-svn/LUFA/Drivers/USB/Core/AVR8/../AVR8/../AVR8/Endpoint_AVR8.h **** 
 449:lufa-lib-svn/LUFA/Drivers/USB/Core/AVR8/../AVR8/../AVR8/Endpoint_AVR8.h **** 			/** Determines if the specified endpoint number has interrupted (valid only for INTERRUPT type
 450:lufa-lib-svn/LUFA/Drivers/USB/Core/AVR8/../AVR8/../AVR8/Endpoint_AVR8.h **** 			 *  endpoints).
 451:lufa-lib-svn/LUFA/Drivers/USB/Core/AVR8/../AVR8/../AVR8/Endpoint_AVR8.h **** 			 *
 452:lufa-lib-svn/LUFA/Drivers/USB/Core/AVR8/../AVR8/../AVR8/Endpoint_AVR8.h **** 			 *  \param[in] EndpointNumber  Index of the endpoint whose interrupt flag should be tested.
 453:lufa-lib-svn/LUFA/Drivers/USB/Core/AVR8/../AVR8/../AVR8/Endpoint_AVR8.h **** 			 *
 454:lufa-lib-svn/LUFA/Drivers/USB/Core/AVR8/../AVR8/../AVR8/Endpoint_AVR8.h **** 			 *  \return Boolean \c true if the specified endpoint has interrupted, \c false otherwise.
 455:lufa-lib-svn/LUFA/Drivers/USB/Core/AVR8/../AVR8/../AVR8/Endpoint_AVR8.h **** 			 */
 456:lufa-lib-svn/LUFA/Drivers/USB/Core/AVR8/../AVR8/../AVR8/Endpoint_AVR8.h **** 			static inline bool Endpoint_HasEndpointInterrupted(const uint8_t EndpointNumber) ATTR_WARN_UNUSE
 457:lufa-lib-svn/LUFA/Drivers/USB/Core/AVR8/../AVR8/../AVR8/Endpoint_AVR8.h **** 			static inline bool Endpoint_HasEndpointInterrupted(const uint8_t EndpointNumber)
 458:lufa-lib-svn/LUFA/Drivers/USB/Core/AVR8/../AVR8/../AVR8/Endpoint_AVR8.h **** 			{
 459:lufa-lib-svn/LUFA/Drivers/USB/Core/AVR8/../AVR8/../AVR8/Endpoint_AVR8.h **** 				return ((Endpoint_GetEndpointInterrupts() & (1 << EndpointNumber)) ? true : false);
 460:lufa-lib-svn/LUFA/Drivers/USB/Core/AVR8/../AVR8/../AVR8/Endpoint_AVR8.h **** 			}
 461:lufa-lib-svn/LUFA/Drivers/USB/Core/AVR8/../AVR8/../AVR8/Endpoint_AVR8.h **** 
 462:lufa-lib-svn/LUFA/Drivers/USB/Core/AVR8/../AVR8/../AVR8/Endpoint_AVR8.h **** 			/** Determines if the selected IN endpoint is ready for a new packet to be sent to the host.
 463:lufa-lib-svn/LUFA/Drivers/USB/Core/AVR8/../AVR8/../AVR8/Endpoint_AVR8.h **** 			 *
 464:lufa-lib-svn/LUFA/Drivers/USB/Core/AVR8/../AVR8/../AVR8/Endpoint_AVR8.h **** 			 *  \ingroup Group_EndpointPacketManagement_AVR8
 465:lufa-lib-svn/LUFA/Drivers/USB/Core/AVR8/../AVR8/../AVR8/Endpoint_AVR8.h **** 			 *
 466:lufa-lib-svn/LUFA/Drivers/USB/Core/AVR8/../AVR8/../AVR8/Endpoint_AVR8.h **** 			 *  \return Boolean \c true if the current endpoint is ready for an IN packet, \c false otherwis
 467:lufa-lib-svn/LUFA/Drivers/USB/Core/AVR8/../AVR8/../AVR8/Endpoint_AVR8.h **** 			 */
 468:lufa-lib-svn/LUFA/Drivers/USB/Core/AVR8/../AVR8/../AVR8/Endpoint_AVR8.h **** 			static inline bool Endpoint_IsINReady(void) ATTR_WARN_UNUSED_RESULT ATTR_ALWAYS_INLINE;
 469:lufa-lib-svn/LUFA/Drivers/USB/Core/AVR8/../AVR8/../AVR8/Endpoint_AVR8.h **** 			static inline bool Endpoint_IsINReady(void)
 470:lufa-lib-svn/LUFA/Drivers/USB/Core/AVR8/../AVR8/../AVR8/Endpoint_AVR8.h **** 			{
 471:lufa-lib-svn/LUFA/Drivers/USB/Core/AVR8/../AVR8/../AVR8/Endpoint_AVR8.h **** 				return ((UEINTX & (1 << TXINI)) ? true : false);
 472:lufa-lib-svn/LUFA/Drivers/USB/Core/AVR8/../AVR8/../AVR8/Endpoint_AVR8.h **** 			}
 473:lufa-lib-svn/LUFA/Drivers/USB/Core/AVR8/../AVR8/../AVR8/Endpoint_AVR8.h **** 
 474:lufa-lib-svn/LUFA/Drivers/USB/Core/AVR8/../AVR8/../AVR8/Endpoint_AVR8.h **** 			/** Determines if the selected OUT endpoint has received new packet from the host.
 475:lufa-lib-svn/LUFA/Drivers/USB/Core/AVR8/../AVR8/../AVR8/Endpoint_AVR8.h **** 			 *
 476:lufa-lib-svn/LUFA/Drivers/USB/Core/AVR8/../AVR8/../AVR8/Endpoint_AVR8.h **** 			 *  \ingroup Group_EndpointPacketManagement_AVR8
 477:lufa-lib-svn/LUFA/Drivers/USB/Core/AVR8/../AVR8/../AVR8/Endpoint_AVR8.h **** 			 *
 478:lufa-lib-svn/LUFA/Drivers/USB/Core/AVR8/../AVR8/../AVR8/Endpoint_AVR8.h **** 			 *  \return Boolean \c true if current endpoint is has received an OUT packet, \c false otherwis
 479:lufa-lib-svn/LUFA/Drivers/USB/Core/AVR8/../AVR8/../AVR8/Endpoint_AVR8.h **** 			 */
 480:lufa-lib-svn/LUFA/Drivers/USB/Core/AVR8/../AVR8/../AVR8/Endpoint_AVR8.h **** 			static inline bool Endpoint_IsOUTReceived(void) ATTR_WARN_UNUSED_RESULT ATTR_ALWAYS_INLINE;
 481:lufa-lib-svn/LUFA/Drivers/USB/Core/AVR8/../AVR8/../AVR8/Endpoint_AVR8.h **** 			static inline bool Endpoint_IsOUTReceived(void)
 482:lufa-lib-svn/LUFA/Drivers/USB/Core/AVR8/../AVR8/../AVR8/Endpoint_AVR8.h **** 			{
 483:lufa-lib-svn/LUFA/Drivers/USB/Core/AVR8/../AVR8/../AVR8/Endpoint_AVR8.h **** 				return ((UEINTX & (1 << RXOUTI)) ? true : false);
 484:lufa-lib-svn/LUFA/Drivers/USB/Core/AVR8/../AVR8/../AVR8/Endpoint_AVR8.h **** 			}
 485:lufa-lib-svn/LUFA/Drivers/USB/Core/AVR8/../AVR8/../AVR8/Endpoint_AVR8.h **** 
 486:lufa-lib-svn/LUFA/Drivers/USB/Core/AVR8/../AVR8/../AVR8/Endpoint_AVR8.h **** 			/** Determines if the current CONTROL type endpoint has received a SETUP packet.
 487:lufa-lib-svn/LUFA/Drivers/USB/Core/AVR8/../AVR8/../AVR8/Endpoint_AVR8.h **** 			 *
 488:lufa-lib-svn/LUFA/Drivers/USB/Core/AVR8/../AVR8/../AVR8/Endpoint_AVR8.h **** 			 *  \ingroup Group_EndpointPacketManagement_AVR8
 489:lufa-lib-svn/LUFA/Drivers/USB/Core/AVR8/../AVR8/../AVR8/Endpoint_AVR8.h **** 			 *
 490:lufa-lib-svn/LUFA/Drivers/USB/Core/AVR8/../AVR8/../AVR8/Endpoint_AVR8.h **** 			 *  \return Boolean \c true if the selected endpoint has received a SETUP packet, \c false other
 491:lufa-lib-svn/LUFA/Drivers/USB/Core/AVR8/../AVR8/../AVR8/Endpoint_AVR8.h **** 			 */
 492:lufa-lib-svn/LUFA/Drivers/USB/Core/AVR8/../AVR8/../AVR8/Endpoint_AVR8.h **** 			static inline bool Endpoint_IsSETUPReceived(void) ATTR_WARN_UNUSED_RESULT ATTR_ALWAYS_INLINE;
 493:lufa-lib-svn/LUFA/Drivers/USB/Core/AVR8/../AVR8/../AVR8/Endpoint_AVR8.h **** 			static inline bool Endpoint_IsSETUPReceived(void)
 494:lufa-lib-svn/LUFA/Drivers/USB/Core/AVR8/../AVR8/../AVR8/Endpoint_AVR8.h **** 			{
 495:lufa-lib-svn/LUFA/Drivers/USB/Core/AVR8/../AVR8/../AVR8/Endpoint_AVR8.h **** 				return ((UEINTX & (1 << RXSTPI)) ? true : false);
 496:lufa-lib-svn/LUFA/Drivers/USB/Core/AVR8/../AVR8/../AVR8/Endpoint_AVR8.h **** 			}
 497:lufa-lib-svn/LUFA/Drivers/USB/Core/AVR8/../AVR8/../AVR8/Endpoint_AVR8.h **** 
 498:lufa-lib-svn/LUFA/Drivers/USB/Core/AVR8/../AVR8/../AVR8/Endpoint_AVR8.h **** 			/** Clears a received SETUP packet on the currently selected CONTROL type endpoint, freeing up t
 499:lufa-lib-svn/LUFA/Drivers/USB/Core/AVR8/../AVR8/../AVR8/Endpoint_AVR8.h **** 			 *  endpoint for the next packet.
 500:lufa-lib-svn/LUFA/Drivers/USB/Core/AVR8/../AVR8/../AVR8/Endpoint_AVR8.h **** 			 *
 501:lufa-lib-svn/LUFA/Drivers/USB/Core/AVR8/../AVR8/../AVR8/Endpoint_AVR8.h **** 			 *  \ingroup Group_EndpointPacketManagement_AVR8
 502:lufa-lib-svn/LUFA/Drivers/USB/Core/AVR8/../AVR8/../AVR8/Endpoint_AVR8.h **** 			 *
 503:lufa-lib-svn/LUFA/Drivers/USB/Core/AVR8/../AVR8/../AVR8/Endpoint_AVR8.h **** 			 *  \note This is not applicable for non CONTROL type endpoints.
 504:lufa-lib-svn/LUFA/Drivers/USB/Core/AVR8/../AVR8/../AVR8/Endpoint_AVR8.h **** 			 */
 505:lufa-lib-svn/LUFA/Drivers/USB/Core/AVR8/../AVR8/../AVR8/Endpoint_AVR8.h **** 			static inline void Endpoint_ClearSETUP(void) ATTR_ALWAYS_INLINE;
 506:lufa-lib-svn/LUFA/Drivers/USB/Core/AVR8/../AVR8/../AVR8/Endpoint_AVR8.h **** 			static inline void Endpoint_ClearSETUP(void)
 507:lufa-lib-svn/LUFA/Drivers/USB/Core/AVR8/../AVR8/../AVR8/Endpoint_AVR8.h **** 			{
 508:lufa-lib-svn/LUFA/Drivers/USB/Core/AVR8/../AVR8/../AVR8/Endpoint_AVR8.h **** 				UEINTX &= ~(1 << RXSTPI);
 509:lufa-lib-svn/LUFA/Drivers/USB/Core/AVR8/../AVR8/../AVR8/Endpoint_AVR8.h **** 			}
 510:lufa-lib-svn/LUFA/Drivers/USB/Core/AVR8/../AVR8/../AVR8/Endpoint_AVR8.h **** 
 511:lufa-lib-svn/LUFA/Drivers/USB/Core/AVR8/../AVR8/../AVR8/Endpoint_AVR8.h **** 			/** Sends an IN packet to the host on the currently selected endpoint, freeing up the endpoint f
 512:lufa-lib-svn/LUFA/Drivers/USB/Core/AVR8/../AVR8/../AVR8/Endpoint_AVR8.h **** 			 *  next packet and switching to the alternative endpoint bank if double banked.
 513:lufa-lib-svn/LUFA/Drivers/USB/Core/AVR8/../AVR8/../AVR8/Endpoint_AVR8.h **** 			 *
 514:lufa-lib-svn/LUFA/Drivers/USB/Core/AVR8/../AVR8/../AVR8/Endpoint_AVR8.h **** 			 *  \ingroup Group_EndpointPacketManagement_AVR8
 515:lufa-lib-svn/LUFA/Drivers/USB/Core/AVR8/../AVR8/../AVR8/Endpoint_AVR8.h **** 			 */
 516:lufa-lib-svn/LUFA/Drivers/USB/Core/AVR8/../AVR8/../AVR8/Endpoint_AVR8.h **** 			static inline void Endpoint_ClearIN(void) ATTR_ALWAYS_INLINE;
 517:lufa-lib-svn/LUFA/Drivers/USB/Core/AVR8/../AVR8/../AVR8/Endpoint_AVR8.h **** 			static inline void Endpoint_ClearIN(void)
 518:lufa-lib-svn/LUFA/Drivers/USB/Core/AVR8/../AVR8/../AVR8/Endpoint_AVR8.h **** 			{
 519:lufa-lib-svn/LUFA/Drivers/USB/Core/AVR8/../AVR8/../AVR8/Endpoint_AVR8.h **** 				#if !defined(CONTROL_ONLY_DEVICE)
 520:lufa-lib-svn/LUFA/Drivers/USB/Core/AVR8/../AVR8/../AVR8/Endpoint_AVR8.h **** 					UEINTX &= ~((1 << TXINI) | (1 << FIFOCON));
 521:lufa-lib-svn/LUFA/Drivers/USB/Core/AVR8/../AVR8/../AVR8/Endpoint_AVR8.h **** 				#else
 522:lufa-lib-svn/LUFA/Drivers/USB/Core/AVR8/../AVR8/../AVR8/Endpoint_AVR8.h **** 					UEINTX &= ~(1 << TXINI);
 523:lufa-lib-svn/LUFA/Drivers/USB/Core/AVR8/../AVR8/../AVR8/Endpoint_AVR8.h **** 				#endif
 524:lufa-lib-svn/LUFA/Drivers/USB/Core/AVR8/../AVR8/../AVR8/Endpoint_AVR8.h **** 			}
 525:lufa-lib-svn/LUFA/Drivers/USB/Core/AVR8/../AVR8/../AVR8/Endpoint_AVR8.h **** 
 526:lufa-lib-svn/LUFA/Drivers/USB/Core/AVR8/../AVR8/../AVR8/Endpoint_AVR8.h **** 			/** Acknowledges an OUT packet to the host on the currently selected endpoint, freeing up the en
 527:lufa-lib-svn/LUFA/Drivers/USB/Core/AVR8/../AVR8/../AVR8/Endpoint_AVR8.h **** 			 *  for the next packet and switching to the alternative endpoint bank if double banked.
 528:lufa-lib-svn/LUFA/Drivers/USB/Core/AVR8/../AVR8/../AVR8/Endpoint_AVR8.h **** 			 *
 529:lufa-lib-svn/LUFA/Drivers/USB/Core/AVR8/../AVR8/../AVR8/Endpoint_AVR8.h **** 			 *  \ingroup Group_EndpointPacketManagement_AVR8
 530:lufa-lib-svn/LUFA/Drivers/USB/Core/AVR8/../AVR8/../AVR8/Endpoint_AVR8.h **** 			 */
 531:lufa-lib-svn/LUFA/Drivers/USB/Core/AVR8/../AVR8/../AVR8/Endpoint_AVR8.h **** 			static inline void Endpoint_ClearOUT(void) ATTR_ALWAYS_INLINE;
 532:lufa-lib-svn/LUFA/Drivers/USB/Core/AVR8/../AVR8/../AVR8/Endpoint_AVR8.h **** 			static inline void Endpoint_ClearOUT(void)
 533:lufa-lib-svn/LUFA/Drivers/USB/Core/AVR8/../AVR8/../AVR8/Endpoint_AVR8.h **** 			{
 534:lufa-lib-svn/LUFA/Drivers/USB/Core/AVR8/../AVR8/../AVR8/Endpoint_AVR8.h **** 				#if !defined(CONTROL_ONLY_DEVICE)
 535:lufa-lib-svn/LUFA/Drivers/USB/Core/AVR8/../AVR8/../AVR8/Endpoint_AVR8.h **** 					UEINTX &= ~((1 << RXOUTI) | (1 << FIFOCON));
  91               		.loc 2 535 0
  92 003a 8091 E800 		lds r24,232
  93 003e 8B77      		andi r24,lo8(123)
  94 0040 8093 E800 		sts 232,r24
  95               	.LBE259:
  96               	.LBE258:
  54:lufa-lib-svn/LUFA/Drivers/USB/Core/AVR8/EndpointStream_AVR8.c **** 		{
  55:lufa-lib-svn/LUFA/Drivers/USB/Core/AVR8/EndpointStream_AVR8.c **** 			Endpoint_ClearOUT();
  56:lufa-lib-svn/LUFA/Drivers/USB/Core/AVR8/EndpointStream_AVR8.c **** 
  57:lufa-lib-svn/LUFA/Drivers/USB/Core/AVR8/EndpointStream_AVR8.c **** 			if (BytesProcessed != NULL)
  97               		.loc 1 57 0
  98 0044 0115      		cp r16,__zero_reg__
  99 0046 1105      		cpc r17,__zero_reg__
 100 0048 01F0      		breq .L6
  58:lufa-lib-svn/LUFA/Drivers/USB/Core/AVR8/EndpointStream_AVR8.c **** 			{
  59:lufa-lib-svn/LUFA/Drivers/USB/Core/AVR8/EndpointStream_AVR8.c **** 				*BytesProcessed += BytesInTransfer;
 101               		.loc 1 59 0
 102 004a F801      		movw r30,r16
 103 004c 8081      		ld r24,Z
 104 004e 9181      		ldd r25,Z+1
 105 0050 8E0D      		add r24,r14
 106 0052 9F1D      		adc r25,r15
 107 0054 9183      		std Z+1,r25
 108 0056 8083      		st Z,r24
  60:lufa-lib-svn/LUFA/Drivers/USB/Core/AVR8/EndpointStream_AVR8.c **** 				return ENDPOINT_RWSTREAM_IncompleteTransfer;
 109               		.loc 1 60 0
 110 0058 85E0      		ldi r24,lo8(5)
 111 005a D82E      		mov r13,r24
 112 005c 00C0      		rjmp .L2
 113               	.L6:
  61:lufa-lib-svn/LUFA/Drivers/USB/Core/AVR8/EndpointStream_AVR8.c **** 			}
  62:lufa-lib-svn/LUFA/Drivers/USB/Core/AVR8/EndpointStream_AVR8.c **** 
  63:lufa-lib-svn/LUFA/Drivers/USB/Core/AVR8/EndpointStream_AVR8.c **** 			if ((ErrorCode = Endpoint_WaitUntilReady()))
 114               		.loc 1 63 0
 115 005e 0E94 0000 		call Endpoint_WaitUntilReady
 116               	.LVL6:
 117 0062 8823      		tst r24
 118 0064 01F0      		breq .L13
 119 0066 00C0      		rjmp .L9
 120               	.LVL7:
 121               	.L5:
 122               	.LBB260:
 123               	.LBB261:
 536:lufa-lib-svn/LUFA/Drivers/USB/Core/AVR8/../AVR8/../AVR8/Endpoint_AVR8.h **** 				#else
 537:lufa-lib-svn/LUFA/Drivers/USB/Core/AVR8/../AVR8/../AVR8/Endpoint_AVR8.h **** 					UEINTX &= ~(1 << RXOUTI);
 538:lufa-lib-svn/LUFA/Drivers/USB/Core/AVR8/../AVR8/../AVR8/Endpoint_AVR8.h **** 				#endif
 539:lufa-lib-svn/LUFA/Drivers/USB/Core/AVR8/../AVR8/../AVR8/Endpoint_AVR8.h **** 			}
 540:lufa-lib-svn/LUFA/Drivers/USB/Core/AVR8/../AVR8/../AVR8/Endpoint_AVR8.h **** 
 541:lufa-lib-svn/LUFA/Drivers/USB/Core/AVR8/../AVR8/../AVR8/Endpoint_AVR8.h **** 			/** Stalls the current endpoint, indicating to the host that a logical problem occurred with the
 542:lufa-lib-svn/LUFA/Drivers/USB/Core/AVR8/../AVR8/../AVR8/Endpoint_AVR8.h **** 			 *  indicated endpoint and that the current transfer sequence should be aborted. This provides a
 543:lufa-lib-svn/LUFA/Drivers/USB/Core/AVR8/../AVR8/../AVR8/Endpoint_AVR8.h **** 			 *  way for devices to indicate invalid commands to the host so that the current transfer can be
 544:lufa-lib-svn/LUFA/Drivers/USB/Core/AVR8/../AVR8/../AVR8/Endpoint_AVR8.h **** 			 *  aborted and the host can begin its own recovery sequence.
 545:lufa-lib-svn/LUFA/Drivers/USB/Core/AVR8/../AVR8/../AVR8/Endpoint_AVR8.h **** 			 *
 546:lufa-lib-svn/LUFA/Drivers/USB/Core/AVR8/../AVR8/../AVR8/Endpoint_AVR8.h **** 			 *  The currently selected endpoint remains stalled until either the \ref Endpoint_ClearStall() 
 547:lufa-lib-svn/LUFA/Drivers/USB/Core/AVR8/../AVR8/../AVR8/Endpoint_AVR8.h **** 			 *  is called, or the host issues a CLEAR FEATURE request to the device for the currently select
 548:lufa-lib-svn/LUFA/Drivers/USB/Core/AVR8/../AVR8/../AVR8/Endpoint_AVR8.h **** 			 *  endpoint.
 549:lufa-lib-svn/LUFA/Drivers/USB/Core/AVR8/../AVR8/../AVR8/Endpoint_AVR8.h **** 			 *
 550:lufa-lib-svn/LUFA/Drivers/USB/Core/AVR8/../AVR8/../AVR8/Endpoint_AVR8.h **** 			 *  \ingroup Group_EndpointPacketManagement_AVR8
 551:lufa-lib-svn/LUFA/Drivers/USB/Core/AVR8/../AVR8/../AVR8/Endpoint_AVR8.h **** 			 */
 552:lufa-lib-svn/LUFA/Drivers/USB/Core/AVR8/../AVR8/../AVR8/Endpoint_AVR8.h **** 			static inline void Endpoint_StallTransaction(void) ATTR_ALWAYS_INLINE;
 553:lufa-lib-svn/LUFA/Drivers/USB/Core/AVR8/../AVR8/../AVR8/Endpoint_AVR8.h **** 			static inline void Endpoint_StallTransaction(void)
 554:lufa-lib-svn/LUFA/Drivers/USB/Core/AVR8/../AVR8/../AVR8/Endpoint_AVR8.h **** 			{
 555:lufa-lib-svn/LUFA/Drivers/USB/Core/AVR8/../AVR8/../AVR8/Endpoint_AVR8.h **** 				UECONX |= (1 << STALLRQ);
 556:lufa-lib-svn/LUFA/Drivers/USB/Core/AVR8/../AVR8/../AVR8/Endpoint_AVR8.h **** 			}
 557:lufa-lib-svn/LUFA/Drivers/USB/Core/AVR8/../AVR8/../AVR8/Endpoint_AVR8.h **** 
 558:lufa-lib-svn/LUFA/Drivers/USB/Core/AVR8/../AVR8/../AVR8/Endpoint_AVR8.h **** 			/** Clears the STALL condition on the currently selected endpoint.
 559:lufa-lib-svn/LUFA/Drivers/USB/Core/AVR8/../AVR8/../AVR8/Endpoint_AVR8.h **** 			 *
 560:lufa-lib-svn/LUFA/Drivers/USB/Core/AVR8/../AVR8/../AVR8/Endpoint_AVR8.h **** 			 *  \ingroup Group_EndpointPacketManagement_AVR8
 561:lufa-lib-svn/LUFA/Drivers/USB/Core/AVR8/../AVR8/../AVR8/Endpoint_AVR8.h **** 			 */
 562:lufa-lib-svn/LUFA/Drivers/USB/Core/AVR8/../AVR8/../AVR8/Endpoint_AVR8.h **** 			static inline void Endpoint_ClearStall(void) ATTR_ALWAYS_INLINE;
 563:lufa-lib-svn/LUFA/Drivers/USB/Core/AVR8/../AVR8/../AVR8/Endpoint_AVR8.h **** 			static inline void Endpoint_ClearStall(void)
 564:lufa-lib-svn/LUFA/Drivers/USB/Core/AVR8/../AVR8/../AVR8/Endpoint_AVR8.h **** 			{
 565:lufa-lib-svn/LUFA/Drivers/USB/Core/AVR8/../AVR8/../AVR8/Endpoint_AVR8.h **** 				UECONX |= (1 << STALLRQC);
 566:lufa-lib-svn/LUFA/Drivers/USB/Core/AVR8/../AVR8/../AVR8/Endpoint_AVR8.h **** 			}
 567:lufa-lib-svn/LUFA/Drivers/USB/Core/AVR8/../AVR8/../AVR8/Endpoint_AVR8.h **** 
 568:lufa-lib-svn/LUFA/Drivers/USB/Core/AVR8/../AVR8/../AVR8/Endpoint_AVR8.h **** 			/** Determines if the currently selected endpoint is stalled, false otherwise.
 569:lufa-lib-svn/LUFA/Drivers/USB/Core/AVR8/../AVR8/../AVR8/Endpoint_AVR8.h **** 			 *
 570:lufa-lib-svn/LUFA/Drivers/USB/Core/AVR8/../AVR8/../AVR8/Endpoint_AVR8.h **** 			 *  \ingroup Group_EndpointPacketManagement_AVR8
 571:lufa-lib-svn/LUFA/Drivers/USB/Core/AVR8/../AVR8/../AVR8/Endpoint_AVR8.h **** 			 *
 572:lufa-lib-svn/LUFA/Drivers/USB/Core/AVR8/../AVR8/../AVR8/Endpoint_AVR8.h **** 			 *  \return Boolean \c true if the currently selected endpoint is stalled, \c false otherwise.
 573:lufa-lib-svn/LUFA/Drivers/USB/Core/AVR8/../AVR8/../AVR8/Endpoint_AVR8.h **** 			 */
 574:lufa-lib-svn/LUFA/Drivers/USB/Core/AVR8/../AVR8/../AVR8/Endpoint_AVR8.h **** 			static inline bool Endpoint_IsStalled(void) ATTR_WARN_UNUSED_RESULT ATTR_ALWAYS_INLINE;
 575:lufa-lib-svn/LUFA/Drivers/USB/Core/AVR8/../AVR8/../AVR8/Endpoint_AVR8.h **** 			static inline bool Endpoint_IsStalled(void)
 576:lufa-lib-svn/LUFA/Drivers/USB/Core/AVR8/../AVR8/../AVR8/Endpoint_AVR8.h **** 			{
 577:lufa-lib-svn/LUFA/Drivers/USB/Core/AVR8/../AVR8/../AVR8/Endpoint_AVR8.h **** 				return ((UECONX & (1 << STALLRQ)) ? true : false);
 578:lufa-lib-svn/LUFA/Drivers/USB/Core/AVR8/../AVR8/../AVR8/Endpoint_AVR8.h **** 			}
 579:lufa-lib-svn/LUFA/Drivers/USB/Core/AVR8/../AVR8/../AVR8/Endpoint_AVR8.h **** 
 580:lufa-lib-svn/LUFA/Drivers/USB/Core/AVR8/../AVR8/../AVR8/Endpoint_AVR8.h **** 			/** Resets the data toggle of the currently selected endpoint. */
 581:lufa-lib-svn/LUFA/Drivers/USB/Core/AVR8/../AVR8/../AVR8/Endpoint_AVR8.h **** 			static inline void Endpoint_ResetDataToggle(void) ATTR_ALWAYS_INLINE;
 582:lufa-lib-svn/LUFA/Drivers/USB/Core/AVR8/../AVR8/../AVR8/Endpoint_AVR8.h **** 			static inline void Endpoint_ResetDataToggle(void)
 583:lufa-lib-svn/LUFA/Drivers/USB/Core/AVR8/../AVR8/../AVR8/Endpoint_AVR8.h **** 			{
 584:lufa-lib-svn/LUFA/Drivers/USB/Core/AVR8/../AVR8/../AVR8/Endpoint_AVR8.h **** 				UECONX |= (1 << RSTDT);
 585:lufa-lib-svn/LUFA/Drivers/USB/Core/AVR8/../AVR8/../AVR8/Endpoint_AVR8.h **** 			}
 586:lufa-lib-svn/LUFA/Drivers/USB/Core/AVR8/../AVR8/../AVR8/Endpoint_AVR8.h **** 
 587:lufa-lib-svn/LUFA/Drivers/USB/Core/AVR8/../AVR8/../AVR8/Endpoint_AVR8.h **** 			/** Determines the currently selected endpoint's direction.
 588:lufa-lib-svn/LUFA/Drivers/USB/Core/AVR8/../AVR8/../AVR8/Endpoint_AVR8.h **** 			 *
 589:lufa-lib-svn/LUFA/Drivers/USB/Core/AVR8/../AVR8/../AVR8/Endpoint_AVR8.h **** 			 *  \return The currently selected endpoint's direction, as a \c ENDPOINT_DIR_* mask.
 590:lufa-lib-svn/LUFA/Drivers/USB/Core/AVR8/../AVR8/../AVR8/Endpoint_AVR8.h **** 			 */
 591:lufa-lib-svn/LUFA/Drivers/USB/Core/AVR8/../AVR8/../AVR8/Endpoint_AVR8.h **** 			static inline uint8_t Endpoint_GetEndpointDirection(void) ATTR_WARN_UNUSED_RESULT ATTR_ALWAYS_IN
 592:lufa-lib-svn/LUFA/Drivers/USB/Core/AVR8/../AVR8/../AVR8/Endpoint_AVR8.h **** 			static inline uint8_t Endpoint_GetEndpointDirection(void)
 593:lufa-lib-svn/LUFA/Drivers/USB/Core/AVR8/../AVR8/../AVR8/Endpoint_AVR8.h **** 			{
 594:lufa-lib-svn/LUFA/Drivers/USB/Core/AVR8/../AVR8/../AVR8/Endpoint_AVR8.h **** 				return (UECFG0X & (1 << EPDIR)) ? ENDPOINT_DIR_IN : ENDPOINT_DIR_OUT;
 595:lufa-lib-svn/LUFA/Drivers/USB/Core/AVR8/../AVR8/../AVR8/Endpoint_AVR8.h **** 			}
 596:lufa-lib-svn/LUFA/Drivers/USB/Core/AVR8/../AVR8/../AVR8/Endpoint_AVR8.h **** 
 597:lufa-lib-svn/LUFA/Drivers/USB/Core/AVR8/../AVR8/../AVR8/Endpoint_AVR8.h **** 			/** Sets the direction of the currently selected endpoint.
 598:lufa-lib-svn/LUFA/Drivers/USB/Core/AVR8/../AVR8/../AVR8/Endpoint_AVR8.h **** 			 *
 599:lufa-lib-svn/LUFA/Drivers/USB/Core/AVR8/../AVR8/../AVR8/Endpoint_AVR8.h **** 			 *  \param[in] DirectionMask  New endpoint direction, as a \c ENDPOINT_DIR_* mask.
 600:lufa-lib-svn/LUFA/Drivers/USB/Core/AVR8/../AVR8/../AVR8/Endpoint_AVR8.h **** 			 */
 601:lufa-lib-svn/LUFA/Drivers/USB/Core/AVR8/../AVR8/../AVR8/Endpoint_AVR8.h **** 			static inline void Endpoint_SetEndpointDirection(const uint8_t DirectionMask) ATTR_ALWAYS_INLINE
 602:lufa-lib-svn/LUFA/Drivers/USB/Core/AVR8/../AVR8/../AVR8/Endpoint_AVR8.h **** 			static inline void Endpoint_SetEndpointDirection(const uint8_t DirectionMask)
 603:lufa-lib-svn/LUFA/Drivers/USB/Core/AVR8/../AVR8/../AVR8/Endpoint_AVR8.h **** 			{
 604:lufa-lib-svn/LUFA/Drivers/USB/Core/AVR8/../AVR8/../AVR8/Endpoint_AVR8.h **** 				UECFG0X = ((UECFG0X & ~(1 << EPDIR)) | (DirectionMask ? (1 << EPDIR) : 0));
 605:lufa-lib-svn/LUFA/Drivers/USB/Core/AVR8/../AVR8/../AVR8/Endpoint_AVR8.h **** 			}
 606:lufa-lib-svn/LUFA/Drivers/USB/Core/AVR8/../AVR8/../AVR8/Endpoint_AVR8.h **** 
 607:lufa-lib-svn/LUFA/Drivers/USB/Core/AVR8/../AVR8/../AVR8/Endpoint_AVR8.h **** 			/** Reads one byte from the currently selected endpoint's bank, for OUT direction endpoints.
 608:lufa-lib-svn/LUFA/Drivers/USB/Core/AVR8/../AVR8/../AVR8/Endpoint_AVR8.h **** 			 *
 609:lufa-lib-svn/LUFA/Drivers/USB/Core/AVR8/../AVR8/../AVR8/Endpoint_AVR8.h **** 			 *  \ingroup Group_EndpointPrimitiveRW_AVR8
 610:lufa-lib-svn/LUFA/Drivers/USB/Core/AVR8/../AVR8/../AVR8/Endpoint_AVR8.h **** 			 *
 611:lufa-lib-svn/LUFA/Drivers/USB/Core/AVR8/../AVR8/../AVR8/Endpoint_AVR8.h **** 			 *  \return Next byte in the currently selected endpoint's FIFO buffer.
 612:lufa-lib-svn/LUFA/Drivers/USB/Core/AVR8/../AVR8/../AVR8/Endpoint_AVR8.h **** 			 */
 613:lufa-lib-svn/LUFA/Drivers/USB/Core/AVR8/../AVR8/../AVR8/Endpoint_AVR8.h **** 			static inline uint8_t Endpoint_Read_8(void) ATTR_WARN_UNUSED_RESULT ATTR_ALWAYS_INLINE;
 614:lufa-lib-svn/LUFA/Drivers/USB/Core/AVR8/../AVR8/../AVR8/Endpoint_AVR8.h **** 			static inline uint8_t Endpoint_Read_8(void)
 615:lufa-lib-svn/LUFA/Drivers/USB/Core/AVR8/../AVR8/../AVR8/Endpoint_AVR8.h **** 			{
 616:lufa-lib-svn/LUFA/Drivers/USB/Core/AVR8/../AVR8/../AVR8/Endpoint_AVR8.h **** 				return UEDATX;
 617:lufa-lib-svn/LUFA/Drivers/USB/Core/AVR8/../AVR8/../AVR8/Endpoint_AVR8.h **** 			}
 618:lufa-lib-svn/LUFA/Drivers/USB/Core/AVR8/../AVR8/../AVR8/Endpoint_AVR8.h **** 
 619:lufa-lib-svn/LUFA/Drivers/USB/Core/AVR8/../AVR8/../AVR8/Endpoint_AVR8.h **** 			/** Writes one byte to the currently selected endpoint's bank, for IN direction endpoints.
 620:lufa-lib-svn/LUFA/Drivers/USB/Core/AVR8/../AVR8/../AVR8/Endpoint_AVR8.h **** 			 *
 621:lufa-lib-svn/LUFA/Drivers/USB/Core/AVR8/../AVR8/../AVR8/Endpoint_AVR8.h **** 			 *  \ingroup Group_EndpointPrimitiveRW_AVR8
 622:lufa-lib-svn/LUFA/Drivers/USB/Core/AVR8/../AVR8/../AVR8/Endpoint_AVR8.h **** 			 *
 623:lufa-lib-svn/LUFA/Drivers/USB/Core/AVR8/../AVR8/../AVR8/Endpoint_AVR8.h **** 			 *  \param[in] Data  Data to write into the the currently selected endpoint's FIFO buffer.
 624:lufa-lib-svn/LUFA/Drivers/USB/Core/AVR8/../AVR8/../AVR8/Endpoint_AVR8.h **** 			 */
 625:lufa-lib-svn/LUFA/Drivers/USB/Core/AVR8/../AVR8/../AVR8/Endpoint_AVR8.h **** 			static inline void Endpoint_Write_8(const uint8_t Data) ATTR_ALWAYS_INLINE;
 626:lufa-lib-svn/LUFA/Drivers/USB/Core/AVR8/../AVR8/../AVR8/Endpoint_AVR8.h **** 			static inline void Endpoint_Write_8(const uint8_t Data)
 627:lufa-lib-svn/LUFA/Drivers/USB/Core/AVR8/../AVR8/../AVR8/Endpoint_AVR8.h **** 			{
 628:lufa-lib-svn/LUFA/Drivers/USB/Core/AVR8/../AVR8/../AVR8/Endpoint_AVR8.h **** 				UEDATX = Data;
 629:lufa-lib-svn/LUFA/Drivers/USB/Core/AVR8/../AVR8/../AVR8/Endpoint_AVR8.h **** 			}
 630:lufa-lib-svn/LUFA/Drivers/USB/Core/AVR8/../AVR8/../AVR8/Endpoint_AVR8.h **** 
 631:lufa-lib-svn/LUFA/Drivers/USB/Core/AVR8/../AVR8/../AVR8/Endpoint_AVR8.h **** 			/** Discards one byte from the currently selected endpoint's bank, for OUT direction endpoints.
 632:lufa-lib-svn/LUFA/Drivers/USB/Core/AVR8/../AVR8/../AVR8/Endpoint_AVR8.h **** 			 *
 633:lufa-lib-svn/LUFA/Drivers/USB/Core/AVR8/../AVR8/../AVR8/Endpoint_AVR8.h **** 			 *  \ingroup Group_EndpointPrimitiveRW_AVR8
 634:lufa-lib-svn/LUFA/Drivers/USB/Core/AVR8/../AVR8/../AVR8/Endpoint_AVR8.h **** 			 */
 635:lufa-lib-svn/LUFA/Drivers/USB/Core/AVR8/../AVR8/../AVR8/Endpoint_AVR8.h **** 			static inline void Endpoint_Discard_8(void) ATTR_ALWAYS_INLINE;
 636:lufa-lib-svn/LUFA/Drivers/USB/Core/AVR8/../AVR8/../AVR8/Endpoint_AVR8.h **** 			static inline void Endpoint_Discard_8(void)
 637:lufa-lib-svn/LUFA/Drivers/USB/Core/AVR8/../AVR8/../AVR8/Endpoint_AVR8.h **** 			{
 638:lufa-lib-svn/LUFA/Drivers/USB/Core/AVR8/../AVR8/../AVR8/Endpoint_AVR8.h **** 				uint8_t Dummy;
 639:lufa-lib-svn/LUFA/Drivers/USB/Core/AVR8/../AVR8/../AVR8/Endpoint_AVR8.h **** 
 640:lufa-lib-svn/LUFA/Drivers/USB/Core/AVR8/../AVR8/../AVR8/Endpoint_AVR8.h **** 				Dummy = UEDATX;
 124               		.loc 2 640 0
 125 0068 8091 F100 		lds r24,241
 126               	.LBE261:
 127               	.LBE260:
  64:lufa-lib-svn/LUFA/Drivers/USB/Core/AVR8/EndpointStream_AVR8.c **** 			  return ErrorCode;
  65:lufa-lib-svn/LUFA/Drivers/USB/Core/AVR8/EndpointStream_AVR8.c **** 		}
  66:lufa-lib-svn/LUFA/Drivers/USB/Core/AVR8/EndpointStream_AVR8.c **** 		else
  67:lufa-lib-svn/LUFA/Drivers/USB/Core/AVR8/EndpointStream_AVR8.c **** 		{
  68:lufa-lib-svn/LUFA/Drivers/USB/Core/AVR8/EndpointStream_AVR8.c **** 			Endpoint_Discard_8();
  69:lufa-lib-svn/LUFA/Drivers/USB/Core/AVR8/EndpointStream_AVR8.c **** 
  70:lufa-lib-svn/LUFA/Drivers/USB/Core/AVR8/EndpointStream_AVR8.c **** 			Length--;
 128               		.loc 1 70 0
 129 006c 2197      		sbiw r28,1
 130               	.LVL8:
  71:lufa-lib-svn/LUFA/Drivers/USB/Core/AVR8/EndpointStream_AVR8.c **** 			BytesInTransfer++;
 131               		.loc 1 71 0
 132 006e FFEF      		ldi r31,-1
 133 0070 EF1A      		sub r14,r31
 134 0072 FF0A      		sbc r15,r31
 135               	.LVL9:
 136               	.L13:
  51:lufa-lib-svn/LUFA/Drivers/USB/Core/AVR8/EndpointStream_AVR8.c **** 	while (Length)
 137               		.loc 1 51 0 discriminator 1
 138 0074 2097      		sbiw r28,0
 139 0076 01F4      		brne .L8
 140 0078 00C0      		rjmp .L2
 141               	.LVL10:
 142               	.L9:
  63:lufa-lib-svn/LUFA/Drivers/USB/Core/AVR8/EndpointStream_AVR8.c **** 			if ((ErrorCode = Endpoint_WaitUntilReady()))
 143               		.loc 1 63 0
 144 007a D82E      		mov r13,r24
 145               	.LVL11:
 146               	.L2:
  72:lufa-lib-svn/LUFA/Drivers/USB/Core/AVR8/EndpointStream_AVR8.c **** 		}
  73:lufa-lib-svn/LUFA/Drivers/USB/Core/AVR8/EndpointStream_AVR8.c **** 	}
  74:lufa-lib-svn/LUFA/Drivers/USB/Core/AVR8/EndpointStream_AVR8.c **** 	
  75:lufa-lib-svn/LUFA/Drivers/USB/Core/AVR8/EndpointStream_AVR8.c **** 	return ENDPOINT_RWSTREAM_NoError;
  76:lufa-lib-svn/LUFA/Drivers/USB/Core/AVR8/EndpointStream_AVR8.c **** }
 147               		.loc 1 76 0
 148 007c 8D2D      		mov r24,r13
 149               	/* epilogue start */
 150 007e DF91      		pop r29
 151 0080 CF91      		pop r28
 152               	.LVL12:
 153 0082 1F91      		pop r17
 154 0084 0F91      		pop r16
 155               	.LVL13:
 156 0086 FF90      		pop r15
 157 0088 EF90      		pop r14
 158 008a DF90      		pop r13
 159 008c 0895      		ret
 160               		.cfi_endproc
 161               	.LFE84:
 163               		.section	.text.Endpoint_Null_Stream,"ax",@progbits
 164               	.global	Endpoint_Null_Stream
 166               	Endpoint_Null_Stream:
 167               	.LFB85:
  77:lufa-lib-svn/LUFA/Drivers/USB/Core/AVR8/EndpointStream_AVR8.c **** 
  78:lufa-lib-svn/LUFA/Drivers/USB/Core/AVR8/EndpointStream_AVR8.c **** uint8_t Endpoint_Null_Stream(uint16_t Length,
  79:lufa-lib-svn/LUFA/Drivers/USB/Core/AVR8/EndpointStream_AVR8.c ****                              uint16_t* const BytesProcessed)
  80:lufa-lib-svn/LUFA/Drivers/USB/Core/AVR8/EndpointStream_AVR8.c **** {
 168               		.loc 1 80 0
 169               		.cfi_startproc
 170               	.LVL14:
 171 0000 DF92      		push r13
 172               	.LCFI7:
 173               		.cfi_def_cfa_offset 3
 174               		.cfi_offset 13, -2
 175 0002 EF92      		push r14
 176               	.LCFI8:
 177               		.cfi_def_cfa_offset 4
 178               		.cfi_offset 14, -3
 179 0004 FF92      		push r15
 180               	.LCFI9:
 181               		.cfi_def_cfa_offset 5
 182               		.cfi_offset 15, -4
 183 0006 0F93      		push r16
 184               	.LCFI10:
 185               		.cfi_def_cfa_offset 6
 186               		.cfi_offset 16, -5
 187 0008 1F93      		push r17
 188               	.LCFI11:
 189               		.cfi_def_cfa_offset 7
 190               		.cfi_offset 17, -6
 191 000a CF93      		push r28
 192               	.LCFI12:
 193               		.cfi_def_cfa_offset 8
 194               		.cfi_offset 28, -7
 195 000c DF93      		push r29
 196               	.LCFI13:
 197               		.cfi_def_cfa_offset 9
 198               		.cfi_offset 29, -8
 199               	/* prologue: function */
 200               	/* frame size = 0 */
 201               	/* stack size = 7 */
 202               	.L__stack_usage = 7
 203 000e EC01      		movw r28,r24
 204 0010 8B01      		movw r16,r22
 205               	.LVL15:
  81:lufa-lib-svn/LUFA/Drivers/USB/Core/AVR8/EndpointStream_AVR8.c **** 	uint8_t  ErrorCode;
  82:lufa-lib-svn/LUFA/Drivers/USB/Core/AVR8/EndpointStream_AVR8.c **** 	uint16_t BytesInTransfer = 0;
  83:lufa-lib-svn/LUFA/Drivers/USB/Core/AVR8/EndpointStream_AVR8.c **** 	
  84:lufa-lib-svn/LUFA/Drivers/USB/Core/AVR8/EndpointStream_AVR8.c **** 	if ((ErrorCode = Endpoint_WaitUntilReady()))
 206               		.loc 1 84 0
 207 0012 0E94 0000 		call Endpoint_WaitUntilReady
 208               	.LVL16:
 209 0016 D82E      		mov r13,r24
 210               	.LVL17:
 211 0018 8111      		cpse r24,__zero_reg__
 212 001a 00C0      		rjmp .L15
  85:lufa-lib-svn/LUFA/Drivers/USB/Core/AVR8/EndpointStream_AVR8.c **** 	  return ErrorCode;
  86:lufa-lib-svn/LUFA/Drivers/USB/Core/AVR8/EndpointStream_AVR8.c **** 	  
  87:lufa-lib-svn/LUFA/Drivers/USB/Core/AVR8/EndpointStream_AVR8.c **** 	if (BytesProcessed != NULL)
 213               		.loc 1 87 0
 214 001c 0115      		cp r16,__zero_reg__
 215 001e 1105      		cpc r17,__zero_reg__
 216 0020 01F0      		breq .L16
  88:lufa-lib-svn/LUFA/Drivers/USB/Core/AVR8/EndpointStream_AVR8.c **** 	  Length -= *BytesProcessed;
 217               		.loc 1 88 0
 218 0022 F801      		movw r30,r16
 219 0024 2081      		ld r18,Z
 220 0026 3181      		ldd r19,Z+1
 221 0028 C21B      		sub r28,r18
 222 002a D30B      		sbc r29,r19
 223               	.LVL18:
 224               	.L16:
  80:lufa-lib-svn/LUFA/Drivers/USB/Core/AVR8/EndpointStream_AVR8.c **** {
 225               		.loc 1 80 0 discriminator 1
 226 002c E12C      		mov r14,__zero_reg__
 227 002e F12C      		mov r15,__zero_reg__
 228 0030 00C0      		rjmp .L26
 229               	.LVL19:
 230               	.L21:
 231               	.LBB262:
 232               	.LBB263:
 424:lufa-lib-svn/LUFA/Drivers/USB/Core/AVR8/../AVR8/../AVR8/Endpoint_AVR8.h **** 				return ((UEINTX & (1 << RWAL)) ? true : false);
 233               		.loc 2 424 0
 234 0032 8091 E800 		lds r24,232
 235               	.LBE263:
 236               	.LBE262:
  89:lufa-lib-svn/LUFA/Drivers/USB/Core/AVR8/EndpointStream_AVR8.c **** 
  90:lufa-lib-svn/LUFA/Drivers/USB/Core/AVR8/EndpointStream_AVR8.c **** 	while (Length)
  91:lufa-lib-svn/LUFA/Drivers/USB/Core/AVR8/EndpointStream_AVR8.c **** 	{
  92:lufa-lib-svn/LUFA/Drivers/USB/Core/AVR8/EndpointStream_AVR8.c **** 		if (!(Endpoint_IsReadWriteAllowed()))
 237               		.loc 1 92 0
 238 0036 85FD      		sbrc r24,5
 239 0038 00C0      		rjmp .L18
 240               	.LBB264:
 241               	.LBB265:
 520:lufa-lib-svn/LUFA/Drivers/USB/Core/AVR8/../AVR8/../AVR8/Endpoint_AVR8.h **** 					UEINTX &= ~((1 << TXINI) | (1 << FIFOCON));
 242               		.loc 2 520 0
 243 003a 8091 E800 		lds r24,232
 244 003e 8E77      		andi r24,lo8(126)
 245 0040 8093 E800 		sts 232,r24
 246               	.LBE265:
 247               	.LBE264:
  93:lufa-lib-svn/LUFA/Drivers/USB/Core/AVR8/EndpointStream_AVR8.c **** 		{
  94:lufa-lib-svn/LUFA/Drivers/USB/Core/AVR8/EndpointStream_AVR8.c **** 			Endpoint_ClearIN();
  95:lufa-lib-svn/LUFA/Drivers/USB/Core/AVR8/EndpointStream_AVR8.c **** 
  96:lufa-lib-svn/LUFA/Drivers/USB/Core/AVR8/EndpointStream_AVR8.c **** 			if (BytesProcessed != NULL)
 248               		.loc 1 96 0
 249 0044 0115      		cp r16,__zero_reg__
 250 0046 1105      		cpc r17,__zero_reg__
 251 0048 01F0      		breq .L19
  97:lufa-lib-svn/LUFA/Drivers/USB/Core/AVR8/EndpointStream_AVR8.c **** 			{
  98:lufa-lib-svn/LUFA/Drivers/USB/Core/AVR8/EndpointStream_AVR8.c **** 				*BytesProcessed += BytesInTransfer;
 252               		.loc 1 98 0
 253 004a F801      		movw r30,r16
 254 004c 8081      		ld r24,Z
 255 004e 9181      		ldd r25,Z+1
 256 0050 8E0D      		add r24,r14
 257 0052 9F1D      		adc r25,r15
 258 0054 9183      		std Z+1,r25
 259 0056 8083      		st Z,r24
  99:lufa-lib-svn/LUFA/Drivers/USB/Core/AVR8/EndpointStream_AVR8.c **** 				return ENDPOINT_RWSTREAM_IncompleteTransfer;
 260               		.loc 1 99 0
 261 0058 95E0      		ldi r25,lo8(5)
 262 005a D92E      		mov r13,r25
 263 005c 00C0      		rjmp .L15
 264               	.L19:
 100:lufa-lib-svn/LUFA/Drivers/USB/Core/AVR8/EndpointStream_AVR8.c **** 			}
 101:lufa-lib-svn/LUFA/Drivers/USB/Core/AVR8/EndpointStream_AVR8.c **** 
 102:lufa-lib-svn/LUFA/Drivers/USB/Core/AVR8/EndpointStream_AVR8.c **** 			if ((ErrorCode = Endpoint_WaitUntilReady()))
 265               		.loc 1 102 0
 266 005e 0E94 0000 		call Endpoint_WaitUntilReady
 267               	.LVL20:
 268 0062 8823      		tst r24
 269 0064 01F0      		breq .L26
 270 0066 00C0      		rjmp .L22
 271               	.LVL21:
 272               	.L18:
 273               	.LBB266:
 274               	.LBB267:
 628:lufa-lib-svn/LUFA/Drivers/USB/Core/AVR8/../AVR8/../AVR8/Endpoint_AVR8.h **** 				UEDATX = Data;
 275               		.loc 2 628 0
 276 0068 1092 F100 		sts 241,__zero_reg__
 277               	.LBE267:
 278               	.LBE266:
 103:lufa-lib-svn/LUFA/Drivers/USB/Core/AVR8/EndpointStream_AVR8.c **** 			  return ErrorCode;
 104:lufa-lib-svn/LUFA/Drivers/USB/Core/AVR8/EndpointStream_AVR8.c **** 		}
 105:lufa-lib-svn/LUFA/Drivers/USB/Core/AVR8/EndpointStream_AVR8.c **** 		else
 106:lufa-lib-svn/LUFA/Drivers/USB/Core/AVR8/EndpointStream_AVR8.c **** 		{
 107:lufa-lib-svn/LUFA/Drivers/USB/Core/AVR8/EndpointStream_AVR8.c **** 			Endpoint_Write_8(0);
 108:lufa-lib-svn/LUFA/Drivers/USB/Core/AVR8/EndpointStream_AVR8.c **** 
 109:lufa-lib-svn/LUFA/Drivers/USB/Core/AVR8/EndpointStream_AVR8.c **** 			Length--;
 279               		.loc 1 109 0
 280 006c 2197      		sbiw r28,1
 281               	.LVL22:
 110:lufa-lib-svn/LUFA/Drivers/USB/Core/AVR8/EndpointStream_AVR8.c **** 			BytesInTransfer++;
 282               		.loc 1 110 0
 283 006e FFEF      		ldi r31,-1
 284 0070 EF1A      		sub r14,r31
 285 0072 FF0A      		sbc r15,r31
 286               	.LVL23:
 287               	.L26:
  90:lufa-lib-svn/LUFA/Drivers/USB/Core/AVR8/EndpointStream_AVR8.c **** 	while (Length)
 288               		.loc 1 90 0 discriminator 1
 289 0074 2097      		sbiw r28,0
 290 0076 01F4      		brne .L21
 291 0078 00C0      		rjmp .L15
 292               	.LVL24:
 293               	.L22:
 102:lufa-lib-svn/LUFA/Drivers/USB/Core/AVR8/EndpointStream_AVR8.c **** 			if ((ErrorCode = Endpoint_WaitUntilReady()))
 294               		.loc 1 102 0
 295 007a D82E      		mov r13,r24
 296               	.LVL25:
 297               	.L15:
 111:lufa-lib-svn/LUFA/Drivers/USB/Core/AVR8/EndpointStream_AVR8.c **** 		}
 112:lufa-lib-svn/LUFA/Drivers/USB/Core/AVR8/EndpointStream_AVR8.c **** 	}
 113:lufa-lib-svn/LUFA/Drivers/USB/Core/AVR8/EndpointStream_AVR8.c **** 	
 114:lufa-lib-svn/LUFA/Drivers/USB/Core/AVR8/EndpointStream_AVR8.c **** 	return ENDPOINT_RWSTREAM_NoError;
 115:lufa-lib-svn/LUFA/Drivers/USB/Core/AVR8/EndpointStream_AVR8.c **** }
 298               		.loc 1 115 0
 299 007c 8D2D      		mov r24,r13
 300               	/* epilogue start */
 301 007e DF91      		pop r29
 302 0080 CF91      		pop r28
 303               	.LVL26:
 304 0082 1F91      		pop r17
 305 0084 0F91      		pop r16
 306               	.LVL27:
 307 0086 FF90      		pop r15
 308 0088 EF90      		pop r14
 309 008a DF90      		pop r13
 310 008c 0895      		ret
 311               		.cfi_endproc
 312               	.LFE85:
 314               		.section	.text.Endpoint_Write_Stream_LE,"ax",@progbits
 315               	.global	Endpoint_Write_Stream_LE
 317               	Endpoint_Write_Stream_LE:
 318               	.LFB86:
 319               		.file 3 "lufa-lib-svn/LUFA/Drivers/USB/Core/AVR8/Template/Template_Endpoint_RW.c"
   1:lufa-lib-svn/LUFA/Drivers/USB/Core/AVR8/Template/Template_Endpoint_RW.c **** /*
   2:lufa-lib-svn/LUFA/Drivers/USB/Core/AVR8/Template/Template_Endpoint_RW.c ****              LUFA Library
   3:lufa-lib-svn/LUFA/Drivers/USB/Core/AVR8/Template/Template_Endpoint_RW.c ****      Copyright (C) Dean Camera, 2011.
   4:lufa-lib-svn/LUFA/Drivers/USB/Core/AVR8/Template/Template_Endpoint_RW.c **** 
   5:lufa-lib-svn/LUFA/Drivers/USB/Core/AVR8/Template/Template_Endpoint_RW.c ****   dean [at] fourwalledcubicle [dot] com
   6:lufa-lib-svn/LUFA/Drivers/USB/Core/AVR8/Template/Template_Endpoint_RW.c ****            www.lufa-lib.org
   7:lufa-lib-svn/LUFA/Drivers/USB/Core/AVR8/Template/Template_Endpoint_RW.c **** */
   8:lufa-lib-svn/LUFA/Drivers/USB/Core/AVR8/Template/Template_Endpoint_RW.c **** 
   9:lufa-lib-svn/LUFA/Drivers/USB/Core/AVR8/Template/Template_Endpoint_RW.c **** /*
  10:lufa-lib-svn/LUFA/Drivers/USB/Core/AVR8/Template/Template_Endpoint_RW.c ****   Copyright 2011  Dean Camera (dean [at] fourwalledcubicle [dot] com)
  11:lufa-lib-svn/LUFA/Drivers/USB/Core/AVR8/Template/Template_Endpoint_RW.c **** 
  12:lufa-lib-svn/LUFA/Drivers/USB/Core/AVR8/Template/Template_Endpoint_RW.c ****   Permission to use, copy, modify, distribute, and sell this
  13:lufa-lib-svn/LUFA/Drivers/USB/Core/AVR8/Template/Template_Endpoint_RW.c ****   software and its documentation for any purpose is hereby granted
  14:lufa-lib-svn/LUFA/Drivers/USB/Core/AVR8/Template/Template_Endpoint_RW.c ****   without fee, provided that the above copyright notice appear in
  15:lufa-lib-svn/LUFA/Drivers/USB/Core/AVR8/Template/Template_Endpoint_RW.c ****   all copies and that both that the copyright notice and this
  16:lufa-lib-svn/LUFA/Drivers/USB/Core/AVR8/Template/Template_Endpoint_RW.c ****   permission notice and warranty disclaimer appear in supporting
  17:lufa-lib-svn/LUFA/Drivers/USB/Core/AVR8/Template/Template_Endpoint_RW.c ****   documentation, and that the name of the author not be used in
  18:lufa-lib-svn/LUFA/Drivers/USB/Core/AVR8/Template/Template_Endpoint_RW.c ****   advertising or publicity pertaining to distribution of the
  19:lufa-lib-svn/LUFA/Drivers/USB/Core/AVR8/Template/Template_Endpoint_RW.c ****   software without specific, written prior permission.
  20:lufa-lib-svn/LUFA/Drivers/USB/Core/AVR8/Template/Template_Endpoint_RW.c **** 
  21:lufa-lib-svn/LUFA/Drivers/USB/Core/AVR8/Template/Template_Endpoint_RW.c ****   The author disclaim all warranties with regard to this
  22:lufa-lib-svn/LUFA/Drivers/USB/Core/AVR8/Template/Template_Endpoint_RW.c ****   software, including all implied warranties of merchantability
  23:lufa-lib-svn/LUFA/Drivers/USB/Core/AVR8/Template/Template_Endpoint_RW.c ****   and fitness.  In no event shall the author be liable for any
  24:lufa-lib-svn/LUFA/Drivers/USB/Core/AVR8/Template/Template_Endpoint_RW.c ****   special, indirect or consequential damages or any damages
  25:lufa-lib-svn/LUFA/Drivers/USB/Core/AVR8/Template/Template_Endpoint_RW.c ****   whatsoever resulting from loss of use, data or profits, whether
  26:lufa-lib-svn/LUFA/Drivers/USB/Core/AVR8/Template/Template_Endpoint_RW.c ****   in an action of contract, negligence or other tortious action,
  27:lufa-lib-svn/LUFA/Drivers/USB/Core/AVR8/Template/Template_Endpoint_RW.c ****   arising out of or in connection with the use or performance of
  28:lufa-lib-svn/LUFA/Drivers/USB/Core/AVR8/Template/Template_Endpoint_RW.c ****   this software.
  29:lufa-lib-svn/LUFA/Drivers/USB/Core/AVR8/Template/Template_Endpoint_RW.c **** */
  30:lufa-lib-svn/LUFA/Drivers/USB/Core/AVR8/Template/Template_Endpoint_RW.c **** 
  31:lufa-lib-svn/LUFA/Drivers/USB/Core/AVR8/Template/Template_Endpoint_RW.c **** #if defined(TEMPLATE_FUNC_NAME)
  32:lufa-lib-svn/LUFA/Drivers/USB/Core/AVR8/Template/Template_Endpoint_RW.c **** 
  33:lufa-lib-svn/LUFA/Drivers/USB/Core/AVR8/Template/Template_Endpoint_RW.c **** uint8_t TEMPLATE_FUNC_NAME (TEMPLATE_BUFFER_TYPE const Buffer,
  34:lufa-lib-svn/LUFA/Drivers/USB/Core/AVR8/Template/Template_Endpoint_RW.c ****                             uint16_t Length,
  35:lufa-lib-svn/LUFA/Drivers/USB/Core/AVR8/Template/Template_Endpoint_RW.c ****                             uint16_t* const BytesProcessed)
  36:lufa-lib-svn/LUFA/Drivers/USB/Core/AVR8/Template/Template_Endpoint_RW.c **** {
 320               		.loc 3 36 0
 321               		.cfi_startproc
 322               	.LVL28:
 323 0000 BF92      		push r11
 324               	.LCFI14:
 325               		.cfi_def_cfa_offset 3
 326               		.cfi_offset 11, -2
 327 0002 CF92      		push r12
 328               	.LCFI15:
 329               		.cfi_def_cfa_offset 4
 330               		.cfi_offset 12, -3
 331 0004 DF92      		push r13
 332               	.LCFI16:
 333               		.cfi_def_cfa_offset 5
 334               		.cfi_offset 13, -4
 335 0006 EF92      		push r14
 336               	.LCFI17:
 337               		.cfi_def_cfa_offset 6
 338               		.cfi_offset 14, -5
 339 0008 FF92      		push r15
 340               	.LCFI18:
 341               		.cfi_def_cfa_offset 7
 342               		.cfi_offset 15, -6
 343 000a 0F93      		push r16
 344               	.LCFI19:
 345               		.cfi_def_cfa_offset 8
 346               		.cfi_offset 16, -7
 347 000c 1F93      		push r17
 348               	.LCFI20:
 349               		.cfi_def_cfa_offset 9
 350               		.cfi_offset 17, -8
 351 000e CF93      		push r28
 352               	.LCFI21:
 353               		.cfi_def_cfa_offset 10
 354               		.cfi_offset 28, -9
 355 0010 DF93      		push r29
 356               	.LCFI22:
 357               		.cfi_def_cfa_offset 11
 358               		.cfi_offset 29, -10
 359               	/* prologue: function */
 360               	/* frame size = 0 */
 361               	/* stack size = 9 */
 362               	.L__stack_usage = 9
 363 0012 7C01      		movw r14,r24
 364 0014 EB01      		movw r28,r22
 365 0016 8A01      		movw r16,r20
 366               	.LVL29:
  37:lufa-lib-svn/LUFA/Drivers/USB/Core/AVR8/Template/Template_Endpoint_RW.c **** 	uint8_t* DataStream      = ((uint8_t*)Buffer + TEMPLATE_BUFFER_OFFSET(Length));
  38:lufa-lib-svn/LUFA/Drivers/USB/Core/AVR8/Template/Template_Endpoint_RW.c **** 	uint16_t BytesInTransfer = 0;
  39:lufa-lib-svn/LUFA/Drivers/USB/Core/AVR8/Template/Template_Endpoint_RW.c **** 	uint8_t  ErrorCode;
  40:lufa-lib-svn/LUFA/Drivers/USB/Core/AVR8/Template/Template_Endpoint_RW.c **** 
  41:lufa-lib-svn/LUFA/Drivers/USB/Core/AVR8/Template/Template_Endpoint_RW.c **** 	if ((ErrorCode = Endpoint_WaitUntilReady()))
 367               		.loc 3 41 0
 368 0018 0E94 0000 		call Endpoint_WaitUntilReady
 369               	.LVL30:
 370 001c B82E      		mov r11,r24
 371               	.LVL31:
 372 001e 8111      		cpse r24,__zero_reg__
 373 0020 00C0      		rjmp .L28
  42:lufa-lib-svn/LUFA/Drivers/USB/Core/AVR8/Template/Template_Endpoint_RW.c **** 	  return ErrorCode;
  43:lufa-lib-svn/LUFA/Drivers/USB/Core/AVR8/Template/Template_Endpoint_RW.c **** 
  44:lufa-lib-svn/LUFA/Drivers/USB/Core/AVR8/Template/Template_Endpoint_RW.c **** 	if (BytesProcessed != NULL)
 374               		.loc 3 44 0
 375 0022 0115      		cp r16,__zero_reg__
 376 0024 1105      		cpc r17,__zero_reg__
 377 0026 01F0      		breq .L29
  45:lufa-lib-svn/LUFA/Drivers/USB/Core/AVR8/Template/Template_Endpoint_RW.c **** 	{
  46:lufa-lib-svn/LUFA/Drivers/USB/Core/AVR8/Template/Template_Endpoint_RW.c **** 		Length -= *BytesProcessed;
 378               		.loc 3 46 0
 379 0028 F801      		movw r30,r16
 380 002a 2081      		ld r18,Z
 381 002c 3181      		ldd r19,Z+1
 382 002e C21B      		sub r28,r18
 383 0030 D30B      		sbc r29,r19
 384               	.LVL32:
  47:lufa-lib-svn/LUFA/Drivers/USB/Core/AVR8/Template/Template_Endpoint_RW.c **** 		TEMPLATE_BUFFER_MOVE(DataStream, *BytesProcessed);
 385               		.loc 3 47 0
 386 0032 E20E      		add r14,r18
 387 0034 F31E      		adc r15,r19
 388               	.LVL33:
 389               	.L29:
  37:lufa-lib-svn/LUFA/Drivers/USB/Core/AVR8/Template/Template_Endpoint_RW.c **** 	uint8_t* DataStream      = ((uint8_t*)Buffer + TEMPLATE_BUFFER_OFFSET(Length));
 390               		.loc 3 37 0 discriminator 1
 391 0036 C12C      		mov r12,__zero_reg__
 392 0038 D12C      		mov r13,__zero_reg__
 393 003a 00C0      		rjmp .L37
 394               	.LVL34:
 395               	.L34:
 396               	.LBB268:
 397               	.LBB269:
 424:lufa-lib-svn/LUFA/Drivers/USB/Core/AVR8/../AVR8/../AVR8/Endpoint_AVR8.h **** 				return ((UEINTX & (1 << RWAL)) ? true : false);
 398               		.loc 2 424 0
 399 003c 8091 E800 		lds r24,232
 400               	.LBE269:
 401               	.LBE268:
  48:lufa-lib-svn/LUFA/Drivers/USB/Core/AVR8/Template/Template_Endpoint_RW.c **** 	}
  49:lufa-lib-svn/LUFA/Drivers/USB/Core/AVR8/Template/Template_Endpoint_RW.c **** 
  50:lufa-lib-svn/LUFA/Drivers/USB/Core/AVR8/Template/Template_Endpoint_RW.c **** 	while (Length)
  51:lufa-lib-svn/LUFA/Drivers/USB/Core/AVR8/Template/Template_Endpoint_RW.c **** 	{
  52:lufa-lib-svn/LUFA/Drivers/USB/Core/AVR8/Template/Template_Endpoint_RW.c **** 		if (!(Endpoint_IsReadWriteAllowed()))
 402               		.loc 3 52 0
 403 0040 85FD      		sbrc r24,5
 404 0042 00C0      		rjmp .L31
 405               	.LBB270:
 406               	.LBB271:
 520:lufa-lib-svn/LUFA/Drivers/USB/Core/AVR8/../AVR8/../AVR8/Endpoint_AVR8.h **** 					UEINTX &= ~((1 << TXINI) | (1 << FIFOCON));
 407               		.loc 2 520 0
 408 0044 8091 E800 		lds r24,232
 409 0048 8E77      		andi r24,lo8(126)
 410 004a 8093 E800 		sts 232,r24
 411               	.LBE271:
 412               	.LBE270:
  53:lufa-lib-svn/LUFA/Drivers/USB/Core/AVR8/Template/Template_Endpoint_RW.c **** 		{
  54:lufa-lib-svn/LUFA/Drivers/USB/Core/AVR8/Template/Template_Endpoint_RW.c **** 			TEMPLATE_CLEAR_ENDPOINT();
  55:lufa-lib-svn/LUFA/Drivers/USB/Core/AVR8/Template/Template_Endpoint_RW.c **** 
  56:lufa-lib-svn/LUFA/Drivers/USB/Core/AVR8/Template/Template_Endpoint_RW.c **** 			#if !defined(INTERRUPT_CONTROL_ENDPOINT)
  57:lufa-lib-svn/LUFA/Drivers/USB/Core/AVR8/Template/Template_Endpoint_RW.c **** 			USB_USBTask();
  58:lufa-lib-svn/LUFA/Drivers/USB/Core/AVR8/Template/Template_Endpoint_RW.c **** 			#endif
  59:lufa-lib-svn/LUFA/Drivers/USB/Core/AVR8/Template/Template_Endpoint_RW.c **** 
  60:lufa-lib-svn/LUFA/Drivers/USB/Core/AVR8/Template/Template_Endpoint_RW.c **** 			if (BytesProcessed != NULL)
 413               		.loc 3 60 0
 414 004e 0115      		cp r16,__zero_reg__
 415 0050 1105      		cpc r17,__zero_reg__
 416 0052 01F0      		breq .L32
  61:lufa-lib-svn/LUFA/Drivers/USB/Core/AVR8/Template/Template_Endpoint_RW.c **** 			{
  62:lufa-lib-svn/LUFA/Drivers/USB/Core/AVR8/Template/Template_Endpoint_RW.c **** 				*BytesProcessed += BytesInTransfer;
 417               		.loc 3 62 0
 418 0054 F801      		movw r30,r16
 419 0056 8081      		ld r24,Z
 420 0058 9181      		ldd r25,Z+1
 421 005a 8C0D      		add r24,r12
 422 005c 9D1D      		adc r25,r13
 423 005e 9183      		std Z+1,r25
 424 0060 8083      		st Z,r24
  63:lufa-lib-svn/LUFA/Drivers/USB/Core/AVR8/Template/Template_Endpoint_RW.c **** 				return ENDPOINT_RWSTREAM_IncompleteTransfer;
 425               		.loc 3 63 0
 426 0062 25E0      		ldi r18,lo8(5)
 427 0064 B22E      		mov r11,r18
 428 0066 00C0      		rjmp .L28
 429               	.L32:
  64:lufa-lib-svn/LUFA/Drivers/USB/Core/AVR8/Template/Template_Endpoint_RW.c **** 			}
  65:lufa-lib-svn/LUFA/Drivers/USB/Core/AVR8/Template/Template_Endpoint_RW.c **** 
  66:lufa-lib-svn/LUFA/Drivers/USB/Core/AVR8/Template/Template_Endpoint_RW.c **** 			if ((ErrorCode = Endpoint_WaitUntilReady()))
 430               		.loc 3 66 0
 431 0068 0E94 0000 		call Endpoint_WaitUntilReady
 432               	.LVL35:
 433 006c 8823      		tst r24
 434 006e 01F0      		breq .L37
 435 0070 00C0      		rjmp .L36
 436               	.LVL36:
 437               	.L31:
  67:lufa-lib-svn/LUFA/Drivers/USB/Core/AVR8/Template/Template_Endpoint_RW.c **** 			  return ErrorCode;
  68:lufa-lib-svn/LUFA/Drivers/USB/Core/AVR8/Template/Template_Endpoint_RW.c **** 		}
  69:lufa-lib-svn/LUFA/Drivers/USB/Core/AVR8/Template/Template_Endpoint_RW.c **** 		else
  70:lufa-lib-svn/LUFA/Drivers/USB/Core/AVR8/Template/Template_Endpoint_RW.c **** 		{
  71:lufa-lib-svn/LUFA/Drivers/USB/Core/AVR8/Template/Template_Endpoint_RW.c **** 			TEMPLATE_TRANSFER_BYTE(DataStream);
 438               		.loc 3 71 0
 439 0072 F701      		movw r30,r14
 440 0074 8191      		ld r24,Z+
 441 0076 7F01      		movw r14,r30
 442               	.LVL37:
 443               	.LBB272:
 444               	.LBB273:
 628:lufa-lib-svn/LUFA/Drivers/USB/Core/AVR8/../AVR8/../AVR8/Endpoint_AVR8.h **** 				UEDATX = Data;
 445               		.loc 2 628 0
 446 0078 8093 F100 		sts 241,r24
 447               	.LVL38:
 448               	.LBE273:
 449               	.LBE272:
  72:lufa-lib-svn/LUFA/Drivers/USB/Core/AVR8/Template/Template_Endpoint_RW.c **** 			TEMPLATE_BUFFER_MOVE(DataStream, 1);
  73:lufa-lib-svn/LUFA/Drivers/USB/Core/AVR8/Template/Template_Endpoint_RW.c **** 			Length--;
 450               		.loc 3 73 0
 451 007c 2197      		sbiw r28,1
 452               	.LVL39:
  74:lufa-lib-svn/LUFA/Drivers/USB/Core/AVR8/Template/Template_Endpoint_RW.c **** 			BytesInTransfer++;
 453               		.loc 3 74 0
 454 007e FFEF      		ldi r31,-1
 455 0080 CF1A      		sub r12,r31
 456 0082 DF0A      		sbc r13,r31
 457               	.LVL40:
 458               	.L37:
  50:lufa-lib-svn/LUFA/Drivers/USB/Core/AVR8/Template/Template_Endpoint_RW.c **** 	while (Length)
 459               		.loc 3 50 0 discriminator 1
 460 0084 2097      		sbiw r28,0
 461 0086 01F4      		brne .L34
 462 0088 00C0      		rjmp .L28
 463               	.LVL41:
 464               	.L36:
  66:lufa-lib-svn/LUFA/Drivers/USB/Core/AVR8/Template/Template_Endpoint_RW.c **** 			if ((ErrorCode = Endpoint_WaitUntilReady()))
 465               		.loc 3 66 0
 466 008a B82E      		mov r11,r24
 467               	.LVL42:
 468               	.L28:
  75:lufa-lib-svn/LUFA/Drivers/USB/Core/AVR8/Template/Template_Endpoint_RW.c **** 		}
  76:lufa-lib-svn/LUFA/Drivers/USB/Core/AVR8/Template/Template_Endpoint_RW.c **** 	}
  77:lufa-lib-svn/LUFA/Drivers/USB/Core/AVR8/Template/Template_Endpoint_RW.c **** 
  78:lufa-lib-svn/LUFA/Drivers/USB/Core/AVR8/Template/Template_Endpoint_RW.c **** 	return ENDPOINT_RWSTREAM_NoError;
  79:lufa-lib-svn/LUFA/Drivers/USB/Core/AVR8/Template/Template_Endpoint_RW.c **** }
 469               		.loc 3 79 0
 470 008c 8B2D      		mov r24,r11
 471               	/* epilogue start */
 472 008e DF91      		pop r29
 473 0090 CF91      		pop r28
 474               	.LVL43:
 475 0092 1F91      		pop r17
 476 0094 0F91      		pop r16
 477               	.LVL44:
 478 0096 FF90      		pop r15
 479 0098 EF90      		pop r14
 480               	.LVL45:
 481 009a DF90      		pop r13
 482 009c CF90      		pop r12
 483 009e BF90      		pop r11
 484 00a0 0895      		ret
 485               		.cfi_endproc
 486               	.LFE86:
 488               		.section	.text.Endpoint_Write_Stream_BE,"ax",@progbits
 489               	.global	Endpoint_Write_Stream_BE
 491               	Endpoint_Write_Stream_BE:
 492               	.LFB87:
  36:lufa-lib-svn/LUFA/Drivers/USB/Core/AVR8/Template/Template_Endpoint_RW.c **** {
 493               		.loc 3 36 0
 494               		.cfi_startproc
 495               	.LVL46:
 496 0000 BF92      		push r11
 497               	.LCFI23:
 498               		.cfi_def_cfa_offset 3
 499               		.cfi_offset 11, -2
 500 0002 CF92      		push r12
 501               	.LCFI24:
 502               		.cfi_def_cfa_offset 4
 503               		.cfi_offset 12, -3
 504 0004 DF92      		push r13
 505               	.LCFI25:
 506               		.cfi_def_cfa_offset 5
 507               		.cfi_offset 13, -4
 508 0006 EF92      		push r14
 509               	.LCFI26:
 510               		.cfi_def_cfa_offset 6
 511               		.cfi_offset 14, -5
 512 0008 FF92      		push r15
 513               	.LCFI27:
 514               		.cfi_def_cfa_offset 7
 515               		.cfi_offset 15, -6
 516 000a 0F93      		push r16
 517               	.LCFI28:
 518               		.cfi_def_cfa_offset 8
 519               		.cfi_offset 16, -7
 520 000c 1F93      		push r17
 521               	.LCFI29:
 522               		.cfi_def_cfa_offset 9
 523               		.cfi_offset 17, -8
 524 000e CF93      		push r28
 525               	.LCFI30:
 526               		.cfi_def_cfa_offset 10
 527               		.cfi_offset 28, -9
 528 0010 DF93      		push r29
 529               	.LCFI31:
 530               		.cfi_def_cfa_offset 11
 531               		.cfi_offset 29, -10
 532               	/* prologue: function */
 533               	/* frame size = 0 */
 534               	/* stack size = 9 */
 535               	.L__stack_usage = 9
 536 0012 6C01      		movw r12,r24
 537 0014 8B01      		movw r16,r22
 538 0016 7A01      		movw r14,r20
 539               	.LVL47:
  41:lufa-lib-svn/LUFA/Drivers/USB/Core/AVR8/Template/Template_Endpoint_RW.c **** 	if ((ErrorCode = Endpoint_WaitUntilReady()))
 540               		.loc 3 41 0
 541 0018 0E94 0000 		call Endpoint_WaitUntilReady
 542               	.LVL48:
 543 001c B82E      		mov r11,r24
 544               	.LVL49:
 545 001e 8111      		cpse r24,__zero_reg__
 546 0020 00C0      		rjmp .L39
  37:lufa-lib-svn/LUFA/Drivers/USB/Core/AVR8/Template/Template_Endpoint_RW.c **** 	uint8_t* DataStream      = ((uint8_t*)Buffer + TEMPLATE_BUFFER_OFFSET(Length));
 547               		.loc 3 37 0
 548 0022 E801      		movw r28,r16
 549 0024 2197      		sbiw r28,1
 550               	.LVL50:
 551 0026 CC0D      		add r28,r12
 552 0028 DD1D      		adc r29,r13
 553               	.LVL51:
  44:lufa-lib-svn/LUFA/Drivers/USB/Core/AVR8/Template/Template_Endpoint_RW.c **** 	if (BytesProcessed != NULL)
 554               		.loc 3 44 0
 555 002a E114      		cp r14,__zero_reg__
 556 002c F104      		cpc r15,__zero_reg__
 557 002e 01F0      		breq .L40
  46:lufa-lib-svn/LUFA/Drivers/USB/Core/AVR8/Template/Template_Endpoint_RW.c **** 		Length -= *BytesProcessed;
 558               		.loc 3 46 0
 559 0030 F701      		movw r30,r14
 560 0032 2081      		ld r18,Z
 561 0034 3181      		ldd r19,Z+1
 562 0036 021B      		sub r16,r18
 563 0038 130B      		sbc r17,r19
 564               	.LVL52:
  47:lufa-lib-svn/LUFA/Drivers/USB/Core/AVR8/Template/Template_Endpoint_RW.c **** 		TEMPLATE_BUFFER_MOVE(DataStream, *BytesProcessed);
 565               		.loc 3 47 0
 566 003a C21B      		sub r28,r18
 567 003c D30B      		sbc r29,r19
 568               	.LVL53:
 569               	.L40:
  36:lufa-lib-svn/LUFA/Drivers/USB/Core/AVR8/Template/Template_Endpoint_RW.c **** {
 570               		.loc 3 36 0 discriminator 1
 571 003e C12C      		mov r12,__zero_reg__
 572 0040 D12C      		mov r13,__zero_reg__
 573               	.LVL54:
 574 0042 00C0      		rjmp .L50
 575               	.LVL55:
 576               	.L45:
 577               	.LBB274:
 578               	.LBB275:
 424:lufa-lib-svn/LUFA/Drivers/USB/Core/AVR8/../AVR8/../AVR8/Endpoint_AVR8.h **** 				return ((UEINTX & (1 << RWAL)) ? true : false);
 579               		.loc 2 424 0
 580 0044 8091 E800 		lds r24,232
 581               	.LBE275:
 582               	.LBE274:
  52:lufa-lib-svn/LUFA/Drivers/USB/Core/AVR8/Template/Template_Endpoint_RW.c **** 		if (!(Endpoint_IsReadWriteAllowed()))
 583               		.loc 3 52 0
 584 0048 85FD      		sbrc r24,5
 585 004a 00C0      		rjmp .L42
 586               	.LBB276:
 587               	.LBB277:
 520:lufa-lib-svn/LUFA/Drivers/USB/Core/AVR8/../AVR8/../AVR8/Endpoint_AVR8.h **** 					UEINTX &= ~((1 << TXINI) | (1 << FIFOCON));
 588               		.loc 2 520 0
 589 004c 8091 E800 		lds r24,232
 590 0050 8E77      		andi r24,lo8(126)
 591 0052 8093 E800 		sts 232,r24
 592               	.LBE277:
 593               	.LBE276:
  60:lufa-lib-svn/LUFA/Drivers/USB/Core/AVR8/Template/Template_Endpoint_RW.c **** 			if (BytesProcessed != NULL)
 594               		.loc 3 60 0
 595 0056 E114      		cp r14,__zero_reg__
 596 0058 F104      		cpc r15,__zero_reg__
 597 005a 01F0      		breq .L43
  62:lufa-lib-svn/LUFA/Drivers/USB/Core/AVR8/Template/Template_Endpoint_RW.c **** 				*BytesProcessed += BytesInTransfer;
 598               		.loc 3 62 0
 599 005c F701      		movw r30,r14
 600 005e 8081      		ld r24,Z
 601 0060 9181      		ldd r25,Z+1
 602 0062 8C0D      		add r24,r12
 603 0064 9D1D      		adc r25,r13
 604 0066 9183      		std Z+1,r25
 605 0068 8083      		st Z,r24
  63:lufa-lib-svn/LUFA/Drivers/USB/Core/AVR8/Template/Template_Endpoint_RW.c **** 				return ENDPOINT_RWSTREAM_IncompleteTransfer;
 606               		.loc 3 63 0
 607 006a 35E0      		ldi r19,lo8(5)
 608 006c B32E      		mov r11,r19
 609 006e 00C0      		rjmp .L39
 610               	.L43:
  66:lufa-lib-svn/LUFA/Drivers/USB/Core/AVR8/Template/Template_Endpoint_RW.c **** 			if ((ErrorCode = Endpoint_WaitUntilReady()))
 611               		.loc 3 66 0
 612 0070 0E94 0000 		call Endpoint_WaitUntilReady
 613               	.LVL56:
 614 0074 8823      		tst r24
 615 0076 01F0      		breq .L50
 616 0078 00C0      		rjmp .L46
 617               	.LVL57:
 618               	.L42:
  71:lufa-lib-svn/LUFA/Drivers/USB/Core/AVR8/Template/Template_Endpoint_RW.c **** 			TEMPLATE_TRANSFER_BYTE(DataStream);
 619               		.loc 3 71 0
 620 007a 8881      		ld r24,Y
 621               	.LVL58:
 622               	.LBB278:
 623               	.LBB279:
 628:lufa-lib-svn/LUFA/Drivers/USB/Core/AVR8/../AVR8/../AVR8/Endpoint_AVR8.h **** 				UEDATX = Data;
 624               		.loc 2 628 0
 625 007c 8093 F100 		sts 241,r24
 626               	.LBE279:
 627               	.LBE278:
  72:lufa-lib-svn/LUFA/Drivers/USB/Core/AVR8/Template/Template_Endpoint_RW.c **** 			TEMPLATE_BUFFER_MOVE(DataStream, 1);
 628               		.loc 3 72 0
 629 0080 2197      		sbiw r28,1
 630               	.LVL59:
  73:lufa-lib-svn/LUFA/Drivers/USB/Core/AVR8/Template/Template_Endpoint_RW.c **** 			Length--;
 631               		.loc 3 73 0
 632 0082 0150      		subi r16,1
 633 0084 1109      		sbc r17,__zero_reg__
 634               	.LVL60:
  74:lufa-lib-svn/LUFA/Drivers/USB/Core/AVR8/Template/Template_Endpoint_RW.c **** 			BytesInTransfer++;
 635               		.loc 3 74 0
 636 0086 FFEF      		ldi r31,-1
 637 0088 CF1A      		sub r12,r31
 638 008a DF0A      		sbc r13,r31
 639               	.LVL61:
 640               	.L50:
  50:lufa-lib-svn/LUFA/Drivers/USB/Core/AVR8/Template/Template_Endpoint_RW.c **** 	while (Length)
 641               		.loc 3 50 0 discriminator 1
 642 008c 0115      		cp r16,__zero_reg__
 643 008e 1105      		cpc r17,__zero_reg__
 644 0090 01F4      		brne .L45
 645 0092 00C0      		rjmp .L39
 646               	.LVL62:
 647               	.L46:
  66:lufa-lib-svn/LUFA/Drivers/USB/Core/AVR8/Template/Template_Endpoint_RW.c **** 			if ((ErrorCode = Endpoint_WaitUntilReady()))
 648               		.loc 3 66 0
 649 0094 B82E      		mov r11,r24
 650               	.LVL63:
 651               	.L39:
 652               		.loc 3 79 0
 653 0096 8B2D      		mov r24,r11
 654               	/* epilogue start */
 655 0098 DF91      		pop r29
 656 009a CF91      		pop r28
 657 009c 1F91      		pop r17
 658 009e 0F91      		pop r16
 659               	.LVL64:
 660 00a0 FF90      		pop r15
 661 00a2 EF90      		pop r14
 662               	.LVL65:
 663 00a4 DF90      		pop r13
 664 00a6 CF90      		pop r12
 665 00a8 BF90      		pop r11
 666 00aa 0895      		ret
 667               		.cfi_endproc
 668               	.LFE87:
 670               		.section	.text.Endpoint_Read_Stream_LE,"ax",@progbits
 671               	.global	Endpoint_Read_Stream_LE
 673               	Endpoint_Read_Stream_LE:
 674               	.LFB88:
  36:lufa-lib-svn/LUFA/Drivers/USB/Core/AVR8/Template/Template_Endpoint_RW.c **** {
 675               		.loc 3 36 0
 676               		.cfi_startproc
 677               	.LVL66:
 678 0000 BF92      		push r11
 679               	.LCFI32:
 680               		.cfi_def_cfa_offset 3
 681               		.cfi_offset 11, -2
 682 0002 CF92      		push r12
 683               	.LCFI33:
 684               		.cfi_def_cfa_offset 4
 685               		.cfi_offset 12, -3
 686 0004 DF92      		push r13
 687               	.LCFI34:
 688               		.cfi_def_cfa_offset 5
 689               		.cfi_offset 13, -4
 690 0006 EF92      		push r14
 691               	.LCFI35:
 692               		.cfi_def_cfa_offset 6
 693               		.cfi_offset 14, -5
 694 0008 FF92      		push r15
 695               	.LCFI36:
 696               		.cfi_def_cfa_offset 7
 697               		.cfi_offset 15, -6
 698 000a 0F93      		push r16
 699               	.LCFI37:
 700               		.cfi_def_cfa_offset 8
 701               		.cfi_offset 16, -7
 702 000c 1F93      		push r17
 703               	.LCFI38:
 704               		.cfi_def_cfa_offset 9
 705               		.cfi_offset 17, -8
 706 000e CF93      		push r28
 707               	.LCFI39:
 708               		.cfi_def_cfa_offset 10
 709               		.cfi_offset 28, -9
 710 0010 DF93      		push r29
 711               	.LCFI40:
 712               		.cfi_def_cfa_offset 11
 713               		.cfi_offset 29, -10
 714               	/* prologue: function */
 715               	/* frame size = 0 */
 716               	/* stack size = 9 */
 717               	.L__stack_usage = 9
 718 0012 7C01      		movw r14,r24
 719 0014 EB01      		movw r28,r22
 720 0016 8A01      		movw r16,r20
 721               	.LVL67:
  41:lufa-lib-svn/LUFA/Drivers/USB/Core/AVR8/Template/Template_Endpoint_RW.c **** 	if ((ErrorCode = Endpoint_WaitUntilReady()))
 722               		.loc 3 41 0
 723 0018 0E94 0000 		call Endpoint_WaitUntilReady
 724               	.LVL68:
 725 001c B82E      		mov r11,r24
 726               	.LVL69:
 727 001e 8111      		cpse r24,__zero_reg__
 728 0020 00C0      		rjmp .L52
  44:lufa-lib-svn/LUFA/Drivers/USB/Core/AVR8/Template/Template_Endpoint_RW.c **** 	if (BytesProcessed != NULL)
 729               		.loc 3 44 0
 730 0022 0115      		cp r16,__zero_reg__
 731 0024 1105      		cpc r17,__zero_reg__
 732 0026 01F0      		breq .L53
  46:lufa-lib-svn/LUFA/Drivers/USB/Core/AVR8/Template/Template_Endpoint_RW.c **** 		Length -= *BytesProcessed;
 733               		.loc 3 46 0
 734 0028 F801      		movw r30,r16
 735 002a 2081      		ld r18,Z
 736 002c 3181      		ldd r19,Z+1
 737 002e C21B      		sub r28,r18
 738 0030 D30B      		sbc r29,r19
 739               	.LVL70:
  47:lufa-lib-svn/LUFA/Drivers/USB/Core/AVR8/Template/Template_Endpoint_RW.c **** 		TEMPLATE_BUFFER_MOVE(DataStream, *BytesProcessed);
 740               		.loc 3 47 0
 741 0032 E20E      		add r14,r18
 742 0034 F31E      		adc r15,r19
 743               	.LVL71:
 744               	.L53:
  37:lufa-lib-svn/LUFA/Drivers/USB/Core/AVR8/Template/Template_Endpoint_RW.c **** 	uint8_t* DataStream      = ((uint8_t*)Buffer + TEMPLATE_BUFFER_OFFSET(Length));
 745               		.loc 3 37 0 discriminator 1
 746 0036 C12C      		mov r12,__zero_reg__
 747 0038 D12C      		mov r13,__zero_reg__
 748 003a 00C0      		rjmp .L61
 749               	.LVL72:
 750               	.L58:
 751               	.LBB280:
 752               	.LBB281:
 424:lufa-lib-svn/LUFA/Drivers/USB/Core/AVR8/../AVR8/../AVR8/Endpoint_AVR8.h **** 				return ((UEINTX & (1 << RWAL)) ? true : false);
 753               		.loc 2 424 0
 754 003c 8091 E800 		lds r24,232
 755               	.LBE281:
 756               	.LBE280:
  52:lufa-lib-svn/LUFA/Drivers/USB/Core/AVR8/Template/Template_Endpoint_RW.c **** 		if (!(Endpoint_IsReadWriteAllowed()))
 757               		.loc 3 52 0
 758 0040 85FD      		sbrc r24,5
 759 0042 00C0      		rjmp .L55
 760               	.LBB282:
 761               	.LBB283:
 535:lufa-lib-svn/LUFA/Drivers/USB/Core/AVR8/../AVR8/../AVR8/Endpoint_AVR8.h **** 					UEINTX &= ~((1 << RXOUTI) | (1 << FIFOCON));
 762               		.loc 2 535 0
 763 0044 8091 E800 		lds r24,232
 764 0048 8B77      		andi r24,lo8(123)
 765 004a 8093 E800 		sts 232,r24
 766               	.LBE283:
 767               	.LBE282:
  60:lufa-lib-svn/LUFA/Drivers/USB/Core/AVR8/Template/Template_Endpoint_RW.c **** 			if (BytesProcessed != NULL)
 768               		.loc 3 60 0
 769 004e 0115      		cp r16,__zero_reg__
 770 0050 1105      		cpc r17,__zero_reg__
 771 0052 01F0      		breq .L56
  62:lufa-lib-svn/LUFA/Drivers/USB/Core/AVR8/Template/Template_Endpoint_RW.c **** 				*BytesProcessed += BytesInTransfer;
 772               		.loc 3 62 0
 773 0054 F801      		movw r30,r16
 774 0056 8081      		ld r24,Z
 775 0058 9181      		ldd r25,Z+1
 776 005a 8C0D      		add r24,r12
 777 005c 9D1D      		adc r25,r13
 778 005e 9183      		std Z+1,r25
 779 0060 8083      		st Z,r24
  63:lufa-lib-svn/LUFA/Drivers/USB/Core/AVR8/Template/Template_Endpoint_RW.c **** 				return ENDPOINT_RWSTREAM_IncompleteTransfer;
 780               		.loc 3 63 0
 781 0062 45E0      		ldi r20,lo8(5)
 782 0064 B42E      		mov r11,r20
 783 0066 00C0      		rjmp .L52
 784               	.L56:
  66:lufa-lib-svn/LUFA/Drivers/USB/Core/AVR8/Template/Template_Endpoint_RW.c **** 			if ((ErrorCode = Endpoint_WaitUntilReady()))
 785               		.loc 3 66 0
 786 0068 0E94 0000 		call Endpoint_WaitUntilReady
 787               	.LVL73:
 788 006c 8823      		tst r24
 789 006e 01F0      		breq .L61
 790 0070 00C0      		rjmp .L60
 791               	.LVL74:
 792               	.L55:
 793               	.LBB284:
 794               	.LBB285:
 616:lufa-lib-svn/LUFA/Drivers/USB/Core/AVR8/../AVR8/../AVR8/Endpoint_AVR8.h **** 				return UEDATX;
 795               		.loc 2 616 0
 796 0072 8091 F100 		lds r24,241
 797               	.LBE285:
 798               	.LBE284:
  71:lufa-lib-svn/LUFA/Drivers/USB/Core/AVR8/Template/Template_Endpoint_RW.c **** 			TEMPLATE_TRANSFER_BYTE(DataStream);
 799               		.loc 3 71 0
 800 0076 F701      		movw r30,r14
 801 0078 8193      		st Z+,r24
 802 007a 7F01      		movw r14,r30
 803               	.LVL75:
  73:lufa-lib-svn/LUFA/Drivers/USB/Core/AVR8/Template/Template_Endpoint_RW.c **** 			Length--;
 804               		.loc 3 73 0
 805 007c 2197      		sbiw r28,1
 806               	.LVL76:
  74:lufa-lib-svn/LUFA/Drivers/USB/Core/AVR8/Template/Template_Endpoint_RW.c **** 			BytesInTransfer++;
 807               		.loc 3 74 0
 808 007e FFEF      		ldi r31,-1
 809 0080 CF1A      		sub r12,r31
 810 0082 DF0A      		sbc r13,r31
 811               	.LVL77:
 812               	.L61:
  50:lufa-lib-svn/LUFA/Drivers/USB/Core/AVR8/Template/Template_Endpoint_RW.c **** 	while (Length)
 813               		.loc 3 50 0 discriminator 1
 814 0084 2097      		sbiw r28,0
 815 0086 01F4      		brne .L58
 816 0088 00C0      		rjmp .L52
 817               	.LVL78:
 818               	.L60:
  66:lufa-lib-svn/LUFA/Drivers/USB/Core/AVR8/Template/Template_Endpoint_RW.c **** 			if ((ErrorCode = Endpoint_WaitUntilReady()))
 819               		.loc 3 66 0
 820 008a B82E      		mov r11,r24
 821               	.LVL79:
 822               	.L52:
 823               		.loc 3 79 0
 824 008c 8B2D      		mov r24,r11
 825               	/* epilogue start */
 826 008e DF91      		pop r29
 827 0090 CF91      		pop r28
 828               	.LVL80:
 829 0092 1F91      		pop r17
 830 0094 0F91      		pop r16
 831               	.LVL81:
 832 0096 FF90      		pop r15
 833 0098 EF90      		pop r14
 834               	.LVL82:
 835 009a DF90      		pop r13
 836 009c CF90      		pop r12
 837 009e BF90      		pop r11
 838 00a0 0895      		ret
 839               		.cfi_endproc
 840               	.LFE88:
 842               		.section	.text.Endpoint_Read_Stream_BE,"ax",@progbits
 843               	.global	Endpoint_Read_Stream_BE
 845               	Endpoint_Read_Stream_BE:
 846               	.LFB89:
  36:lufa-lib-svn/LUFA/Drivers/USB/Core/AVR8/Template/Template_Endpoint_RW.c **** {
 847               		.loc 3 36 0
 848               		.cfi_startproc
 849               	.LVL83:
 850 0000 BF92      		push r11
 851               	.LCFI41:
 852               		.cfi_def_cfa_offset 3
 853               		.cfi_offset 11, -2
 854 0002 CF92      		push r12
 855               	.LCFI42:
 856               		.cfi_def_cfa_offset 4
 857               		.cfi_offset 12, -3
 858 0004 DF92      		push r13
 859               	.LCFI43:
 860               		.cfi_def_cfa_offset 5
 861               		.cfi_offset 13, -4
 862 0006 EF92      		push r14
 863               	.LCFI44:
 864               		.cfi_def_cfa_offset 6
 865               		.cfi_offset 14, -5
 866 0008 FF92      		push r15
 867               	.LCFI45:
 868               		.cfi_def_cfa_offset 7
 869               		.cfi_offset 15, -6
 870 000a 0F93      		push r16
 871               	.LCFI46:
 872               		.cfi_def_cfa_offset 8
 873               		.cfi_offset 16, -7
 874 000c 1F93      		push r17
 875               	.LCFI47:
 876               		.cfi_def_cfa_offset 9
 877               		.cfi_offset 17, -8
 878 000e CF93      		push r28
 879               	.LCFI48:
 880               		.cfi_def_cfa_offset 10
 881               		.cfi_offset 28, -9
 882 0010 DF93      		push r29
 883               	.LCFI49:
 884               		.cfi_def_cfa_offset 11
 885               		.cfi_offset 29, -10
 886               	/* prologue: function */
 887               	/* frame size = 0 */
 888               	/* stack size = 9 */
 889               	.L__stack_usage = 9
 890 0012 6C01      		movw r12,r24
 891 0014 8B01      		movw r16,r22
 892 0016 7A01      		movw r14,r20
 893               	.LVL84:
  41:lufa-lib-svn/LUFA/Drivers/USB/Core/AVR8/Template/Template_Endpoint_RW.c **** 	if ((ErrorCode = Endpoint_WaitUntilReady()))
 894               		.loc 3 41 0
 895 0018 0E94 0000 		call Endpoint_WaitUntilReady
 896               	.LVL85:
 897 001c B82E      		mov r11,r24
 898               	.LVL86:
 899 001e 8111      		cpse r24,__zero_reg__
 900 0020 00C0      		rjmp .L63
  37:lufa-lib-svn/LUFA/Drivers/USB/Core/AVR8/Template/Template_Endpoint_RW.c **** 	uint8_t* DataStream      = ((uint8_t*)Buffer + TEMPLATE_BUFFER_OFFSET(Length));
 901               		.loc 3 37 0
 902 0022 E801      		movw r28,r16
 903 0024 2197      		sbiw r28,1
 904               	.LVL87:
 905 0026 CC0D      		add r28,r12
 906 0028 DD1D      		adc r29,r13
 907               	.LVL88:
  44:lufa-lib-svn/LUFA/Drivers/USB/Core/AVR8/Template/Template_Endpoint_RW.c **** 	if (BytesProcessed != NULL)
 908               		.loc 3 44 0
 909 002a E114      		cp r14,__zero_reg__
 910 002c F104      		cpc r15,__zero_reg__
 911 002e 01F0      		breq .L64
  46:lufa-lib-svn/LUFA/Drivers/USB/Core/AVR8/Template/Template_Endpoint_RW.c **** 		Length -= *BytesProcessed;
 912               		.loc 3 46 0
 913 0030 F701      		movw r30,r14
 914 0032 2081      		ld r18,Z
 915 0034 3181      		ldd r19,Z+1
 916 0036 021B      		sub r16,r18
 917 0038 130B      		sbc r17,r19
 918               	.LVL89:
  47:lufa-lib-svn/LUFA/Drivers/USB/Core/AVR8/Template/Template_Endpoint_RW.c **** 		TEMPLATE_BUFFER_MOVE(DataStream, *BytesProcessed);
 919               		.loc 3 47 0
 920 003a C21B      		sub r28,r18
 921 003c D30B      		sbc r29,r19
 922               	.LVL90:
 923               	.L64:
  36:lufa-lib-svn/LUFA/Drivers/USB/Core/AVR8/Template/Template_Endpoint_RW.c **** {
 924               		.loc 3 36 0 discriminator 1
 925 003e C12C      		mov r12,__zero_reg__
 926 0040 D12C      		mov r13,__zero_reg__
 927               	.LVL91:
 928 0042 00C0      		rjmp .L74
 929               	.LVL92:
 930               	.L69:
 931               	.LBB286:
 932               	.LBB287:
 424:lufa-lib-svn/LUFA/Drivers/USB/Core/AVR8/../AVR8/../AVR8/Endpoint_AVR8.h **** 				return ((UEINTX & (1 << RWAL)) ? true : false);
 933               		.loc 2 424 0
 934 0044 8091 E800 		lds r24,232
 935               	.LBE287:
 936               	.LBE286:
  52:lufa-lib-svn/LUFA/Drivers/USB/Core/AVR8/Template/Template_Endpoint_RW.c **** 		if (!(Endpoint_IsReadWriteAllowed()))
 937               		.loc 3 52 0
 938 0048 85FD      		sbrc r24,5
 939 004a 00C0      		rjmp .L66
 940               	.LBB288:
 941               	.LBB289:
 535:lufa-lib-svn/LUFA/Drivers/USB/Core/AVR8/../AVR8/../AVR8/Endpoint_AVR8.h **** 					UEINTX &= ~((1 << RXOUTI) | (1 << FIFOCON));
 942               		.loc 2 535 0
 943 004c 8091 E800 		lds r24,232
 944 0050 8B77      		andi r24,lo8(123)
 945 0052 8093 E800 		sts 232,r24
 946               	.LBE289:
 947               	.LBE288:
  60:lufa-lib-svn/LUFA/Drivers/USB/Core/AVR8/Template/Template_Endpoint_RW.c **** 			if (BytesProcessed != NULL)
 948               		.loc 3 60 0
 949 0056 E114      		cp r14,__zero_reg__
 950 0058 F104      		cpc r15,__zero_reg__
 951 005a 01F0      		breq .L67
  62:lufa-lib-svn/LUFA/Drivers/USB/Core/AVR8/Template/Template_Endpoint_RW.c **** 				*BytesProcessed += BytesInTransfer;
 952               		.loc 3 62 0
 953 005c F701      		movw r30,r14
 954 005e 8081      		ld r24,Z
 955 0060 9181      		ldd r25,Z+1
 956 0062 8C0D      		add r24,r12
 957 0064 9D1D      		adc r25,r13
 958 0066 9183      		std Z+1,r25
 959 0068 8083      		st Z,r24
  63:lufa-lib-svn/LUFA/Drivers/USB/Core/AVR8/Template/Template_Endpoint_RW.c **** 				return ENDPOINT_RWSTREAM_IncompleteTransfer;
 960               		.loc 3 63 0
 961 006a 55E0      		ldi r21,lo8(5)
 962 006c B52E      		mov r11,r21
 963 006e 00C0      		rjmp .L63
 964               	.L67:
  66:lufa-lib-svn/LUFA/Drivers/USB/Core/AVR8/Template/Template_Endpoint_RW.c **** 			if ((ErrorCode = Endpoint_WaitUntilReady()))
 965               		.loc 3 66 0
 966 0070 0E94 0000 		call Endpoint_WaitUntilReady
 967               	.LVL93:
 968 0074 8823      		tst r24
 969 0076 01F0      		breq .L74
 970 0078 00C0      		rjmp .L70
 971               	.LVL94:
 972               	.L66:
 973               	.LBB290:
 974               	.LBB291:
 616:lufa-lib-svn/LUFA/Drivers/USB/Core/AVR8/../AVR8/../AVR8/Endpoint_AVR8.h **** 				return UEDATX;
 975               		.loc 2 616 0
 976 007a 8091 F100 		lds r24,241
 977               	.LBE291:
 978               	.LBE290:
  71:lufa-lib-svn/LUFA/Drivers/USB/Core/AVR8/Template/Template_Endpoint_RW.c **** 			TEMPLATE_TRANSFER_BYTE(DataStream);
 979               		.loc 3 71 0
 980 007e 8883      		st Y,r24
  72:lufa-lib-svn/LUFA/Drivers/USB/Core/AVR8/Template/Template_Endpoint_RW.c **** 			TEMPLATE_BUFFER_MOVE(DataStream, 1);
 981               		.loc 3 72 0
 982 0080 2197      		sbiw r28,1
 983               	.LVL95:
  73:lufa-lib-svn/LUFA/Drivers/USB/Core/AVR8/Template/Template_Endpoint_RW.c **** 			Length--;
 984               		.loc 3 73 0
 985 0082 0150      		subi r16,1
 986 0084 1109      		sbc r17,__zero_reg__
 987               	.LVL96:
  74:lufa-lib-svn/LUFA/Drivers/USB/Core/AVR8/Template/Template_Endpoint_RW.c **** 			BytesInTransfer++;
 988               		.loc 3 74 0
 989 0086 FFEF      		ldi r31,-1
 990 0088 CF1A      		sub r12,r31
 991 008a DF0A      		sbc r13,r31
 992               	.LVL97:
 993               	.L74:
  50:lufa-lib-svn/LUFA/Drivers/USB/Core/AVR8/Template/Template_Endpoint_RW.c **** 	while (Length)
 994               		.loc 3 50 0 discriminator 1
 995 008c 0115      		cp r16,__zero_reg__
 996 008e 1105      		cpc r17,__zero_reg__
 997 0090 01F4      		brne .L69
 998 0092 00C0      		rjmp .L63
 999               	.LVL98:
 1000               	.L70:
  66:lufa-lib-svn/LUFA/Drivers/USB/Core/AVR8/Template/Template_Endpoint_RW.c **** 			if ((ErrorCode = Endpoint_WaitUntilReady()))
 1001               		.loc 3 66 0
 1002 0094 B82E      		mov r11,r24
 1003               	.LVL99:
 1004               	.L63:
 1005               		.loc 3 79 0
 1006 0096 8B2D      		mov r24,r11
 1007               	/* epilogue start */
 1008 0098 DF91      		pop r29
 1009 009a CF91      		pop r28
 1010 009c 1F91      		pop r17
 1011 009e 0F91      		pop r16
 1012               	.LVL100:
 1013 00a0 FF90      		pop r15
 1014 00a2 EF90      		pop r14
 1015               	.LVL101:
 1016 00a4 DF90      		pop r13
 1017 00a6 CF90      		pop r12
 1018 00a8 BF90      		pop r11
 1019 00aa 0895      		ret
 1020               		.cfi_endproc
 1021               	.LFE89:
 1023               		.section	.text.Endpoint_Write_PStream_LE,"ax",@progbits
 1024               	.global	Endpoint_Write_PStream_LE
 1026               	Endpoint_Write_PStream_LE:
 1027               	.LFB90:
  36:lufa-lib-svn/LUFA/Drivers/USB/Core/AVR8/Template/Template_Endpoint_RW.c **** {
 1028               		.loc 3 36 0
 1029               		.cfi_startproc
 1030               	.LVL102:
 1031 0000 BF92      		push r11
 1032               	.LCFI50:
 1033               		.cfi_def_cfa_offset 3
 1034               		.cfi_offset 11, -2
 1035 0002 CF92      		push r12
 1036               	.LCFI51:
 1037               		.cfi_def_cfa_offset 4
 1038               		.cfi_offset 12, -3
 1039 0004 DF92      		push r13
 1040               	.LCFI52:
 1041               		.cfi_def_cfa_offset 5
 1042               		.cfi_offset 13, -4
 1043 0006 EF92      		push r14
 1044               	.LCFI53:
 1045               		.cfi_def_cfa_offset 6
 1046               		.cfi_offset 14, -5
 1047 0008 FF92      		push r15
 1048               	.LCFI54:
 1049               		.cfi_def_cfa_offset 7
 1050               		.cfi_offset 15, -6
 1051 000a 0F93      		push r16
 1052               	.LCFI55:
 1053               		.cfi_def_cfa_offset 8
 1054               		.cfi_offset 16, -7
 1055 000c 1F93      		push r17
 1056               	.LCFI56:
 1057               		.cfi_def_cfa_offset 9
 1058               		.cfi_offset 17, -8
 1059 000e CF93      		push r28
 1060               	.LCFI57:
 1061               		.cfi_def_cfa_offset 10
 1062               		.cfi_offset 28, -9
 1063 0010 DF93      		push r29
 1064               	.LCFI58:
 1065               		.cfi_def_cfa_offset 11
 1066               		.cfi_offset 29, -10
 1067               	/* prologue: function */
 1068               	/* frame size = 0 */
 1069               	/* stack size = 9 */
 1070               	.L__stack_usage = 9
 1071 0012 7C01      		movw r14,r24
 1072 0014 EB01      		movw r28,r22
 1073 0016 8A01      		movw r16,r20
 1074               	.LVL103:
  41:lufa-lib-svn/LUFA/Drivers/USB/Core/AVR8/Template/Template_Endpoint_RW.c **** 	if ((ErrorCode = Endpoint_WaitUntilReady()))
 1075               		.loc 3 41 0
 1076 0018 0E94 0000 		call Endpoint_WaitUntilReady
 1077               	.LVL104:
 1078 001c B82E      		mov r11,r24
 1079               	.LVL105:
 1080 001e 8111      		cpse r24,__zero_reg__
 1081 0020 00C0      		rjmp .L76
  44:lufa-lib-svn/LUFA/Drivers/USB/Core/AVR8/Template/Template_Endpoint_RW.c **** 	if (BytesProcessed != NULL)
 1082               		.loc 3 44 0
 1083 0022 0115      		cp r16,__zero_reg__
 1084 0024 1105      		cpc r17,__zero_reg__
 1085 0026 01F0      		breq .L77
  46:lufa-lib-svn/LUFA/Drivers/USB/Core/AVR8/Template/Template_Endpoint_RW.c **** 		Length -= *BytesProcessed;
 1086               		.loc 3 46 0
 1087 0028 F801      		movw r30,r16
 1088 002a 2081      		ld r18,Z
 1089 002c 3181      		ldd r19,Z+1
 1090 002e C21B      		sub r28,r18
 1091 0030 D30B      		sbc r29,r19
 1092               	.LVL106:
  47:lufa-lib-svn/LUFA/Drivers/USB/Core/AVR8/Template/Template_Endpoint_RW.c **** 		TEMPLATE_BUFFER_MOVE(DataStream, *BytesProcessed);
 1093               		.loc 3 47 0
 1094 0032 E20E      		add r14,r18
 1095 0034 F31E      		adc r15,r19
 1096               	.LVL107:
 1097               	.L77:
  37:lufa-lib-svn/LUFA/Drivers/USB/Core/AVR8/Template/Template_Endpoint_RW.c **** 	uint8_t* DataStream      = ((uint8_t*)Buffer + TEMPLATE_BUFFER_OFFSET(Length));
 1098               		.loc 3 37 0 discriminator 1
 1099 0036 C12C      		mov r12,__zero_reg__
 1100 0038 D12C      		mov r13,__zero_reg__
 1101 003a 00C0      		rjmp .L85
 1102               	.LVL108:
 1103               	.L82:
 1104               	.LBB292:
 1105               	.LBB293:
 424:lufa-lib-svn/LUFA/Drivers/USB/Core/AVR8/../AVR8/../AVR8/Endpoint_AVR8.h **** 				return ((UEINTX & (1 << RWAL)) ? true : false);
 1106               		.loc 2 424 0
 1107 003c 8091 E800 		lds r24,232
 1108               	.LBE293:
 1109               	.LBE292:
  52:lufa-lib-svn/LUFA/Drivers/USB/Core/AVR8/Template/Template_Endpoint_RW.c **** 		if (!(Endpoint_IsReadWriteAllowed()))
 1110               		.loc 3 52 0
 1111 0040 85FD      		sbrc r24,5
 1112 0042 00C0      		rjmp .L79
 1113               	.LBB294:
 1114               	.LBB295:
 520:lufa-lib-svn/LUFA/Drivers/USB/Core/AVR8/../AVR8/../AVR8/Endpoint_AVR8.h **** 					UEINTX &= ~((1 << TXINI) | (1 << FIFOCON));
 1115               		.loc 2 520 0
 1116 0044 8091 E800 		lds r24,232
 1117 0048 8E77      		andi r24,lo8(126)
 1118 004a 8093 E800 		sts 232,r24
 1119               	.LBE295:
 1120               	.LBE294:
  60:lufa-lib-svn/LUFA/Drivers/USB/Core/AVR8/Template/Template_Endpoint_RW.c **** 			if (BytesProcessed != NULL)
 1121               		.loc 3 60 0
 1122 004e 0115      		cp r16,__zero_reg__
 1123 0050 1105      		cpc r17,__zero_reg__
 1124 0052 01F0      		breq .L80
  62:lufa-lib-svn/LUFA/Drivers/USB/Core/AVR8/Template/Template_Endpoint_RW.c **** 				*BytesProcessed += BytesInTransfer;
 1125               		.loc 3 62 0
 1126 0054 F801      		movw r30,r16
 1127 0056 8081      		ld r24,Z
 1128 0058 9181      		ldd r25,Z+1
 1129 005a 8C0D      		add r24,r12
 1130 005c 9D1D      		adc r25,r13
 1131 005e 9183      		std Z+1,r25
 1132 0060 8083      		st Z,r24
  63:lufa-lib-svn/LUFA/Drivers/USB/Core/AVR8/Template/Template_Endpoint_RW.c **** 				return ENDPOINT_RWSTREAM_IncompleteTransfer;
 1133               		.loc 3 63 0
 1134 0062 65E0      		ldi r22,lo8(5)
 1135 0064 B62E      		mov r11,r22
 1136 0066 00C0      		rjmp .L76
 1137               	.L80:
  66:lufa-lib-svn/LUFA/Drivers/USB/Core/AVR8/Template/Template_Endpoint_RW.c **** 			if ((ErrorCode = Endpoint_WaitUntilReady()))
 1138               		.loc 3 66 0
 1139 0068 0E94 0000 		call Endpoint_WaitUntilReady
 1140               	.LVL109:
 1141 006c 8823      		tst r24
 1142 006e 01F0      		breq .L85
 1143 0070 00C0      		rjmp .L84
 1144               	.LVL110:
 1145               	.L79:
 1146               	.LBB296:
  71:lufa-lib-svn/LUFA/Drivers/USB/Core/AVR8/Template/Template_Endpoint_RW.c **** 			TEMPLATE_TRANSFER_BYTE(DataStream);
 1147               		.loc 3 71 0
 1148 0072 F701      		movw r30,r14
 1149               	/* #APP */
 1150               	 ;  71 "lufa-lib-svn/LUFA/Drivers/USB/Core/AVR8/Template/Template_Endpoint_RW.c" 1
 1151 0074 8491      		lpm r24, Z
 1152               		
 1153               	 ;  0 "" 2
 1154               	.LVL111:
 1155               	/* #NOAPP */
 1156               	.LBE296:
 1157               	.LBB297:
 1158               	.LBB298:
 628:lufa-lib-svn/LUFA/Drivers/USB/Core/AVR8/../AVR8/../AVR8/Endpoint_AVR8.h **** 				UEDATX = Data;
 1159               		.loc 2 628 0
 1160 0076 8093 F100 		sts 241,r24
 1161               	.LBE298:
 1162               	.LBE297:
  72:lufa-lib-svn/LUFA/Drivers/USB/Core/AVR8/Template/Template_Endpoint_RW.c **** 			TEMPLATE_BUFFER_MOVE(DataStream, 1);
 1163               		.loc 3 72 0
 1164 007a FFEF      		ldi r31,-1
 1165 007c EF1A      		sub r14,r31
 1166 007e FF0A      		sbc r15,r31
 1167               	.LVL112:
  73:lufa-lib-svn/LUFA/Drivers/USB/Core/AVR8/Template/Template_Endpoint_RW.c **** 			Length--;
 1168               		.loc 3 73 0
 1169 0080 2197      		sbiw r28,1
 1170               	.LVL113:
  74:lufa-lib-svn/LUFA/Drivers/USB/Core/AVR8/Template/Template_Endpoint_RW.c **** 			BytesInTransfer++;
 1171               		.loc 3 74 0
 1172 0082 8FEF      		ldi r24,-1
 1173 0084 C81A      		sub r12,r24
 1174 0086 D80A      		sbc r13,r24
 1175               	.LVL114:
 1176               	.L85:
  50:lufa-lib-svn/LUFA/Drivers/USB/Core/AVR8/Template/Template_Endpoint_RW.c **** 	while (Length)
 1177               		.loc 3 50 0 discriminator 1
 1178 0088 2097      		sbiw r28,0
 1179 008a 01F4      		brne .L82
 1180 008c 00C0      		rjmp .L76
 1181               	.LVL115:
 1182               	.L84:
  66:lufa-lib-svn/LUFA/Drivers/USB/Core/AVR8/Template/Template_Endpoint_RW.c **** 			if ((ErrorCode = Endpoint_WaitUntilReady()))
 1183               		.loc 3 66 0
 1184 008e B82E      		mov r11,r24
 1185               	.LVL116:
 1186               	.L76:
 1187               		.loc 3 79 0
 1188 0090 8B2D      		mov r24,r11
 1189               	/* epilogue start */
 1190 0092 DF91      		pop r29
 1191 0094 CF91      		pop r28
 1192               	.LVL117:
 1193 0096 1F91      		pop r17
 1194 0098 0F91      		pop r16
 1195               	.LVL118:
 1196 009a FF90      		pop r15
 1197 009c EF90      		pop r14
 1198               	.LVL119:
 1199 009e DF90      		pop r13
 1200 00a0 CF90      		pop r12
 1201 00a2 BF90      		pop r11
 1202 00a4 0895      		ret
 1203               		.cfi_endproc
 1204               	.LFE90:
 1206               		.section	.text.Endpoint_Write_PStream_BE,"ax",@progbits
 1207               	.global	Endpoint_Write_PStream_BE
 1209               	Endpoint_Write_PStream_BE:
 1210               	.LFB91:
  36:lufa-lib-svn/LUFA/Drivers/USB/Core/AVR8/Template/Template_Endpoint_RW.c **** {
 1211               		.loc 3 36 0
 1212               		.cfi_startproc
 1213               	.LVL120:
 1214 0000 BF92      		push r11
 1215               	.LCFI59:
 1216               		.cfi_def_cfa_offset 3
 1217               		.cfi_offset 11, -2
 1218 0002 CF92      		push r12
 1219               	.LCFI60:
 1220               		.cfi_def_cfa_offset 4
 1221               		.cfi_offset 12, -3
 1222 0004 DF92      		push r13
 1223               	.LCFI61:
 1224               		.cfi_def_cfa_offset 5
 1225               		.cfi_offset 13, -4
 1226 0006 EF92      		push r14
 1227               	.LCFI62:
 1228               		.cfi_def_cfa_offset 6
 1229               		.cfi_offset 14, -5
 1230 0008 FF92      		push r15
 1231               	.LCFI63:
 1232               		.cfi_def_cfa_offset 7
 1233               		.cfi_offset 15, -6
 1234 000a 0F93      		push r16
 1235               	.LCFI64:
 1236               		.cfi_def_cfa_offset 8
 1237               		.cfi_offset 16, -7
 1238 000c 1F93      		push r17
 1239               	.LCFI65:
 1240               		.cfi_def_cfa_offset 9
 1241               		.cfi_offset 17, -8
 1242 000e CF93      		push r28
 1243               	.LCFI66:
 1244               		.cfi_def_cfa_offset 10
 1245               		.cfi_offset 28, -9
 1246 0010 DF93      		push r29
 1247               	.LCFI67:
 1248               		.cfi_def_cfa_offset 11
 1249               		.cfi_offset 29, -10
 1250               	/* prologue: function */
 1251               	/* frame size = 0 */
 1252               	/* stack size = 9 */
 1253               	.L__stack_usage = 9
 1254 0012 6C01      		movw r12,r24
 1255 0014 8B01      		movw r16,r22
 1256 0016 7A01      		movw r14,r20
 1257               	.LVL121:
  41:lufa-lib-svn/LUFA/Drivers/USB/Core/AVR8/Template/Template_Endpoint_RW.c **** 	if ((ErrorCode = Endpoint_WaitUntilReady()))
 1258               		.loc 3 41 0
 1259 0018 0E94 0000 		call Endpoint_WaitUntilReady
 1260               	.LVL122:
 1261 001c B82E      		mov r11,r24
 1262               	.LVL123:
 1263 001e 8111      		cpse r24,__zero_reg__
 1264 0020 00C0      		rjmp .L87
  37:lufa-lib-svn/LUFA/Drivers/USB/Core/AVR8/Template/Template_Endpoint_RW.c **** 	uint8_t* DataStream      = ((uint8_t*)Buffer + TEMPLATE_BUFFER_OFFSET(Length));
 1265               		.loc 3 37 0
 1266 0022 E801      		movw r28,r16
 1267 0024 2197      		sbiw r28,1
 1268               	.LVL124:
 1269 0026 CC0D      		add r28,r12
 1270 0028 DD1D      		adc r29,r13
 1271               	.LVL125:
  44:lufa-lib-svn/LUFA/Drivers/USB/Core/AVR8/Template/Template_Endpoint_RW.c **** 	if (BytesProcessed != NULL)
 1272               		.loc 3 44 0
 1273 002a E114      		cp r14,__zero_reg__
 1274 002c F104      		cpc r15,__zero_reg__
 1275 002e 01F0      		breq .L88
  46:lufa-lib-svn/LUFA/Drivers/USB/Core/AVR8/Template/Template_Endpoint_RW.c **** 		Length -= *BytesProcessed;
 1276               		.loc 3 46 0
 1277 0030 F701      		movw r30,r14
 1278 0032 2081      		ld r18,Z
 1279 0034 3181      		ldd r19,Z+1
 1280 0036 021B      		sub r16,r18
 1281 0038 130B      		sbc r17,r19
 1282               	.LVL126:
  47:lufa-lib-svn/LUFA/Drivers/USB/Core/AVR8/Template/Template_Endpoint_RW.c **** 		TEMPLATE_BUFFER_MOVE(DataStream, *BytesProcessed);
 1283               		.loc 3 47 0
 1284 003a C21B      		sub r28,r18
 1285 003c D30B      		sbc r29,r19
 1286               	.LVL127:
 1287               	.L88:
  36:lufa-lib-svn/LUFA/Drivers/USB/Core/AVR8/Template/Template_Endpoint_RW.c **** {
 1288               		.loc 3 36 0 discriminator 1
 1289 003e C12C      		mov r12,__zero_reg__
 1290 0040 D12C      		mov r13,__zero_reg__
 1291               	.LVL128:
 1292 0042 00C0      		rjmp .L98
 1293               	.LVL129:
 1294               	.L93:
 1295               	.LBB299:
 1296               	.LBB300:
 424:lufa-lib-svn/LUFA/Drivers/USB/Core/AVR8/../AVR8/../AVR8/Endpoint_AVR8.h **** 				return ((UEINTX & (1 << RWAL)) ? true : false);
 1297               		.loc 2 424 0
 1298 0044 8091 E800 		lds r24,232
 1299               	.LBE300:
 1300               	.LBE299:
  52:lufa-lib-svn/LUFA/Drivers/USB/Core/AVR8/Template/Template_Endpoint_RW.c **** 		if (!(Endpoint_IsReadWriteAllowed()))
 1301               		.loc 3 52 0
 1302 0048 85FD      		sbrc r24,5
 1303 004a 00C0      		rjmp .L90
 1304               	.LBB301:
 1305               	.LBB302:
 520:lufa-lib-svn/LUFA/Drivers/USB/Core/AVR8/../AVR8/../AVR8/Endpoint_AVR8.h **** 					UEINTX &= ~((1 << TXINI) | (1 << FIFOCON));
 1306               		.loc 2 520 0
 1307 004c 8091 E800 		lds r24,232
 1308 0050 8E77      		andi r24,lo8(126)
 1309 0052 8093 E800 		sts 232,r24
 1310               	.LBE302:
 1311               	.LBE301:
  60:lufa-lib-svn/LUFA/Drivers/USB/Core/AVR8/Template/Template_Endpoint_RW.c **** 			if (BytesProcessed != NULL)
 1312               		.loc 3 60 0
 1313 0056 E114      		cp r14,__zero_reg__
 1314 0058 F104      		cpc r15,__zero_reg__
 1315 005a 01F0      		breq .L91
  62:lufa-lib-svn/LUFA/Drivers/USB/Core/AVR8/Template/Template_Endpoint_RW.c **** 				*BytesProcessed += BytesInTransfer;
 1316               		.loc 3 62 0
 1317 005c F701      		movw r30,r14
 1318 005e 8081      		ld r24,Z
 1319 0060 9181      		ldd r25,Z+1
 1320 0062 8C0D      		add r24,r12
 1321 0064 9D1D      		adc r25,r13
 1322 0066 9183      		std Z+1,r25
 1323 0068 8083      		st Z,r24
  63:lufa-lib-svn/LUFA/Drivers/USB/Core/AVR8/Template/Template_Endpoint_RW.c **** 				return ENDPOINT_RWSTREAM_IncompleteTransfer;
 1324               		.loc 3 63 0
 1325 006a 75E0      		ldi r23,lo8(5)
 1326 006c B72E      		mov r11,r23
 1327 006e 00C0      		rjmp .L87
 1328               	.L91:
  66:lufa-lib-svn/LUFA/Drivers/USB/Core/AVR8/Template/Template_Endpoint_RW.c **** 			if ((ErrorCode = Endpoint_WaitUntilReady()))
 1329               		.loc 3 66 0
 1330 0070 0E94 0000 		call Endpoint_WaitUntilReady
 1331               	.LVL130:
 1332 0074 8823      		tst r24
 1333 0076 01F0      		breq .L98
 1334 0078 00C0      		rjmp .L94
 1335               	.LVL131:
 1336               	.L90:
 1337               	.LBB303:
  71:lufa-lib-svn/LUFA/Drivers/USB/Core/AVR8/Template/Template_Endpoint_RW.c **** 			TEMPLATE_TRANSFER_BYTE(DataStream);
 1338               		.loc 3 71 0
 1339 007a FE01      		movw r30,r28
 1340               	/* #APP */
 1341               	 ;  71 "lufa-lib-svn/LUFA/Drivers/USB/Core/AVR8/Template/Template_Endpoint_RW.c" 1
 1342 007c 8491      		lpm r24, Z
 1343               		
 1344               	 ;  0 "" 2
 1345               	.LVL132:
 1346               	/* #NOAPP */
 1347               	.LBE303:
 1348               	.LBB304:
 1349               	.LBB305:
 628:lufa-lib-svn/LUFA/Drivers/USB/Core/AVR8/../AVR8/../AVR8/Endpoint_AVR8.h **** 				UEDATX = Data;
 1350               		.loc 2 628 0
 1351 007e 8093 F100 		sts 241,r24
 1352               	.LBE305:
 1353               	.LBE304:
  72:lufa-lib-svn/LUFA/Drivers/USB/Core/AVR8/Template/Template_Endpoint_RW.c **** 			TEMPLATE_BUFFER_MOVE(DataStream, 1);
 1354               		.loc 3 72 0
 1355 0082 2197      		sbiw r28,1
 1356               	.LVL133:
  73:lufa-lib-svn/LUFA/Drivers/USB/Core/AVR8/Template/Template_Endpoint_RW.c **** 			Length--;
 1357               		.loc 3 73 0
 1358 0084 0150      		subi r16,1
 1359 0086 1109      		sbc r17,__zero_reg__
 1360               	.LVL134:
  74:lufa-lib-svn/LUFA/Drivers/USB/Core/AVR8/Template/Template_Endpoint_RW.c **** 			BytesInTransfer++;
 1361               		.loc 3 74 0
 1362 0088 FFEF      		ldi r31,-1
 1363 008a CF1A      		sub r12,r31
 1364 008c DF0A      		sbc r13,r31
 1365               	.LVL135:
 1366               	.L98:
  50:lufa-lib-svn/LUFA/Drivers/USB/Core/AVR8/Template/Template_Endpoint_RW.c **** 	while (Length)
 1367               		.loc 3 50 0 discriminator 1
 1368 008e 0115      		cp r16,__zero_reg__
 1369 0090 1105      		cpc r17,__zero_reg__
 1370 0092 01F4      		brne .L93
 1371 0094 00C0      		rjmp .L87
 1372               	.LVL136:
 1373               	.L94:
  66:lufa-lib-svn/LUFA/Drivers/USB/Core/AVR8/Template/Template_Endpoint_RW.c **** 			if ((ErrorCode = Endpoint_WaitUntilReady()))
 1374               		.loc 3 66 0
 1375 0096 B82E      		mov r11,r24
 1376               	.LVL137:
 1377               	.L87:
 1378               		.loc 3 79 0
 1379 0098 8B2D      		mov r24,r11
 1380               	/* epilogue start */
 1381 009a DF91      		pop r29
 1382 009c CF91      		pop r28
 1383 009e 1F91      		pop r17
 1384 00a0 0F91      		pop r16
 1385               	.LVL138:
 1386 00a2 FF90      		pop r15
 1387 00a4 EF90      		pop r14
 1388               	.LVL139:
 1389 00a6 DF90      		pop r13
 1390 00a8 CF90      		pop r12
 1391 00aa BF90      		pop r11
 1392 00ac 0895      		ret
 1393               		.cfi_endproc
 1394               	.LFE91:
 1396               		.section	.text.Endpoint_Write_EStream_LE,"ax",@progbits
 1397               	.global	Endpoint_Write_EStream_LE
 1399               	Endpoint_Write_EStream_LE:
 1400               	.LFB92:
  36:lufa-lib-svn/LUFA/Drivers/USB/Core/AVR8/Template/Template_Endpoint_RW.c **** {
 1401               		.loc 3 36 0
 1402               		.cfi_startproc
 1403               	.LVL140:
 1404 0000 BF92      		push r11
 1405               	.LCFI68:
 1406               		.cfi_def_cfa_offset 3
 1407               		.cfi_offset 11, -2
 1408 0002 CF92      		push r12
 1409               	.LCFI69:
 1410               		.cfi_def_cfa_offset 4
 1411               		.cfi_offset 12, -3
 1412 0004 DF92      		push r13
 1413               	.LCFI70:
 1414               		.cfi_def_cfa_offset 5
 1415               		.cfi_offset 13, -4
 1416 0006 EF92      		push r14
 1417               	.LCFI71:
 1418               		.cfi_def_cfa_offset 6
 1419               		.cfi_offset 14, -5
 1420 0008 FF92      		push r15
 1421               	.LCFI72:
 1422               		.cfi_def_cfa_offset 7
 1423               		.cfi_offset 15, -6
 1424 000a 0F93      		push r16
 1425               	.LCFI73:
 1426               		.cfi_def_cfa_offset 8
 1427               		.cfi_offset 16, -7
 1428 000c 1F93      		push r17
 1429               	.LCFI74:
 1430               		.cfi_def_cfa_offset 9
 1431               		.cfi_offset 17, -8
 1432 000e CF93      		push r28
 1433               	.LCFI75:
 1434               		.cfi_def_cfa_offset 10
 1435               		.cfi_offset 28, -9
 1436 0010 DF93      		push r29
 1437               	.LCFI76:
 1438               		.cfi_def_cfa_offset 11
 1439               		.cfi_offset 29, -10
 1440               	/* prologue: function */
 1441               	/* frame size = 0 */
 1442               	/* stack size = 9 */
 1443               	.L__stack_usage = 9
 1444 0012 7C01      		movw r14,r24
 1445 0014 8B01      		movw r16,r22
 1446 0016 EA01      		movw r28,r20
 1447               	.LVL141:
  41:lufa-lib-svn/LUFA/Drivers/USB/Core/AVR8/Template/Template_Endpoint_RW.c **** 	if ((ErrorCode = Endpoint_WaitUntilReady()))
 1448               		.loc 3 41 0
 1449 0018 0E94 0000 		call Endpoint_WaitUntilReady
 1450               	.LVL142:
 1451 001c B82E      		mov r11,r24
 1452               	.LVL143:
 1453 001e 8111      		cpse r24,__zero_reg__
 1454 0020 00C0      		rjmp .L100
  44:lufa-lib-svn/LUFA/Drivers/USB/Core/AVR8/Template/Template_Endpoint_RW.c **** 	if (BytesProcessed != NULL)
 1455               		.loc 3 44 0
 1456 0022 2097      		sbiw r28,0
 1457 0024 01F0      		breq .L101
  46:lufa-lib-svn/LUFA/Drivers/USB/Core/AVR8/Template/Template_Endpoint_RW.c **** 		Length -= *BytesProcessed;
 1458               		.loc 3 46 0
 1459 0026 2881      		ld r18,Y
 1460 0028 3981      		ldd r19,Y+1
 1461 002a 021B      		sub r16,r18
 1462 002c 130B      		sbc r17,r19
 1463               	.LVL144:
  47:lufa-lib-svn/LUFA/Drivers/USB/Core/AVR8/Template/Template_Endpoint_RW.c **** 		TEMPLATE_BUFFER_MOVE(DataStream, *BytesProcessed);
 1464               		.loc 3 47 0
 1465 002e E20E      		add r14,r18
 1466 0030 F31E      		adc r15,r19
 1467               	.LVL145:
 1468               	.L101:
  37:lufa-lib-svn/LUFA/Drivers/USB/Core/AVR8/Template/Template_Endpoint_RW.c **** 	uint8_t* DataStream      = ((uint8_t*)Buffer + TEMPLATE_BUFFER_OFFSET(Length));
 1469               		.loc 3 37 0 discriminator 1
 1470 0032 C12C      		mov r12,__zero_reg__
 1471 0034 D12C      		mov r13,__zero_reg__
 1472 0036 00C0      		rjmp .L109
 1473               	.LVL146:
 1474               	.L106:
 1475               	.LBB306:
 1476               	.LBB307:
 424:lufa-lib-svn/LUFA/Drivers/USB/Core/AVR8/../AVR8/../AVR8/Endpoint_AVR8.h **** 				return ((UEINTX & (1 << RWAL)) ? true : false);
 1477               		.loc 2 424 0
 1478 0038 8091 E800 		lds r24,232
 1479               	.LBE307:
 1480               	.LBE306:
  52:lufa-lib-svn/LUFA/Drivers/USB/Core/AVR8/Template/Template_Endpoint_RW.c **** 		if (!(Endpoint_IsReadWriteAllowed()))
 1481               		.loc 3 52 0
 1482 003c 85FD      		sbrc r24,5
 1483 003e 00C0      		rjmp .L103
 1484               	.LBB308:
 1485               	.LBB309:
 520:lufa-lib-svn/LUFA/Drivers/USB/Core/AVR8/../AVR8/../AVR8/Endpoint_AVR8.h **** 					UEINTX &= ~((1 << TXINI) | (1 << FIFOCON));
 1486               		.loc 2 520 0
 1487 0040 8091 E800 		lds r24,232
 1488 0044 8E77      		andi r24,lo8(126)
 1489 0046 8093 E800 		sts 232,r24
 1490               	.LBE309:
 1491               	.LBE308:
  60:lufa-lib-svn/LUFA/Drivers/USB/Core/AVR8/Template/Template_Endpoint_RW.c **** 			if (BytesProcessed != NULL)
 1492               		.loc 3 60 0
 1493 004a 2097      		sbiw r28,0
 1494 004c 01F0      		breq .L104
  62:lufa-lib-svn/LUFA/Drivers/USB/Core/AVR8/Template/Template_Endpoint_RW.c **** 				*BytesProcessed += BytesInTransfer;
 1495               		.loc 3 62 0
 1496 004e 8881      		ld r24,Y
 1497 0050 9981      		ldd r25,Y+1
 1498 0052 8C0D      		add r24,r12
 1499 0054 9D1D      		adc r25,r13
 1500 0056 9983      		std Y+1,r25
 1501 0058 8883      		st Y,r24
  63:lufa-lib-svn/LUFA/Drivers/USB/Core/AVR8/Template/Template_Endpoint_RW.c **** 				return ENDPOINT_RWSTREAM_IncompleteTransfer;
 1502               		.loc 3 63 0
 1503 005a E5E0      		ldi r30,lo8(5)
 1504 005c BE2E      		mov r11,r30
 1505 005e 00C0      		rjmp .L100
 1506               	.L104:
  66:lufa-lib-svn/LUFA/Drivers/USB/Core/AVR8/Template/Template_Endpoint_RW.c **** 			if ((ErrorCode = Endpoint_WaitUntilReady()))
 1507               		.loc 3 66 0
 1508 0060 0E94 0000 		call Endpoint_WaitUntilReady
 1509               	.LVL147:
 1510 0064 8823      		tst r24
 1511 0066 01F0      		breq .L109
 1512 0068 00C0      		rjmp .L108
 1513               	.LVL148:
 1514               	.L103:
  71:lufa-lib-svn/LUFA/Drivers/USB/Core/AVR8/Template/Template_Endpoint_RW.c **** 			TEMPLATE_TRANSFER_BYTE(DataStream);
 1515               		.loc 3 71 0
 1516 006a C701      		movw r24,r14
 1517 006c 0E94 0000 		call __eerd_byte_m32u4
 1518               	.LVL149:
 1519               	.LBB310:
 1520               	.LBB311:
 628:lufa-lib-svn/LUFA/Drivers/USB/Core/AVR8/../AVR8/../AVR8/Endpoint_AVR8.h **** 				UEDATX = Data;
 1521               		.loc 2 628 0
 1522 0070 8093 F100 		sts 241,r24
 1523               	.LBE311:
 1524               	.LBE310:
  72:lufa-lib-svn/LUFA/Drivers/USB/Core/AVR8/Template/Template_Endpoint_RW.c **** 			TEMPLATE_BUFFER_MOVE(DataStream, 1);
 1525               		.loc 3 72 0
 1526 0074 8FEF      		ldi r24,-1
 1527 0076 E81A      		sub r14,r24
 1528 0078 F80A      		sbc r15,r24
 1529               	.LVL150:
  73:lufa-lib-svn/LUFA/Drivers/USB/Core/AVR8/Template/Template_Endpoint_RW.c **** 			Length--;
 1530               		.loc 3 73 0
 1531 007a 0150      		subi r16,1
 1532 007c 1109      		sbc r17,__zero_reg__
 1533               	.LVL151:
  74:lufa-lib-svn/LUFA/Drivers/USB/Core/AVR8/Template/Template_Endpoint_RW.c **** 			BytesInTransfer++;
 1534               		.loc 3 74 0
 1535 007e 8FEF      		ldi r24,-1
 1536 0080 C81A      		sub r12,r24
 1537 0082 D80A      		sbc r13,r24
 1538               	.LVL152:
 1539               	.L109:
  50:lufa-lib-svn/LUFA/Drivers/USB/Core/AVR8/Template/Template_Endpoint_RW.c **** 	while (Length)
 1540               		.loc 3 50 0 discriminator 1
 1541 0084 0115      		cp r16,__zero_reg__
 1542 0086 1105      		cpc r17,__zero_reg__
 1543 0088 01F4      		brne .L106
 1544 008a 00C0      		rjmp .L100
 1545               	.LVL153:
 1546               	.L108:
  66:lufa-lib-svn/LUFA/Drivers/USB/Core/AVR8/Template/Template_Endpoint_RW.c **** 			if ((ErrorCode = Endpoint_WaitUntilReady()))
 1547               		.loc 3 66 0
 1548 008c B82E      		mov r11,r24
 1549               	.LVL154:
 1550               	.L100:
 1551               		.loc 3 79 0
 1552 008e 8B2D      		mov r24,r11
 1553               	/* epilogue start */
 1554 0090 DF91      		pop r29
 1555 0092 CF91      		pop r28
 1556               	.LVL155:
 1557 0094 1F91      		pop r17
 1558 0096 0F91      		pop r16
 1559               	.LVL156:
 1560 0098 FF90      		pop r15
 1561 009a EF90      		pop r14
 1562               	.LVL157:
 1563 009c DF90      		pop r13
 1564 009e CF90      		pop r12
 1565 00a0 BF90      		pop r11
 1566 00a2 0895      		ret
 1567               		.cfi_endproc
 1568               	.LFE92:
 1570               		.section	.text.Endpoint_Write_EStream_BE,"ax",@progbits
 1571               	.global	Endpoint_Write_EStream_BE
 1573               	Endpoint_Write_EStream_BE:
 1574               	.LFB93:
  36:lufa-lib-svn/LUFA/Drivers/USB/Core/AVR8/Template/Template_Endpoint_RW.c **** {
 1575               		.loc 3 36 0
 1576               		.cfi_startproc
 1577               	.LVL158:
 1578 0000 BF92      		push r11
 1579               	.LCFI77:
 1580               		.cfi_def_cfa_offset 3
 1581               		.cfi_offset 11, -2
 1582 0002 CF92      		push r12
 1583               	.LCFI78:
 1584               		.cfi_def_cfa_offset 4
 1585               		.cfi_offset 12, -3
 1586 0004 DF92      		push r13
 1587               	.LCFI79:
 1588               		.cfi_def_cfa_offset 5
 1589               		.cfi_offset 13, -4
 1590 0006 EF92      		push r14
 1591               	.LCFI80:
 1592               		.cfi_def_cfa_offset 6
 1593               		.cfi_offset 14, -5
 1594 0008 FF92      		push r15
 1595               	.LCFI81:
 1596               		.cfi_def_cfa_offset 7
 1597               		.cfi_offset 15, -6
 1598 000a 0F93      		push r16
 1599               	.LCFI82:
 1600               		.cfi_def_cfa_offset 8
 1601               		.cfi_offset 16, -7
 1602 000c 1F93      		push r17
 1603               	.LCFI83:
 1604               		.cfi_def_cfa_offset 9
 1605               		.cfi_offset 17, -8
 1606 000e CF93      		push r28
 1607               	.LCFI84:
 1608               		.cfi_def_cfa_offset 10
 1609               		.cfi_offset 28, -9
 1610 0010 DF93      		push r29
 1611               	.LCFI85:
 1612               		.cfi_def_cfa_offset 11
 1613               		.cfi_offset 29, -10
 1614               	/* prologue: function */
 1615               	/* frame size = 0 */
 1616               	/* stack size = 9 */
 1617               	.L__stack_usage = 9
 1618 0012 6C01      		movw r12,r24
 1619 0014 8B01      		movw r16,r22
 1620 0016 7A01      		movw r14,r20
 1621               	.LVL159:
  41:lufa-lib-svn/LUFA/Drivers/USB/Core/AVR8/Template/Template_Endpoint_RW.c **** 	if ((ErrorCode = Endpoint_WaitUntilReady()))
 1622               		.loc 3 41 0
 1623 0018 0E94 0000 		call Endpoint_WaitUntilReady
 1624               	.LVL160:
 1625 001c B82E      		mov r11,r24
 1626               	.LVL161:
 1627 001e 8111      		cpse r24,__zero_reg__
 1628 0020 00C0      		rjmp .L111
  37:lufa-lib-svn/LUFA/Drivers/USB/Core/AVR8/Template/Template_Endpoint_RW.c **** 	uint8_t* DataStream      = ((uint8_t*)Buffer + TEMPLATE_BUFFER_OFFSET(Length));
 1629               		.loc 3 37 0
 1630 0022 E801      		movw r28,r16
 1631 0024 2197      		sbiw r28,1
 1632               	.LVL162:
 1633 0026 CC0D      		add r28,r12
 1634 0028 DD1D      		adc r29,r13
 1635               	.LVL163:
  44:lufa-lib-svn/LUFA/Drivers/USB/Core/AVR8/Template/Template_Endpoint_RW.c **** 	if (BytesProcessed != NULL)
 1636               		.loc 3 44 0
 1637 002a E114      		cp r14,__zero_reg__
 1638 002c F104      		cpc r15,__zero_reg__
 1639 002e 01F0      		breq .L112
  46:lufa-lib-svn/LUFA/Drivers/USB/Core/AVR8/Template/Template_Endpoint_RW.c **** 		Length -= *BytesProcessed;
 1640               		.loc 3 46 0
 1641 0030 F701      		movw r30,r14
 1642 0032 2081      		ld r18,Z
 1643 0034 3181      		ldd r19,Z+1
 1644 0036 021B      		sub r16,r18
 1645 0038 130B      		sbc r17,r19
 1646               	.LVL164:
  47:lufa-lib-svn/LUFA/Drivers/USB/Core/AVR8/Template/Template_Endpoint_RW.c **** 		TEMPLATE_BUFFER_MOVE(DataStream, *BytesProcessed);
 1647               		.loc 3 47 0
 1648 003a C21B      		sub r28,r18
 1649 003c D30B      		sbc r29,r19
 1650               	.LVL165:
 1651               	.L112:
  36:lufa-lib-svn/LUFA/Drivers/USB/Core/AVR8/Template/Template_Endpoint_RW.c **** {
 1652               		.loc 3 36 0 discriminator 1
 1653 003e C12C      		mov r12,__zero_reg__
 1654 0040 D12C      		mov r13,__zero_reg__
 1655               	.LVL166:
 1656 0042 00C0      		rjmp .L122
 1657               	.LVL167:
 1658               	.L117:
 1659               	.LBB312:
 1660               	.LBB313:
 424:lufa-lib-svn/LUFA/Drivers/USB/Core/AVR8/../AVR8/../AVR8/Endpoint_AVR8.h **** 				return ((UEINTX & (1 << RWAL)) ? true : false);
 1661               		.loc 2 424 0
 1662 0044 8091 E800 		lds r24,232
 1663               	.LBE313:
 1664               	.LBE312:
  52:lufa-lib-svn/LUFA/Drivers/USB/Core/AVR8/Template/Template_Endpoint_RW.c **** 		if (!(Endpoint_IsReadWriteAllowed()))
 1665               		.loc 3 52 0
 1666 0048 85FD      		sbrc r24,5
 1667 004a 00C0      		rjmp .L114
 1668               	.LBB314:
 1669               	.LBB315:
 520:lufa-lib-svn/LUFA/Drivers/USB/Core/AVR8/../AVR8/../AVR8/Endpoint_AVR8.h **** 					UEINTX &= ~((1 << TXINI) | (1 << FIFOCON));
 1670               		.loc 2 520 0
 1671 004c 8091 E800 		lds r24,232
 1672 0050 8E77      		andi r24,lo8(126)
 1673 0052 8093 E800 		sts 232,r24
 1674               	.LBE315:
 1675               	.LBE314:
  60:lufa-lib-svn/LUFA/Drivers/USB/Core/AVR8/Template/Template_Endpoint_RW.c **** 			if (BytesProcessed != NULL)
 1676               		.loc 3 60 0
 1677 0056 E114      		cp r14,__zero_reg__
 1678 0058 F104      		cpc r15,__zero_reg__
 1679 005a 01F0      		breq .L115
  62:lufa-lib-svn/LUFA/Drivers/USB/Core/AVR8/Template/Template_Endpoint_RW.c **** 				*BytesProcessed += BytesInTransfer;
 1680               		.loc 3 62 0
 1681 005c F701      		movw r30,r14
 1682 005e 8081      		ld r24,Z
 1683 0060 9181      		ldd r25,Z+1
 1684 0062 8C0D      		add r24,r12
 1685 0064 9D1D      		adc r25,r13
 1686 0066 9183      		std Z+1,r25
 1687 0068 8083      		st Z,r24
  63:lufa-lib-svn/LUFA/Drivers/USB/Core/AVR8/Template/Template_Endpoint_RW.c **** 				return ENDPOINT_RWSTREAM_IncompleteTransfer;
 1688               		.loc 3 63 0
 1689 006a F5E0      		ldi r31,lo8(5)
 1690 006c BF2E      		mov r11,r31
 1691 006e 00C0      		rjmp .L111
 1692               	.L115:
  66:lufa-lib-svn/LUFA/Drivers/USB/Core/AVR8/Template/Template_Endpoint_RW.c **** 			if ((ErrorCode = Endpoint_WaitUntilReady()))
 1693               		.loc 3 66 0
 1694 0070 0E94 0000 		call Endpoint_WaitUntilReady
 1695               	.LVL168:
 1696 0074 8823      		tst r24
 1697 0076 01F0      		breq .L122
 1698 0078 00C0      		rjmp .L118
 1699               	.LVL169:
 1700               	.L114:
  71:lufa-lib-svn/LUFA/Drivers/USB/Core/AVR8/Template/Template_Endpoint_RW.c **** 			TEMPLATE_TRANSFER_BYTE(DataStream);
 1701               		.loc 3 71 0
 1702 007a CE01      		movw r24,r28
 1703 007c 0E94 0000 		call __eerd_byte_m32u4
 1704               	.LVL170:
 1705               	.LBB316:
 1706               	.LBB317:
 628:lufa-lib-svn/LUFA/Drivers/USB/Core/AVR8/../AVR8/../AVR8/Endpoint_AVR8.h **** 				UEDATX = Data;
 1707               		.loc 2 628 0
 1708 0080 8093 F100 		sts 241,r24
 1709               	.LBE317:
 1710               	.LBE316:
  72:lufa-lib-svn/LUFA/Drivers/USB/Core/AVR8/Template/Template_Endpoint_RW.c **** 			TEMPLATE_BUFFER_MOVE(DataStream, 1);
 1711               		.loc 3 72 0
 1712 0084 2197      		sbiw r28,1
 1713               	.LVL171:
  73:lufa-lib-svn/LUFA/Drivers/USB/Core/AVR8/Template/Template_Endpoint_RW.c **** 			Length--;
 1714               		.loc 3 73 0
 1715 0086 0150      		subi r16,1
 1716 0088 1109      		sbc r17,__zero_reg__
 1717               	.LVL172:
  74:lufa-lib-svn/LUFA/Drivers/USB/Core/AVR8/Template/Template_Endpoint_RW.c **** 			BytesInTransfer++;
 1718               		.loc 3 74 0
 1719 008a FFEF      		ldi r31,-1
 1720 008c CF1A      		sub r12,r31
 1721 008e DF0A      		sbc r13,r31
 1722               	.LVL173:
 1723               	.L122:
  50:lufa-lib-svn/LUFA/Drivers/USB/Core/AVR8/Template/Template_Endpoint_RW.c **** 	while (Length)
 1724               		.loc 3 50 0 discriminator 1
 1725 0090 0115      		cp r16,__zero_reg__
 1726 0092 1105      		cpc r17,__zero_reg__
 1727 0094 01F4      		brne .L117
 1728 0096 00C0      		rjmp .L111
 1729               	.LVL174:
 1730               	.L118:
  66:lufa-lib-svn/LUFA/Drivers/USB/Core/AVR8/Template/Template_Endpoint_RW.c **** 			if ((ErrorCode = Endpoint_WaitUntilReady()))
 1731               		.loc 3 66 0
 1732 0098 B82E      		mov r11,r24
 1733               	.LVL175:
 1734               	.L111:
 1735               		.loc 3 79 0
 1736 009a 8B2D      		mov r24,r11
 1737               	/* epilogue start */
 1738 009c DF91      		pop r29
 1739 009e CF91      		pop r28
 1740 00a0 1F91      		pop r17
 1741 00a2 0F91      		pop r16
 1742               	.LVL176:
 1743 00a4 FF90      		pop r15
 1744 00a6 EF90      		pop r14
 1745               	.LVL177:
 1746 00a8 DF90      		pop r13
 1747 00aa CF90      		pop r12
 1748 00ac BF90      		pop r11
 1749 00ae 0895      		ret
 1750               		.cfi_endproc
 1751               	.LFE93:
 1753               		.section	.text.Endpoint_Read_EStream_LE,"ax",@progbits
 1754               	.global	Endpoint_Read_EStream_LE
 1756               	Endpoint_Read_EStream_LE:
 1757               	.LFB94:
  36:lufa-lib-svn/LUFA/Drivers/USB/Core/AVR8/Template/Template_Endpoint_RW.c **** {
 1758               		.loc 3 36 0
 1759               		.cfi_startproc
 1760               	.LVL178:
 1761 0000 BF92      		push r11
 1762               	.LCFI86:
 1763               		.cfi_def_cfa_offset 3
 1764               		.cfi_offset 11, -2
 1765 0002 CF92      		push r12
 1766               	.LCFI87:
 1767               		.cfi_def_cfa_offset 4
 1768               		.cfi_offset 12, -3
 1769 0004 DF92      		push r13
 1770               	.LCFI88:
 1771               		.cfi_def_cfa_offset 5
 1772               		.cfi_offset 13, -4
 1773 0006 EF92      		push r14
 1774               	.LCFI89:
 1775               		.cfi_def_cfa_offset 6
 1776               		.cfi_offset 14, -5
 1777 0008 FF92      		push r15
 1778               	.LCFI90:
 1779               		.cfi_def_cfa_offset 7
 1780               		.cfi_offset 15, -6
 1781 000a 0F93      		push r16
 1782               	.LCFI91:
 1783               		.cfi_def_cfa_offset 8
 1784               		.cfi_offset 16, -7
 1785 000c 1F93      		push r17
 1786               	.LCFI92:
 1787               		.cfi_def_cfa_offset 9
 1788               		.cfi_offset 17, -8
 1789 000e CF93      		push r28
 1790               	.LCFI93:
 1791               		.cfi_def_cfa_offset 10
 1792               		.cfi_offset 28, -9
 1793 0010 DF93      		push r29
 1794               	.LCFI94:
 1795               		.cfi_def_cfa_offset 11
 1796               		.cfi_offset 29, -10
 1797               	/* prologue: function */
 1798               	/* frame size = 0 */
 1799               	/* stack size = 9 */
 1800               	.L__stack_usage = 9
 1801 0012 7C01      		movw r14,r24
 1802 0014 EB01      		movw r28,r22
 1803 0016 8A01      		movw r16,r20
 1804               	.LVL179:
  41:lufa-lib-svn/LUFA/Drivers/USB/Core/AVR8/Template/Template_Endpoint_RW.c **** 	if ((ErrorCode = Endpoint_WaitUntilReady()))
 1805               		.loc 3 41 0
 1806 0018 0E94 0000 		call Endpoint_WaitUntilReady
 1807               	.LVL180:
 1808 001c B82E      		mov r11,r24
 1809               	.LVL181:
 1810 001e 8111      		cpse r24,__zero_reg__
 1811 0020 00C0      		rjmp .L124
  44:lufa-lib-svn/LUFA/Drivers/USB/Core/AVR8/Template/Template_Endpoint_RW.c **** 	if (BytesProcessed != NULL)
 1812               		.loc 3 44 0
 1813 0022 0115      		cp r16,__zero_reg__
 1814 0024 1105      		cpc r17,__zero_reg__
 1815 0026 01F0      		breq .L125
  46:lufa-lib-svn/LUFA/Drivers/USB/Core/AVR8/Template/Template_Endpoint_RW.c **** 		Length -= *BytesProcessed;
 1816               		.loc 3 46 0
 1817 0028 F801      		movw r30,r16
 1818 002a 2081      		ld r18,Z
 1819 002c 3181      		ldd r19,Z+1
 1820 002e C21B      		sub r28,r18
 1821 0030 D30B      		sbc r29,r19
 1822               	.LVL182:
  47:lufa-lib-svn/LUFA/Drivers/USB/Core/AVR8/Template/Template_Endpoint_RW.c **** 		TEMPLATE_BUFFER_MOVE(DataStream, *BytesProcessed);
 1823               		.loc 3 47 0
 1824 0032 E20E      		add r14,r18
 1825 0034 F31E      		adc r15,r19
 1826               	.LVL183:
 1827               	.L125:
  37:lufa-lib-svn/LUFA/Drivers/USB/Core/AVR8/Template/Template_Endpoint_RW.c **** 	uint8_t* DataStream      = ((uint8_t*)Buffer + TEMPLATE_BUFFER_OFFSET(Length));
 1828               		.loc 3 37 0 discriminator 1
 1829 0036 C12C      		mov r12,__zero_reg__
 1830 0038 D12C      		mov r13,__zero_reg__
 1831 003a 00C0      		rjmp .L133
 1832               	.LVL184:
 1833               	.L130:
 1834               	.LBB318:
 1835               	.LBB319:
 424:lufa-lib-svn/LUFA/Drivers/USB/Core/AVR8/../AVR8/../AVR8/Endpoint_AVR8.h **** 				return ((UEINTX & (1 << RWAL)) ? true : false);
 1836               		.loc 2 424 0
 1837 003c 8091 E800 		lds r24,232
 1838               	.LBE319:
 1839               	.LBE318:
  52:lufa-lib-svn/LUFA/Drivers/USB/Core/AVR8/Template/Template_Endpoint_RW.c **** 		if (!(Endpoint_IsReadWriteAllowed()))
 1840               		.loc 3 52 0
 1841 0040 85FD      		sbrc r24,5
 1842 0042 00C0      		rjmp .L127
 1843               	.LBB320:
 1844               	.LBB321:
 535:lufa-lib-svn/LUFA/Drivers/USB/Core/AVR8/../AVR8/../AVR8/Endpoint_AVR8.h **** 					UEINTX &= ~((1 << RXOUTI) | (1 << FIFOCON));
 1845               		.loc 2 535 0
 1846 0044 8091 E800 		lds r24,232
 1847 0048 8B77      		andi r24,lo8(123)
 1848 004a 8093 E800 		sts 232,r24
 1849               	.LBE321:
 1850               	.LBE320:
  60:lufa-lib-svn/LUFA/Drivers/USB/Core/AVR8/Template/Template_Endpoint_RW.c **** 			if (BytesProcessed != NULL)
 1851               		.loc 3 60 0
 1852 004e 0115      		cp r16,__zero_reg__
 1853 0050 1105      		cpc r17,__zero_reg__
 1854 0052 01F0      		breq .L128
  62:lufa-lib-svn/LUFA/Drivers/USB/Core/AVR8/Template/Template_Endpoint_RW.c **** 				*BytesProcessed += BytesInTransfer;
 1855               		.loc 3 62 0
 1856 0054 F801      		movw r30,r16
 1857 0056 8081      		ld r24,Z
 1858 0058 9181      		ldd r25,Z+1
 1859 005a 8C0D      		add r24,r12
 1860 005c 9D1D      		adc r25,r13
 1861 005e 9183      		std Z+1,r25
 1862 0060 8083      		st Z,r24
  63:lufa-lib-svn/LUFA/Drivers/USB/Core/AVR8/Template/Template_Endpoint_RW.c **** 				return ENDPOINT_RWSTREAM_IncompleteTransfer;
 1863               		.loc 3 63 0
 1864 0062 A5E0      		ldi r26,lo8(5)
 1865 0064 BA2E      		mov r11,r26
 1866 0066 00C0      		rjmp .L124
 1867               	.L128:
  66:lufa-lib-svn/LUFA/Drivers/USB/Core/AVR8/Template/Template_Endpoint_RW.c **** 			if ((ErrorCode = Endpoint_WaitUntilReady()))
 1868               		.loc 3 66 0
 1869 0068 0E94 0000 		call Endpoint_WaitUntilReady
 1870               	.LVL185:
 1871 006c 8823      		tst r24
 1872 006e 01F0      		breq .L133
 1873 0070 00C0      		rjmp .L132
 1874               	.LVL186:
 1875               	.L127:
 1876               	.LBB322:
 1877               	.LBB323:
 616:lufa-lib-svn/LUFA/Drivers/USB/Core/AVR8/../AVR8/../AVR8/Endpoint_AVR8.h **** 				return UEDATX;
 1878               		.loc 2 616 0
 1879 0072 6091 F100 		lds r22,241
 1880               	.LBE323:
 1881               	.LBE322:
  71:lufa-lib-svn/LUFA/Drivers/USB/Core/AVR8/Template/Template_Endpoint_RW.c **** 			TEMPLATE_TRANSFER_BYTE(DataStream);
 1882               		.loc 3 71 0
 1883 0076 C701      		movw r24,r14
 1884 0078 0E94 0000 		call __eeupd_byte_m32u4
 1885               	.LVL187:
  72:lufa-lib-svn/LUFA/Drivers/USB/Core/AVR8/Template/Template_Endpoint_RW.c **** 			TEMPLATE_BUFFER_MOVE(DataStream, 1);
 1886               		.loc 3 72 0
 1887 007c FFEF      		ldi r31,-1
 1888 007e EF1A      		sub r14,r31
 1889 0080 FF0A      		sbc r15,r31
 1890               	.LVL188:
  73:lufa-lib-svn/LUFA/Drivers/USB/Core/AVR8/Template/Template_Endpoint_RW.c **** 			Length--;
 1891               		.loc 3 73 0
 1892 0082 2197      		sbiw r28,1
 1893               	.LVL189:
  74:lufa-lib-svn/LUFA/Drivers/USB/Core/AVR8/Template/Template_Endpoint_RW.c **** 			BytesInTransfer++;
 1894               		.loc 3 74 0
 1895 0084 8FEF      		ldi r24,-1
 1896 0086 C81A      		sub r12,r24
 1897 0088 D80A      		sbc r13,r24
 1898               	.LVL190:
 1899               	.L133:
  50:lufa-lib-svn/LUFA/Drivers/USB/Core/AVR8/Template/Template_Endpoint_RW.c **** 	while (Length)
 1900               		.loc 3 50 0 discriminator 1
 1901 008a 2097      		sbiw r28,0
 1902 008c 01F4      		brne .L130
 1903 008e 00C0      		rjmp .L124
 1904               	.LVL191:
 1905               	.L132:
  66:lufa-lib-svn/LUFA/Drivers/USB/Core/AVR8/Template/Template_Endpoint_RW.c **** 			if ((ErrorCode = Endpoint_WaitUntilReady()))
 1906               		.loc 3 66 0
 1907 0090 B82E      		mov r11,r24
 1908               	.LVL192:
 1909               	.L124:
 1910               		.loc 3 79 0
 1911 0092 8B2D      		mov r24,r11
 1912               	/* epilogue start */
 1913 0094 DF91      		pop r29
 1914 0096 CF91      		pop r28
 1915               	.LVL193:
 1916 0098 1F91      		pop r17
 1917 009a 0F91      		pop r16
 1918               	.LVL194:
 1919 009c FF90      		pop r15
 1920 009e EF90      		pop r14
 1921               	.LVL195:
 1922 00a0 DF90      		pop r13
 1923 00a2 CF90      		pop r12
 1924 00a4 BF90      		pop r11
 1925 00a6 0895      		ret
 1926               		.cfi_endproc
 1927               	.LFE94:
 1929               		.section	.text.Endpoint_Read_EStream_BE,"ax",@progbits
 1930               	.global	Endpoint_Read_EStream_BE
 1932               	Endpoint_Read_EStream_BE:
 1933               	.LFB95:
  36:lufa-lib-svn/LUFA/Drivers/USB/Core/AVR8/Template/Template_Endpoint_RW.c **** {
 1934               		.loc 3 36 0
 1935               		.cfi_startproc
 1936               	.LVL196:
 1937 0000 BF92      		push r11
 1938               	.LCFI95:
 1939               		.cfi_def_cfa_offset 3
 1940               		.cfi_offset 11, -2
 1941 0002 CF92      		push r12
 1942               	.LCFI96:
 1943               		.cfi_def_cfa_offset 4
 1944               		.cfi_offset 12, -3
 1945 0004 DF92      		push r13
 1946               	.LCFI97:
 1947               		.cfi_def_cfa_offset 5
 1948               		.cfi_offset 13, -4
 1949 0006 EF92      		push r14
 1950               	.LCFI98:
 1951               		.cfi_def_cfa_offset 6
 1952               		.cfi_offset 14, -5
 1953 0008 FF92      		push r15
 1954               	.LCFI99:
 1955               		.cfi_def_cfa_offset 7
 1956               		.cfi_offset 15, -6
 1957 000a 0F93      		push r16
 1958               	.LCFI100:
 1959               		.cfi_def_cfa_offset 8
 1960               		.cfi_offset 16, -7
 1961 000c 1F93      		push r17
 1962               	.LCFI101:
 1963               		.cfi_def_cfa_offset 9
 1964               		.cfi_offset 17, -8
 1965 000e CF93      		push r28
 1966               	.LCFI102:
 1967               		.cfi_def_cfa_offset 10
 1968               		.cfi_offset 28, -9
 1969 0010 DF93      		push r29
 1970               	.LCFI103:
 1971               		.cfi_def_cfa_offset 11
 1972               		.cfi_offset 29, -10
 1973               	/* prologue: function */
 1974               	/* frame size = 0 */
 1975               	/* stack size = 9 */
 1976               	.L__stack_usage = 9
 1977 0012 6C01      		movw r12,r24
 1978 0014 8B01      		movw r16,r22
 1979 0016 7A01      		movw r14,r20
 1980               	.LVL197:
  41:lufa-lib-svn/LUFA/Drivers/USB/Core/AVR8/Template/Template_Endpoint_RW.c **** 	if ((ErrorCode = Endpoint_WaitUntilReady()))
 1981               		.loc 3 41 0
 1982 0018 0E94 0000 		call Endpoint_WaitUntilReady
 1983               	.LVL198:
 1984 001c B82E      		mov r11,r24
 1985               	.LVL199:
 1986 001e 8111      		cpse r24,__zero_reg__
 1987 0020 00C0      		rjmp .L135
  37:lufa-lib-svn/LUFA/Drivers/USB/Core/AVR8/Template/Template_Endpoint_RW.c **** 	uint8_t* DataStream      = ((uint8_t*)Buffer + TEMPLATE_BUFFER_OFFSET(Length));
 1988               		.loc 3 37 0
 1989 0022 E801      		movw r28,r16
 1990 0024 2197      		sbiw r28,1
 1991               	.LVL200:
 1992 0026 CC0D      		add r28,r12
 1993 0028 DD1D      		adc r29,r13
 1994               	.LVL201:
  44:lufa-lib-svn/LUFA/Drivers/USB/Core/AVR8/Template/Template_Endpoint_RW.c **** 	if (BytesProcessed != NULL)
 1995               		.loc 3 44 0
 1996 002a E114      		cp r14,__zero_reg__
 1997 002c F104      		cpc r15,__zero_reg__
 1998 002e 01F0      		breq .L136
  46:lufa-lib-svn/LUFA/Drivers/USB/Core/AVR8/Template/Template_Endpoint_RW.c **** 		Length -= *BytesProcessed;
 1999               		.loc 3 46 0
 2000 0030 F701      		movw r30,r14
 2001 0032 2081      		ld r18,Z
 2002 0034 3181      		ldd r19,Z+1
 2003 0036 021B      		sub r16,r18
 2004 0038 130B      		sbc r17,r19
 2005               	.LVL202:
  47:lufa-lib-svn/LUFA/Drivers/USB/Core/AVR8/Template/Template_Endpoint_RW.c **** 		TEMPLATE_BUFFER_MOVE(DataStream, *BytesProcessed);
 2006               		.loc 3 47 0
 2007 003a C21B      		sub r28,r18
 2008 003c D30B      		sbc r29,r19
 2009               	.LVL203:
 2010               	.L136:
  36:lufa-lib-svn/LUFA/Drivers/USB/Core/AVR8/Template/Template_Endpoint_RW.c **** {
 2011               		.loc 3 36 0 discriminator 1
 2012 003e C12C      		mov r12,__zero_reg__
 2013 0040 D12C      		mov r13,__zero_reg__
 2014               	.LVL204:
 2015 0042 00C0      		rjmp .L146
 2016               	.LVL205:
 2017               	.L141:
 2018               	.LBB324:
 2019               	.LBB325:
 424:lufa-lib-svn/LUFA/Drivers/USB/Core/AVR8/../AVR8/../AVR8/Endpoint_AVR8.h **** 				return ((UEINTX & (1 << RWAL)) ? true : false);
 2020               		.loc 2 424 0
 2021 0044 8091 E800 		lds r24,232
 2022               	.LBE325:
 2023               	.LBE324:
  52:lufa-lib-svn/LUFA/Drivers/USB/Core/AVR8/Template/Template_Endpoint_RW.c **** 		if (!(Endpoint_IsReadWriteAllowed()))
 2024               		.loc 3 52 0
 2025 0048 85FD      		sbrc r24,5
 2026 004a 00C0      		rjmp .L138
 2027               	.LBB326:
 2028               	.LBB327:
 535:lufa-lib-svn/LUFA/Drivers/USB/Core/AVR8/../AVR8/../AVR8/Endpoint_AVR8.h **** 					UEINTX &= ~((1 << RXOUTI) | (1 << FIFOCON));
 2029               		.loc 2 535 0
 2030 004c 8091 E800 		lds r24,232
 2031 0050 8B77      		andi r24,lo8(123)
 2032 0052 8093 E800 		sts 232,r24
 2033               	.LBE327:
 2034               	.LBE326:
  60:lufa-lib-svn/LUFA/Drivers/USB/Core/AVR8/Template/Template_Endpoint_RW.c **** 			if (BytesProcessed != NULL)
 2035               		.loc 3 60 0
 2036 0056 E114      		cp r14,__zero_reg__
 2037 0058 F104      		cpc r15,__zero_reg__
 2038 005a 01F0      		breq .L139
  62:lufa-lib-svn/LUFA/Drivers/USB/Core/AVR8/Template/Template_Endpoint_RW.c **** 				*BytesProcessed += BytesInTransfer;
 2039               		.loc 3 62 0
 2040 005c F701      		movw r30,r14
 2041 005e 8081      		ld r24,Z
 2042 0060 9181      		ldd r25,Z+1
 2043 0062 8C0D      		add r24,r12
 2044 0064 9D1D      		adc r25,r13
 2045 0066 9183      		std Z+1,r25
 2046 0068 8083      		st Z,r24
  63:lufa-lib-svn/LUFA/Drivers/USB/Core/AVR8/Template/Template_Endpoint_RW.c **** 				return ENDPOINT_RWSTREAM_IncompleteTransfer;
 2047               		.loc 3 63 0
 2048 006a B5E0      		ldi r27,lo8(5)
 2049 006c BB2E      		mov r11,r27
 2050 006e 00C0      		rjmp .L135
 2051               	.L139:
  66:lufa-lib-svn/LUFA/Drivers/USB/Core/AVR8/Template/Template_Endpoint_RW.c **** 			if ((ErrorCode = Endpoint_WaitUntilReady()))
 2052               		.loc 3 66 0
 2053 0070 0E94 0000 		call Endpoint_WaitUntilReady
 2054               	.LVL206:
 2055 0074 8823      		tst r24
 2056 0076 01F0      		breq .L146
 2057 0078 00C0      		rjmp .L142
 2058               	.LVL207:
 2059               	.L138:
 2060               	.LBB328:
 2061               	.LBB329:
 616:lufa-lib-svn/LUFA/Drivers/USB/Core/AVR8/../AVR8/../AVR8/Endpoint_AVR8.h **** 				return UEDATX;
 2062               		.loc 2 616 0
 2063 007a 6091 F100 		lds r22,241
 2064               	.LBE329:
 2065               	.LBE328:
  71:lufa-lib-svn/LUFA/Drivers/USB/Core/AVR8/Template/Template_Endpoint_RW.c **** 			TEMPLATE_TRANSFER_BYTE(DataStream);
 2066               		.loc 3 71 0
 2067 007e CE01      		movw r24,r28
 2068 0080 0E94 0000 		call __eeupd_byte_m32u4
 2069               	.LVL208:
  72:lufa-lib-svn/LUFA/Drivers/USB/Core/AVR8/Template/Template_Endpoint_RW.c **** 			TEMPLATE_BUFFER_MOVE(DataStream, 1);
 2070               		.loc 3 72 0
 2071 0084 2197      		sbiw r28,1
 2072               	.LVL209:
  73:lufa-lib-svn/LUFA/Drivers/USB/Core/AVR8/Template/Template_Endpoint_RW.c **** 			Length--;
 2073               		.loc 3 73 0
 2074 0086 0150      		subi r16,1
 2075 0088 1109      		sbc r17,__zero_reg__
 2076               	.LVL210:
  74:lufa-lib-svn/LUFA/Drivers/USB/Core/AVR8/Template/Template_Endpoint_RW.c **** 			BytesInTransfer++;
 2077               		.loc 3 74 0
 2078 008a FFEF      		ldi r31,-1
 2079 008c CF1A      		sub r12,r31
 2080 008e DF0A      		sbc r13,r31
 2081               	.LVL211:
 2082               	.L146:
  50:lufa-lib-svn/LUFA/Drivers/USB/Core/AVR8/Template/Template_Endpoint_RW.c **** 	while (Length)
 2083               		.loc 3 50 0 discriminator 1
 2084 0090 0115      		cp r16,__zero_reg__
 2085 0092 1105      		cpc r17,__zero_reg__
 2086 0094 01F4      		brne .L141
 2087 0096 00C0      		rjmp .L135
 2088               	.LVL212:
 2089               	.L142:
  66:lufa-lib-svn/LUFA/Drivers/USB/Core/AVR8/Template/Template_Endpoint_RW.c **** 			if ((ErrorCode = Endpoint_WaitUntilReady()))
 2090               		.loc 3 66 0
 2091 0098 B82E      		mov r11,r24
 2092               	.LVL213:
 2093               	.L135:
 2094               		.loc 3 79 0
 2095 009a 8B2D      		mov r24,r11
 2096               	/* epilogue start */
 2097 009c DF91      		pop r29
 2098 009e CF91      		pop r28
 2099 00a0 1F91      		pop r17
 2100 00a2 0F91      		pop r16
 2101               	.LVL214:
 2102 00a4 FF90      		pop r15
 2103 00a6 EF90      		pop r14
 2104               	.LVL215:
 2105 00a8 DF90      		pop r13
 2106 00aa CF90      		pop r12
 2107 00ac BF90      		pop r11
 2108 00ae 0895      		ret
 2109               		.cfi_endproc
 2110               	.LFE95:
 2112               		.section	.text.Endpoint_Write_Control_Stream_LE,"ax",@progbits
 2113               	.global	Endpoint_Write_Control_Stream_LE
 2115               	Endpoint_Write_Control_Stream_LE:
 2116               	.LFB96:
 2117               		.file 4 "lufa-lib-svn/LUFA/Drivers/USB/Core/AVR8/Template/Template_Endpoint_Control_W.c"
   1:lufa-lib-svn/LUFA/Drivers/USB/Core/AVR8/Template/Template_Endpoint_Control_W.c **** /*
   2:lufa-lib-svn/LUFA/Drivers/USB/Core/AVR8/Template/Template_Endpoint_Control_W.c ****              LUFA Library
   3:lufa-lib-svn/LUFA/Drivers/USB/Core/AVR8/Template/Template_Endpoint_Control_W.c ****      Copyright (C) Dean Camera, 2011.
   4:lufa-lib-svn/LUFA/Drivers/USB/Core/AVR8/Template/Template_Endpoint_Control_W.c **** 
   5:lufa-lib-svn/LUFA/Drivers/USB/Core/AVR8/Template/Template_Endpoint_Control_W.c ****   dean [at] fourwalledcubicle [dot] com
   6:lufa-lib-svn/LUFA/Drivers/USB/Core/AVR8/Template/Template_Endpoint_Control_W.c ****            www.lufa-lib.org
   7:lufa-lib-svn/LUFA/Drivers/USB/Core/AVR8/Template/Template_Endpoint_Control_W.c **** */
   8:lufa-lib-svn/LUFA/Drivers/USB/Core/AVR8/Template/Template_Endpoint_Control_W.c **** 
   9:lufa-lib-svn/LUFA/Drivers/USB/Core/AVR8/Template/Template_Endpoint_Control_W.c **** /*
  10:lufa-lib-svn/LUFA/Drivers/USB/Core/AVR8/Template/Template_Endpoint_Control_W.c ****   Copyright 2011  Dean Camera (dean [at] fourwalledcubicle [dot] com)
  11:lufa-lib-svn/LUFA/Drivers/USB/Core/AVR8/Template/Template_Endpoint_Control_W.c **** 
  12:lufa-lib-svn/LUFA/Drivers/USB/Core/AVR8/Template/Template_Endpoint_Control_W.c ****   Permission to use, copy, modify, distribute, and sell this
  13:lufa-lib-svn/LUFA/Drivers/USB/Core/AVR8/Template/Template_Endpoint_Control_W.c ****   software and its documentation for any purpose is hereby granted
  14:lufa-lib-svn/LUFA/Drivers/USB/Core/AVR8/Template/Template_Endpoint_Control_W.c ****   without fee, provided that the above copyright notice appear in
  15:lufa-lib-svn/LUFA/Drivers/USB/Core/AVR8/Template/Template_Endpoint_Control_W.c ****   all copies and that both that the copyright notice and this
  16:lufa-lib-svn/LUFA/Drivers/USB/Core/AVR8/Template/Template_Endpoint_Control_W.c ****   permission notice and warranty disclaimer appear in supporting
  17:lufa-lib-svn/LUFA/Drivers/USB/Core/AVR8/Template/Template_Endpoint_Control_W.c ****   documentation, and that the name of the author not be used in
  18:lufa-lib-svn/LUFA/Drivers/USB/Core/AVR8/Template/Template_Endpoint_Control_W.c ****   advertising or publicity pertaining to distribution of the
  19:lufa-lib-svn/LUFA/Drivers/USB/Core/AVR8/Template/Template_Endpoint_Control_W.c ****   software without specific, written prior permission.
  20:lufa-lib-svn/LUFA/Drivers/USB/Core/AVR8/Template/Template_Endpoint_Control_W.c **** 
  21:lufa-lib-svn/LUFA/Drivers/USB/Core/AVR8/Template/Template_Endpoint_Control_W.c ****   The author disclaim all warranties with regard to this
  22:lufa-lib-svn/LUFA/Drivers/USB/Core/AVR8/Template/Template_Endpoint_Control_W.c ****   software, including all implied warranties of merchantability
  23:lufa-lib-svn/LUFA/Drivers/USB/Core/AVR8/Template/Template_Endpoint_Control_W.c ****   and fitness.  In no event shall the author be liable for any
  24:lufa-lib-svn/LUFA/Drivers/USB/Core/AVR8/Template/Template_Endpoint_Control_W.c ****   special, indirect or consequential damages or any damages
  25:lufa-lib-svn/LUFA/Drivers/USB/Core/AVR8/Template/Template_Endpoint_Control_W.c ****   whatsoever resulting from loss of use, data or profits, whether
  26:lufa-lib-svn/LUFA/Drivers/USB/Core/AVR8/Template/Template_Endpoint_Control_W.c ****   in an action of contract, negligence or other tortious action,
  27:lufa-lib-svn/LUFA/Drivers/USB/Core/AVR8/Template/Template_Endpoint_Control_W.c ****   arising out of or in connection with the use or performance of
  28:lufa-lib-svn/LUFA/Drivers/USB/Core/AVR8/Template/Template_Endpoint_Control_W.c ****   this software.
  29:lufa-lib-svn/LUFA/Drivers/USB/Core/AVR8/Template/Template_Endpoint_Control_W.c **** */
  30:lufa-lib-svn/LUFA/Drivers/USB/Core/AVR8/Template/Template_Endpoint_Control_W.c **** 
  31:lufa-lib-svn/LUFA/Drivers/USB/Core/AVR8/Template/Template_Endpoint_Control_W.c **** #if defined(TEMPLATE_FUNC_NAME)
  32:lufa-lib-svn/LUFA/Drivers/USB/Core/AVR8/Template/Template_Endpoint_Control_W.c **** 
  33:lufa-lib-svn/LUFA/Drivers/USB/Core/AVR8/Template/Template_Endpoint_Control_W.c **** uint8_t TEMPLATE_FUNC_NAME (const void* const Buffer,
  34:lufa-lib-svn/LUFA/Drivers/USB/Core/AVR8/Template/Template_Endpoint_Control_W.c ****                             uint16_t Length)
  35:lufa-lib-svn/LUFA/Drivers/USB/Core/AVR8/Template/Template_Endpoint_Control_W.c **** {
 2118               		.loc 4 35 0
 2119               		.cfi_startproc
 2120               	.LVL216:
 2121               	/* prologue: function */
 2122               	/* frame size = 0 */
 2123               	/* stack size = 0 */
 2124               	.L__stack_usage = 0
  36:lufa-lib-svn/LUFA/Drivers/USB/Core/AVR8/Template/Template_Endpoint_Control_W.c **** 	uint8_t* DataStream     = ((uint8_t*)Buffer + TEMPLATE_BUFFER_OFFSET(Length));
  37:lufa-lib-svn/LUFA/Drivers/USB/Core/AVR8/Template/Template_Endpoint_Control_W.c **** 	bool     LastPacketFull = false;
  38:lufa-lib-svn/LUFA/Drivers/USB/Core/AVR8/Template/Template_Endpoint_Control_W.c **** 
  39:lufa-lib-svn/LUFA/Drivers/USB/Core/AVR8/Template/Template_Endpoint_Control_W.c **** 	if (Length > USB_ControlRequest.wLength)
 2125               		.loc 4 39 0
 2126 0000 4091 0000 		lds r20,USB_ControlRequest+6
 2127 0004 5091 0000 		lds r21,USB_ControlRequest+6+1
 2128 0008 4617      		cp r20,r22
 2129 000a 5707      		cpc r21,r23
 2130 000c 00F0      		brlo .L159
  40:lufa-lib-svn/LUFA/Drivers/USB/Core/AVR8/Template/Template_Endpoint_Control_W.c **** 	  Length = USB_ControlRequest.wLength;
  41:lufa-lib-svn/LUFA/Drivers/USB/Core/AVR8/Template/Template_Endpoint_Control_W.c **** 	else if (!(Length))
 2131               		.loc 4 41 0
 2132 000e 6115      		cp r22,__zero_reg__
 2133 0010 7105      		cpc r23,__zero_reg__
 2134 0012 01F4      		brne .L148
 2135               	.LBB330:
 2136               	.LBB331:
 520:lufa-lib-svn/LUFA/Drivers/USB/Core/AVR8/../AVR8/../AVR8/Endpoint_AVR8.h **** 					UEINTX &= ~((1 << TXINI) | (1 << FIFOCON));
 2137               		.loc 2 520 0
 2138 0014 4091 E800 		lds r20,232
 2139 0018 4E77      		andi r20,lo8(126)
 2140 001a 4093 E800 		sts 232,r20
 2141 001e 00C0      		rjmp .L148
 2142               	.L159:
 2143               	.LBE331:
 2144               	.LBE330:
  39:lufa-lib-svn/LUFA/Drivers/USB/Core/AVR8/Template/Template_Endpoint_Control_W.c **** 	if (Length > USB_ControlRequest.wLength)
 2145               		.loc 4 39 0
 2146 0020 BA01      		movw r22,r20
 2147               	.LVL217:
 2148               	.L148:
  39:lufa-lib-svn/LUFA/Drivers/USB/Core/AVR8/Template/Template_Endpoint_Control_W.c **** 	if (Length > USB_ControlRequest.wLength)
 2149               		.loc 4 39 0 is_stmt 0 discriminator 1
 2150 0022 FC01      		movw r30,r24
 2151 0024 40E0      		ldi r20,0
 2152 0026 00C0      		rjmp .L177
 2153               	.LVL218:
 2154               	.L157:
 2155               	.LBB332:
  42:lufa-lib-svn/LUFA/Drivers/USB/Core/AVR8/Template/Template_Endpoint_Control_W.c **** 	  Endpoint_ClearIN();
  43:lufa-lib-svn/LUFA/Drivers/USB/Core/AVR8/Template/Template_Endpoint_Control_W.c **** 
  44:lufa-lib-svn/LUFA/Drivers/USB/Core/AVR8/Template/Template_Endpoint_Control_W.c **** 	while (Length || LastPacketFull)
  45:lufa-lib-svn/LUFA/Drivers/USB/Core/AVR8/Template/Template_Endpoint_Control_W.c **** 	{
  46:lufa-lib-svn/LUFA/Drivers/USB/Core/AVR8/Template/Template_Endpoint_Control_W.c **** 		uint8_t USB_DeviceState_LCL = USB_DeviceState;
 2156               		.loc 4 46 0 is_stmt 1
 2157 0028 8EB3      		in r24,0x1e
 2158               	.LVL219:
  47:lufa-lib-svn/LUFA/Drivers/USB/Core/AVR8/Template/Template_Endpoint_Control_W.c **** 
  48:lufa-lib-svn/LUFA/Drivers/USB/Core/AVR8/Template/Template_Endpoint_Control_W.c **** 		if (USB_DeviceState_LCL == DEVICE_STATE_Unattached)
 2159               		.loc 4 48 0
 2160 002a 8823      		tst r24
 2161 002c 01F4      		brne .+2
 2162 002e 00C0      		rjmp .L163
  49:lufa-lib-svn/LUFA/Drivers/USB/Core/AVR8/Template/Template_Endpoint_Control_W.c **** 		  return ENDPOINT_RWCSTREAM_DeviceDisconnected;
  50:lufa-lib-svn/LUFA/Drivers/USB/Core/AVR8/Template/Template_Endpoint_Control_W.c **** 		else if (USB_DeviceState_LCL == DEVICE_STATE_Suspended)
 2163               		.loc 4 50 0
 2164 0030 8530      		cpi r24,lo8(5)
 2165 0032 01F4      		brne .+2
 2166 0034 00C0      		rjmp .L164
 2167               	.LBB333:
 2168               	.LBB334:
 495:lufa-lib-svn/LUFA/Drivers/USB/Core/AVR8/../AVR8/../AVR8/Endpoint_AVR8.h **** 				return ((UEINTX & (1 << RXSTPI)) ? true : false);
 2169               		.loc 2 495 0
 2170 0036 8091 E800 		lds r24,232
 2171               	.LVL220:
 2172               	.LBE334:
 2173               	.LBE333:
  51:lufa-lib-svn/LUFA/Drivers/USB/Core/AVR8/Template/Template_Endpoint_Control_W.c **** 		  return ENDPOINT_RWCSTREAM_BusSuspended;
  52:lufa-lib-svn/LUFA/Drivers/USB/Core/AVR8/Template/Template_Endpoint_Control_W.c **** 		else if (Endpoint_IsSETUPReceived())
 2174               		.loc 4 52 0
 2175 003a 83FD      		sbrc r24,3
 2176 003c 00C0      		rjmp .L162
 2177               	.LBB335:
 2178               	.LBB336:
 483:lufa-lib-svn/LUFA/Drivers/USB/Core/AVR8/../AVR8/../AVR8/Endpoint_AVR8.h **** 				return ((UEINTX & (1 << RXOUTI)) ? true : false);
 2179               		.loc 2 483 0
 2180 003e 8091 E800 		lds r24,232
 2181               	.LBE336:
 2182               	.LBE335:
  53:lufa-lib-svn/LUFA/Drivers/USB/Core/AVR8/Template/Template_Endpoint_Control_W.c **** 		  return ENDPOINT_RWCSTREAM_HostAborted;
  54:lufa-lib-svn/LUFA/Drivers/USB/Core/AVR8/Template/Template_Endpoint_Control_W.c **** 		else if (Endpoint_IsOUTReceived())
 2183               		.loc 4 54 0
 2184 0042 82FD      		sbrc r24,2
 2185 0044 00C0      		rjmp .L172
 2186               	.LBB337:
 2187               	.LBB338:
 471:lufa-lib-svn/LUFA/Drivers/USB/Core/AVR8/../AVR8/../AVR8/Endpoint_AVR8.h **** 				return ((UEINTX & (1 << TXINI)) ? true : false);
 2188               		.loc 2 471 0
 2189 0046 8091 E800 		lds r24,232
 2190               	.LBE338:
 2191               	.LBE337:
  55:lufa-lib-svn/LUFA/Drivers/USB/Core/AVR8/Template/Template_Endpoint_Control_W.c **** 		  break;
  56:lufa-lib-svn/LUFA/Drivers/USB/Core/AVR8/Template/Template_Endpoint_Control_W.c **** 
  57:lufa-lib-svn/LUFA/Drivers/USB/Core/AVR8/Template/Template_Endpoint_Control_W.c **** 		if (Endpoint_IsINReady())
 2192               		.loc 4 57 0
 2193 004a 80FF      		sbrs r24,0
 2194 004c 00C0      		rjmp .L177
 2195               	.LBB339:
 2196               	.LBB340:
 2197               	.LBB341:
 299:lufa-lib-svn/LUFA/Drivers/USB/Core/AVR8/../AVR8/../AVR8/Endpoint_AVR8.h **** 					return (((uint16_t)UEBCHX << 8) | UEBCLX);
 2198               		.loc 2 299 0
 2199 004e 9091 F300 		lds r25,243
 2200 0052 8091 F200 		lds r24,242
 2201 0056 392F      		mov r19,r25
 2202 0058 20E0      		ldi r18,0
 2203 005a A901      		movw r20,r18
 2204               	.LVL221:
 2205 005c 482B      		or r20,r24
 2206 005e CA01      		movw r24,r20
 2207               	.LBE341:
 2208               	.LBE340:
  58:lufa-lib-svn/LUFA/Drivers/USB/Core/AVR8/Template/Template_Endpoint_Control_W.c **** 		{
  59:lufa-lib-svn/LUFA/Drivers/USB/Core/AVR8/Template/Template_Endpoint_Control_W.c **** 			uint16_t BytesInEndpoint = Endpoint_BytesInEndpoint();
  60:lufa-lib-svn/LUFA/Drivers/USB/Core/AVR8/Template/Template_Endpoint_Control_W.c **** 
  61:lufa-lib-svn/LUFA/Drivers/USB/Core/AVR8/Template/Template_Endpoint_Control_W.c **** 			while (Length && (BytesInEndpoint < USB_Device_ControlEndpointSize))
 2209               		.loc 4 61 0
 2210 0060 00C0      		rjmp .L153
 2211               	.LVL222:
 2212               	.L155:
  62:lufa-lib-svn/LUFA/Drivers/USB/Core/AVR8/Template/Template_Endpoint_Control_W.c **** 			{
  63:lufa-lib-svn/LUFA/Drivers/USB/Core/AVR8/Template/Template_Endpoint_Control_W.c **** 				TEMPLATE_TRANSFER_BYTE(DataStream);
 2213               		.loc 4 63 0
 2214 0062 4191      		ld r20,Z+
 2215               	.LVL223:
 2216               	.LBB342:
 2217               	.LBB343:
 628:lufa-lib-svn/LUFA/Drivers/USB/Core/AVR8/../AVR8/../AVR8/Endpoint_AVR8.h **** 				UEDATX = Data;
 2218               		.loc 2 628 0
 2219 0064 4093 F100 		sts 241,r20
 2220               	.LVL224:
 2221               	.LBE343:
 2222               	.LBE342:
  64:lufa-lib-svn/LUFA/Drivers/USB/Core/AVR8/Template/Template_Endpoint_Control_W.c **** 				TEMPLATE_BUFFER_MOVE(DataStream, 1);
  65:lufa-lib-svn/LUFA/Drivers/USB/Core/AVR8/Template/Template_Endpoint_Control_W.c **** 				Length--;
 2223               		.loc 4 65 0
 2224 0068 6150      		subi r22,1
 2225 006a 7109      		sbc r23,__zero_reg__
 2226               	.LVL225:
  66:lufa-lib-svn/LUFA/Drivers/USB/Core/AVR8/Template/Template_Endpoint_Control_W.c **** 				BytesInEndpoint++;
 2227               		.loc 4 66 0
 2228 006c 0196      		adiw r24,1
 2229               	.LVL226:
 2230               	.L153:
  61:lufa-lib-svn/LUFA/Drivers/USB/Core/AVR8/Template/Template_Endpoint_Control_W.c **** 			while (Length && (BytesInEndpoint < USB_Device_ControlEndpointSize))
 2231               		.loc 4 61 0 discriminator 1
 2232 006e 6115      		cp r22,__zero_reg__
 2233 0070 7105      		cpc r23,__zero_reg__
 2234 0072 01F0      		breq .L154
  61:lufa-lib-svn/LUFA/Drivers/USB/Core/AVR8/Template/Template_Endpoint_Control_W.c **** 			while (Length && (BytesInEndpoint < USB_Device_ControlEndpointSize))
 2235               		.loc 4 61 0 is_stmt 0 discriminator 2
 2236 0074 8830      		cpi r24,8
 2237 0076 9105      		cpc r25,__zero_reg__
 2238 0078 00F0      		brlo .L155
 2239               	.L154:
  67:lufa-lib-svn/LUFA/Drivers/USB/Core/AVR8/Template/Template_Endpoint_Control_W.c **** 			}
  68:lufa-lib-svn/LUFA/Drivers/USB/Core/AVR8/Template/Template_Endpoint_Control_W.c **** 
  69:lufa-lib-svn/LUFA/Drivers/USB/Core/AVR8/Template/Template_Endpoint_Control_W.c **** 			LastPacketFull = (BytesInEndpoint == USB_Device_ControlEndpointSize);
 2240               		.loc 4 69 0 is_stmt 1
 2241 007a 41E0      		ldi r20,lo8(1)
 2242 007c 0897      		sbiw r24,8
 2243 007e 01F0      		breq .L156
 2244 0080 40E0      		ldi r20,0
 2245               	.L156:
 2246               	.LVL227:
 2247               	.LBB344:
 2248               	.LBB345:
 520:lufa-lib-svn/LUFA/Drivers/USB/Core/AVR8/../AVR8/../AVR8/Endpoint_AVR8.h **** 					UEINTX &= ~((1 << TXINI) | (1 << FIFOCON));
 2249               		.loc 2 520 0
 2250 0082 8091 E800 		lds r24,232
 2251               	.LVL228:
 2252 0086 8E77      		andi r24,lo8(126)
 2253 0088 8093 E800 		sts 232,r24
 2254               	.LVL229:
 2255               	.L177:
 2256               	.LBE345:
 2257               	.LBE344:
 2258               	.LBE339:
 2259               	.LBE332:
  44:lufa-lib-svn/LUFA/Drivers/USB/Core/AVR8/Template/Template_Endpoint_Control_W.c **** 	while (Length || LastPacketFull)
 2260               		.loc 4 44 0 discriminator 1
 2261 008c 6115      		cp r22,__zero_reg__
 2262 008e 7105      		cpc r23,__zero_reg__
 2263 0090 01F4      		brne .L157
  44:lufa-lib-svn/LUFA/Drivers/USB/Core/AVR8/Template/Template_Endpoint_Control_W.c **** 	while (Length || LastPacketFull)
 2264               		.loc 4 44 0 is_stmt 0 discriminator 2
 2265 0092 4111      		cpse r20,__zero_reg__
 2266 0094 00C0      		rjmp .L157
 2267 0096 00C0      		rjmp .L172
 2268               	.L158:
 2269               	.LBB346:
  70:lufa-lib-svn/LUFA/Drivers/USB/Core/AVR8/Template/Template_Endpoint_Control_W.c **** 			Endpoint_ClearIN();
  71:lufa-lib-svn/LUFA/Drivers/USB/Core/AVR8/Template/Template_Endpoint_Control_W.c **** 		}
  72:lufa-lib-svn/LUFA/Drivers/USB/Core/AVR8/Template/Template_Endpoint_Control_W.c **** 	}
  73:lufa-lib-svn/LUFA/Drivers/USB/Core/AVR8/Template/Template_Endpoint_Control_W.c **** 
  74:lufa-lib-svn/LUFA/Drivers/USB/Core/AVR8/Template/Template_Endpoint_Control_W.c **** 	while (!(Endpoint_IsOUTReceived()))
  75:lufa-lib-svn/LUFA/Drivers/USB/Core/AVR8/Template/Template_Endpoint_Control_W.c **** 	{
  76:lufa-lib-svn/LUFA/Drivers/USB/Core/AVR8/Template/Template_Endpoint_Control_W.c **** 		uint8_t USB_DeviceState_LCL = USB_DeviceState;
 2270               		.loc 4 76 0 is_stmt 1
 2271 0098 8EB3      		in r24,0x1e
 2272               	.LVL230:
  77:lufa-lib-svn/LUFA/Drivers/USB/Core/AVR8/Template/Template_Endpoint_Control_W.c **** 
  78:lufa-lib-svn/LUFA/Drivers/USB/Core/AVR8/Template/Template_Endpoint_Control_W.c **** 		if (USB_DeviceState_LCL == DEVICE_STATE_Unattached)
 2273               		.loc 4 78 0
 2274 009a 8823      		tst r24
 2275 009c 01F0      		breq .L163
  79:lufa-lib-svn/LUFA/Drivers/USB/Core/AVR8/Template/Template_Endpoint_Control_W.c **** 		  return ENDPOINT_RWCSTREAM_DeviceDisconnected;
  80:lufa-lib-svn/LUFA/Drivers/USB/Core/AVR8/Template/Template_Endpoint_Control_W.c **** 		else if (USB_DeviceState_LCL == DEVICE_STATE_Suspended)
 2276               		.loc 4 80 0
 2277 009e 8530      		cpi r24,lo8(5)
 2278 00a0 01F0      		breq .L164
 2279               	.LVL231:
 2280               	.L172:
 2281               	.LBE346:
 2282               	.LBB347:
 2283               	.LBB348:
 483:lufa-lib-svn/LUFA/Drivers/USB/Core/AVR8/../AVR8/../AVR8/Endpoint_AVR8.h **** 				return ((UEINTX & (1 << RXOUTI)) ? true : false);
 2284               		.loc 2 483 0 discriminator 1
 2285 00a2 8091 E800 		lds r24,232
 2286               	.LBE348:
 2287               	.LBE347:
  74:lufa-lib-svn/LUFA/Drivers/USB/Core/AVR8/Template/Template_Endpoint_Control_W.c **** 	while (!(Endpoint_IsOUTReceived()))
 2288               		.loc 4 74 0 discriminator 1
 2289 00a6 82FF      		sbrs r24,2
 2290 00a8 00C0      		rjmp .L158
  81:lufa-lib-svn/LUFA/Drivers/USB/Core/AVR8/Template/Template_Endpoint_Control_W.c **** 		  return ENDPOINT_RWCSTREAM_BusSuspended;
  82:lufa-lib-svn/LUFA/Drivers/USB/Core/AVR8/Template/Template_Endpoint_Control_W.c **** 	}
  83:lufa-lib-svn/LUFA/Drivers/USB/Core/AVR8/Template/Template_Endpoint_Control_W.c **** 
  84:lufa-lib-svn/LUFA/Drivers/USB/Core/AVR8/Template/Template_Endpoint_Control_W.c **** 	return ENDPOINT_RWCSTREAM_NoError;
 2291               		.loc 4 84 0
 2292 00aa 80E0      		ldi r24,0
 2293 00ac 0895      		ret
 2294               	.L162:
 2295               	.LBB349:
  53:lufa-lib-svn/LUFA/Drivers/USB/Core/AVR8/Template/Template_Endpoint_Control_W.c **** 		  return ENDPOINT_RWCSTREAM_HostAborted;
 2296               		.loc 4 53 0
 2297 00ae 81E0      		ldi r24,lo8(1)
 2298 00b0 0895      		ret
 2299               	.L163:
 2300               	.LBE349:
 2301               	.LBB350:
  49:lufa-lib-svn/LUFA/Drivers/USB/Core/AVR8/Template/Template_Endpoint_Control_W.c **** 		  return ENDPOINT_RWCSTREAM_DeviceDisconnected;
 2302               		.loc 4 49 0
 2303 00b2 82E0      		ldi r24,lo8(2)
 2304 00b4 0895      		ret
 2305               	.L164:
  51:lufa-lib-svn/LUFA/Drivers/USB/Core/AVR8/Template/Template_Endpoint_Control_W.c **** 		  return ENDPOINT_RWCSTREAM_BusSuspended;
 2306               		.loc 4 51 0
 2307 00b6 83E0      		ldi r24,lo8(3)
 2308               	.LBE350:
  85:lufa-lib-svn/LUFA/Drivers/USB/Core/AVR8/Template/Template_Endpoint_Control_W.c **** }
 2309               		.loc 4 85 0
 2310 00b8 0895      		ret
 2311               		.cfi_endproc
 2312               	.LFE96:
 2314               		.section	.text.Endpoint_Write_Control_Stream_BE,"ax",@progbits
 2315               	.global	Endpoint_Write_Control_Stream_BE
 2317               	Endpoint_Write_Control_Stream_BE:
 2318               	.LFB97:
  35:lufa-lib-svn/LUFA/Drivers/USB/Core/AVR8/Template/Template_Endpoint_Control_W.c **** {
 2319               		.loc 4 35 0
 2320               		.cfi_startproc
 2321               	.LVL232:
 2322               	/* prologue: function */
 2323               	/* frame size = 0 */
 2324               	/* stack size = 0 */
 2325               	.L__stack_usage = 0
  36:lufa-lib-svn/LUFA/Drivers/USB/Core/AVR8/Template/Template_Endpoint_Control_W.c **** 	uint8_t* DataStream     = ((uint8_t*)Buffer + TEMPLATE_BUFFER_OFFSET(Length));
 2326               		.loc 4 36 0
 2327 0000 FB01      		movw r30,r22
 2328 0002 3197      		sbiw r30,1
 2329 0004 E80F      		add r30,r24
 2330 0006 F91F      		adc r31,r25
 2331               	.LVL233:
  39:lufa-lib-svn/LUFA/Drivers/USB/Core/AVR8/Template/Template_Endpoint_Control_W.c **** 	if (Length > USB_ControlRequest.wLength)
 2332               		.loc 4 39 0
 2333 0008 8091 0000 		lds r24,USB_ControlRequest+6
 2334 000c 9091 0000 		lds r25,USB_ControlRequest+6+1
 2335               	.LVL234:
 2336 0010 8617      		cp r24,r22
 2337 0012 9707      		cpc r25,r23
 2338 0014 00F0      		brlo .L190
  41:lufa-lib-svn/LUFA/Drivers/USB/Core/AVR8/Template/Template_Endpoint_Control_W.c **** 	else if (!(Length))
 2339               		.loc 4 41 0
 2340 0016 6115      		cp r22,__zero_reg__
 2341 0018 7105      		cpc r23,__zero_reg__
 2342 001a 01F4      		brne .L179
 2343               	.LBB351:
 2344               	.LBB352:
 520:lufa-lib-svn/LUFA/Drivers/USB/Core/AVR8/../AVR8/../AVR8/Endpoint_AVR8.h **** 					UEINTX &= ~((1 << TXINI) | (1 << FIFOCON));
 2345               		.loc 2 520 0
 2346 001c 8091 E800 		lds r24,232
 2347 0020 8E77      		andi r24,lo8(126)
 2348 0022 8093 E800 		sts 232,r24
 2349 0026 00C0      		rjmp .L179
 2350               	.L190:
 2351               	.LBE352:
 2352               	.LBE351:
  39:lufa-lib-svn/LUFA/Drivers/USB/Core/AVR8/Template/Template_Endpoint_Control_W.c **** 	if (Length > USB_ControlRequest.wLength)
 2353               		.loc 4 39 0
 2354 0028 BC01      		movw r22,r24
 2355               	.LVL235:
 2356               	.L179:
  39:lufa-lib-svn/LUFA/Drivers/USB/Core/AVR8/Template/Template_Endpoint_Control_W.c **** 	if (Length > USB_ControlRequest.wLength)
 2357               		.loc 4 39 0 is_stmt 0 discriminator 1
 2358 002a 40E0      		ldi r20,0
 2359 002c 00C0      		rjmp .L208
 2360               	.LVL236:
 2361               	.L188:
 2362               	.LBB353:
  46:lufa-lib-svn/LUFA/Drivers/USB/Core/AVR8/Template/Template_Endpoint_Control_W.c **** 		uint8_t USB_DeviceState_LCL = USB_DeviceState;
 2363               		.loc 4 46 0 is_stmt 1
 2364 002e 8EB3      		in r24,0x1e
 2365               	.LVL237:
  48:lufa-lib-svn/LUFA/Drivers/USB/Core/AVR8/Template/Template_Endpoint_Control_W.c **** 		if (USB_DeviceState_LCL == DEVICE_STATE_Unattached)
 2366               		.loc 4 48 0
 2367 0030 8823      		tst r24
 2368 0032 01F4      		brne .+2
 2369 0034 00C0      		rjmp .L194
  50:lufa-lib-svn/LUFA/Drivers/USB/Core/AVR8/Template/Template_Endpoint_Control_W.c **** 		else if (USB_DeviceState_LCL == DEVICE_STATE_Suspended)
 2370               		.loc 4 50 0
 2371 0036 8530      		cpi r24,lo8(5)
 2372 0038 01F4      		brne .+2
 2373 003a 00C0      		rjmp .L195
 2374               	.LBB354:
 2375               	.LBB355:
 495:lufa-lib-svn/LUFA/Drivers/USB/Core/AVR8/../AVR8/../AVR8/Endpoint_AVR8.h **** 				return ((UEINTX & (1 << RXSTPI)) ? true : false);
 2376               		.loc 2 495 0
 2377 003c 8091 E800 		lds r24,232
 2378               	.LVL238:
 2379               	.LBE355:
 2380               	.LBE354:
  52:lufa-lib-svn/LUFA/Drivers/USB/Core/AVR8/Template/Template_Endpoint_Control_W.c **** 		else if (Endpoint_IsSETUPReceived())
 2381               		.loc 4 52 0
 2382 0040 83FD      		sbrc r24,3
 2383 0042 00C0      		rjmp .L193
 2384               	.LBB356:
 2385               	.LBB357:
 483:lufa-lib-svn/LUFA/Drivers/USB/Core/AVR8/../AVR8/../AVR8/Endpoint_AVR8.h **** 				return ((UEINTX & (1 << RXOUTI)) ? true : false);
 2386               		.loc 2 483 0
 2387 0044 8091 E800 		lds r24,232
 2388               	.LBE357:
 2389               	.LBE356:
  54:lufa-lib-svn/LUFA/Drivers/USB/Core/AVR8/Template/Template_Endpoint_Control_W.c **** 		else if (Endpoint_IsOUTReceived())
 2390               		.loc 4 54 0
 2391 0048 82FD      		sbrc r24,2
 2392 004a 00C0      		rjmp .L203
 2393               	.LBB358:
 2394               	.LBB359:
 471:lufa-lib-svn/LUFA/Drivers/USB/Core/AVR8/../AVR8/../AVR8/Endpoint_AVR8.h **** 				return ((UEINTX & (1 << TXINI)) ? true : false);
 2395               		.loc 2 471 0
 2396 004c 8091 E800 		lds r24,232
 2397               	.LBE359:
 2398               	.LBE358:
  57:lufa-lib-svn/LUFA/Drivers/USB/Core/AVR8/Template/Template_Endpoint_Control_W.c **** 		if (Endpoint_IsINReady())
 2399               		.loc 4 57 0
 2400 0050 80FF      		sbrs r24,0
 2401 0052 00C0      		rjmp .L208
 2402               	.LBB360:
 2403               	.LBB361:
 2404               	.LBB362:
 299:lufa-lib-svn/LUFA/Drivers/USB/Core/AVR8/../AVR8/../AVR8/Endpoint_AVR8.h **** 					return (((uint16_t)UEBCHX << 8) | UEBCLX);
 2405               		.loc 2 299 0
 2406 0054 9091 F300 		lds r25,243
 2407 0058 8091 F200 		lds r24,242
 2408 005c 392F      		mov r19,r25
 2409 005e 20E0      		ldi r18,0
 2410 0060 A901      		movw r20,r18
 2411               	.LVL239:
 2412 0062 482B      		or r20,r24
 2413 0064 CA01      		movw r24,r20
 2414               	.LBE362:
 2415               	.LBE361:
  61:lufa-lib-svn/LUFA/Drivers/USB/Core/AVR8/Template/Template_Endpoint_Control_W.c **** 			while (Length && (BytesInEndpoint < USB_Device_ControlEndpointSize))
 2416               		.loc 4 61 0
 2417 0066 00C0      		rjmp .L184
 2418               	.LVL240:
 2419               	.L186:
  63:lufa-lib-svn/LUFA/Drivers/USB/Core/AVR8/Template/Template_Endpoint_Control_W.c **** 				TEMPLATE_TRANSFER_BYTE(DataStream);
 2420               		.loc 4 63 0
 2421 0068 4081      		ld r20,Z
 2422               	.LVL241:
 2423               	.LBB363:
 2424               	.LBB364:
 628:lufa-lib-svn/LUFA/Drivers/USB/Core/AVR8/../AVR8/../AVR8/Endpoint_AVR8.h **** 				UEDATX = Data;
 2425               		.loc 2 628 0
 2426 006a 4093 F100 		sts 241,r20
 2427               	.LBE364:
 2428               	.LBE363:
  64:lufa-lib-svn/LUFA/Drivers/USB/Core/AVR8/Template/Template_Endpoint_Control_W.c **** 				TEMPLATE_BUFFER_MOVE(DataStream, 1);
 2429               		.loc 4 64 0
 2430 006e 3197      		sbiw r30,1
 2431               	.LVL242:
  65:lufa-lib-svn/LUFA/Drivers/USB/Core/AVR8/Template/Template_Endpoint_Control_W.c **** 				Length--;
 2432               		.loc 4 65 0
 2433 0070 6150      		subi r22,1
 2434 0072 7109      		sbc r23,__zero_reg__
 2435               	.LVL243:
  66:lufa-lib-svn/LUFA/Drivers/USB/Core/AVR8/Template/Template_Endpoint_Control_W.c **** 				BytesInEndpoint++;
 2436               		.loc 4 66 0
 2437 0074 0196      		adiw r24,1
 2438               	.LVL244:
 2439               	.L184:
  61:lufa-lib-svn/LUFA/Drivers/USB/Core/AVR8/Template/Template_Endpoint_Control_W.c **** 			while (Length && (BytesInEndpoint < USB_Device_ControlEndpointSize))
 2440               		.loc 4 61 0 discriminator 1
 2441 0076 6115      		cp r22,__zero_reg__
 2442 0078 7105      		cpc r23,__zero_reg__
 2443 007a 01F0      		breq .L185
  61:lufa-lib-svn/LUFA/Drivers/USB/Core/AVR8/Template/Template_Endpoint_Control_W.c **** 			while (Length && (BytesInEndpoint < USB_Device_ControlEndpointSize))
 2444               		.loc 4 61 0 is_stmt 0 discriminator 2
 2445 007c 8830      		cpi r24,8
 2446 007e 9105      		cpc r25,__zero_reg__
 2447 0080 00F0      		brlo .L186
 2448               	.L185:
  69:lufa-lib-svn/LUFA/Drivers/USB/Core/AVR8/Template/Template_Endpoint_Control_W.c **** 			LastPacketFull = (BytesInEndpoint == USB_Device_ControlEndpointSize);
 2449               		.loc 4 69 0 is_stmt 1
 2450 0082 41E0      		ldi r20,lo8(1)
 2451 0084 0897      		sbiw r24,8
 2452 0086 01F0      		breq .L187
 2453 0088 40E0      		ldi r20,0
 2454               	.L187:
 2455               	.LVL245:
 2456               	.LBB365:
 2457               	.LBB366:
 520:lufa-lib-svn/LUFA/Drivers/USB/Core/AVR8/../AVR8/../AVR8/Endpoint_AVR8.h **** 					UEINTX &= ~((1 << TXINI) | (1 << FIFOCON));
 2458               		.loc 2 520 0
 2459 008a 8091 E800 		lds r24,232
 2460               	.LVL246:
 2461 008e 8E77      		andi r24,lo8(126)
 2462 0090 8093 E800 		sts 232,r24
 2463               	.LVL247:
 2464               	.L208:
 2465               	.LBE366:
 2466               	.LBE365:
 2467               	.LBE360:
 2468               	.LBE353:
  44:lufa-lib-svn/LUFA/Drivers/USB/Core/AVR8/Template/Template_Endpoint_Control_W.c **** 	while (Length || LastPacketFull)
 2469               		.loc 4 44 0 discriminator 1
 2470 0094 6115      		cp r22,__zero_reg__
 2471 0096 7105      		cpc r23,__zero_reg__
 2472 0098 01F4      		brne .L188
  44:lufa-lib-svn/LUFA/Drivers/USB/Core/AVR8/Template/Template_Endpoint_Control_W.c **** 	while (Length || LastPacketFull)
 2473               		.loc 4 44 0 is_stmt 0 discriminator 2
 2474 009a 4111      		cpse r20,__zero_reg__
 2475 009c 00C0      		rjmp .L188
 2476 009e 00C0      		rjmp .L203
 2477               	.L189:
 2478               	.LBB367:
  76:lufa-lib-svn/LUFA/Drivers/USB/Core/AVR8/Template/Template_Endpoint_Control_W.c **** 		uint8_t USB_DeviceState_LCL = USB_DeviceState;
 2479               		.loc 4 76 0 is_stmt 1
 2480 00a0 8EB3      		in r24,0x1e
 2481               	.LVL248:
  78:lufa-lib-svn/LUFA/Drivers/USB/Core/AVR8/Template/Template_Endpoint_Control_W.c **** 		if (USB_DeviceState_LCL == DEVICE_STATE_Unattached)
 2482               		.loc 4 78 0
 2483 00a2 8823      		tst r24
 2484 00a4 01F0      		breq .L194
  80:lufa-lib-svn/LUFA/Drivers/USB/Core/AVR8/Template/Template_Endpoint_Control_W.c **** 		else if (USB_DeviceState_LCL == DEVICE_STATE_Suspended)
 2485               		.loc 4 80 0
 2486 00a6 8530      		cpi r24,lo8(5)
 2487 00a8 01F0      		breq .L195
 2488               	.LVL249:
 2489               	.L203:
 2490               	.LBE367:
 2491               	.LBB368:
 2492               	.LBB369:
 483:lufa-lib-svn/LUFA/Drivers/USB/Core/AVR8/../AVR8/../AVR8/Endpoint_AVR8.h **** 				return ((UEINTX & (1 << RXOUTI)) ? true : false);
 2493               		.loc 2 483 0 discriminator 1
 2494 00aa 8091 E800 		lds r24,232
 2495               	.LBE369:
 2496               	.LBE368:
  74:lufa-lib-svn/LUFA/Drivers/USB/Core/AVR8/Template/Template_Endpoint_Control_W.c **** 	while (!(Endpoint_IsOUTReceived()))
 2497               		.loc 4 74 0 discriminator 1
 2498 00ae 82FF      		sbrs r24,2
 2499 00b0 00C0      		rjmp .L189
  84:lufa-lib-svn/LUFA/Drivers/USB/Core/AVR8/Template/Template_Endpoint_Control_W.c **** 	return ENDPOINT_RWCSTREAM_NoError;
 2500               		.loc 4 84 0
 2501 00b2 80E0      		ldi r24,0
 2502 00b4 0895      		ret
 2503               	.L193:
 2504               	.LBB370:
  53:lufa-lib-svn/LUFA/Drivers/USB/Core/AVR8/Template/Template_Endpoint_Control_W.c **** 		  return ENDPOINT_RWCSTREAM_HostAborted;
 2505               		.loc 4 53 0
 2506 00b6 81E0      		ldi r24,lo8(1)
 2507 00b8 0895      		ret
 2508               	.L194:
 2509               	.LBE370:
 2510               	.LBB371:
  49:lufa-lib-svn/LUFA/Drivers/USB/Core/AVR8/Template/Template_Endpoint_Control_W.c **** 		  return ENDPOINT_RWCSTREAM_DeviceDisconnected;
 2511               		.loc 4 49 0
 2512 00ba 82E0      		ldi r24,lo8(2)
 2513 00bc 0895      		ret
 2514               	.L195:
  51:lufa-lib-svn/LUFA/Drivers/USB/Core/AVR8/Template/Template_Endpoint_Control_W.c **** 		  return ENDPOINT_RWCSTREAM_BusSuspended;
 2515               		.loc 4 51 0
 2516 00be 83E0      		ldi r24,lo8(3)
 2517               	.LBE371:
 2518               		.loc 4 85 0
 2519 00c0 0895      		ret
 2520               		.cfi_endproc
 2521               	.LFE97:
 2523               		.section	.text.Endpoint_Read_Control_Stream_LE,"ax",@progbits
 2524               	.global	Endpoint_Read_Control_Stream_LE
 2526               	Endpoint_Read_Control_Stream_LE:
 2527               	.LFB98:
 2528               		.file 5 "lufa-lib-svn/LUFA/Drivers/USB/Core/AVR8/Template/Template_Endpoint_Control_R.c"
   1:lufa-lib-svn/LUFA/Drivers/USB/Core/AVR8/Template/Template_Endpoint_Control_R.c **** /*
   2:lufa-lib-svn/LUFA/Drivers/USB/Core/AVR8/Template/Template_Endpoint_Control_R.c ****              LUFA Library
   3:lufa-lib-svn/LUFA/Drivers/USB/Core/AVR8/Template/Template_Endpoint_Control_R.c ****      Copyright (C) Dean Camera, 2011.
   4:lufa-lib-svn/LUFA/Drivers/USB/Core/AVR8/Template/Template_Endpoint_Control_R.c **** 
   5:lufa-lib-svn/LUFA/Drivers/USB/Core/AVR8/Template/Template_Endpoint_Control_R.c ****   dean [at] fourwalledcubicle [dot] com
   6:lufa-lib-svn/LUFA/Drivers/USB/Core/AVR8/Template/Template_Endpoint_Control_R.c ****            www.lufa-lib.org
   7:lufa-lib-svn/LUFA/Drivers/USB/Core/AVR8/Template/Template_Endpoint_Control_R.c **** */
   8:lufa-lib-svn/LUFA/Drivers/USB/Core/AVR8/Template/Template_Endpoint_Control_R.c **** 
   9:lufa-lib-svn/LUFA/Drivers/USB/Core/AVR8/Template/Template_Endpoint_Control_R.c **** /*
  10:lufa-lib-svn/LUFA/Drivers/USB/Core/AVR8/Template/Template_Endpoint_Control_R.c ****   Copyright 2011  Dean Camera (dean [at] fourwalledcubicle [dot] com)
  11:lufa-lib-svn/LUFA/Drivers/USB/Core/AVR8/Template/Template_Endpoint_Control_R.c **** 
  12:lufa-lib-svn/LUFA/Drivers/USB/Core/AVR8/Template/Template_Endpoint_Control_R.c ****   Permission to use, copy, modify, distribute, and sell this
  13:lufa-lib-svn/LUFA/Drivers/USB/Core/AVR8/Template/Template_Endpoint_Control_R.c ****   software and its documentation for any purpose is hereby granted
  14:lufa-lib-svn/LUFA/Drivers/USB/Core/AVR8/Template/Template_Endpoint_Control_R.c ****   without fee, provided that the above copyright notice appear in
  15:lufa-lib-svn/LUFA/Drivers/USB/Core/AVR8/Template/Template_Endpoint_Control_R.c ****   all copies and that both that the copyright notice and this
  16:lufa-lib-svn/LUFA/Drivers/USB/Core/AVR8/Template/Template_Endpoint_Control_R.c ****   permission notice and warranty disclaimer appear in supporting
  17:lufa-lib-svn/LUFA/Drivers/USB/Core/AVR8/Template/Template_Endpoint_Control_R.c ****   documentation, and that the name of the author not be used in
  18:lufa-lib-svn/LUFA/Drivers/USB/Core/AVR8/Template/Template_Endpoint_Control_R.c ****   advertising or publicity pertaining to distribution of the
  19:lufa-lib-svn/LUFA/Drivers/USB/Core/AVR8/Template/Template_Endpoint_Control_R.c ****   software without specific, written prior permission.
  20:lufa-lib-svn/LUFA/Drivers/USB/Core/AVR8/Template/Template_Endpoint_Control_R.c **** 
  21:lufa-lib-svn/LUFA/Drivers/USB/Core/AVR8/Template/Template_Endpoint_Control_R.c ****   The author disclaim all warranties with regard to this
  22:lufa-lib-svn/LUFA/Drivers/USB/Core/AVR8/Template/Template_Endpoint_Control_R.c ****   software, including all implied warranties of merchantability
  23:lufa-lib-svn/LUFA/Drivers/USB/Core/AVR8/Template/Template_Endpoint_Control_R.c ****   and fitness.  In no event shall the author be liable for any
  24:lufa-lib-svn/LUFA/Drivers/USB/Core/AVR8/Template/Template_Endpoint_Control_R.c ****   special, indirect or consequential damages or any damages
  25:lufa-lib-svn/LUFA/Drivers/USB/Core/AVR8/Template/Template_Endpoint_Control_R.c ****   whatsoever resulting from loss of use, data or profits, whether
  26:lufa-lib-svn/LUFA/Drivers/USB/Core/AVR8/Template/Template_Endpoint_Control_R.c ****   in an action of contract, negligence or other tortious action,
  27:lufa-lib-svn/LUFA/Drivers/USB/Core/AVR8/Template/Template_Endpoint_Control_R.c ****   arising out of or in connection with the use or performance of
  28:lufa-lib-svn/LUFA/Drivers/USB/Core/AVR8/Template/Template_Endpoint_Control_R.c ****   this software.
  29:lufa-lib-svn/LUFA/Drivers/USB/Core/AVR8/Template/Template_Endpoint_Control_R.c **** */
  30:lufa-lib-svn/LUFA/Drivers/USB/Core/AVR8/Template/Template_Endpoint_Control_R.c **** 
  31:lufa-lib-svn/LUFA/Drivers/USB/Core/AVR8/Template/Template_Endpoint_Control_R.c **** #if defined(TEMPLATE_FUNC_NAME)
  32:lufa-lib-svn/LUFA/Drivers/USB/Core/AVR8/Template/Template_Endpoint_Control_R.c **** 
  33:lufa-lib-svn/LUFA/Drivers/USB/Core/AVR8/Template/Template_Endpoint_Control_R.c **** uint8_t TEMPLATE_FUNC_NAME (void* const Buffer,
  34:lufa-lib-svn/LUFA/Drivers/USB/Core/AVR8/Template/Template_Endpoint_Control_R.c ****                             uint16_t Length)
  35:lufa-lib-svn/LUFA/Drivers/USB/Core/AVR8/Template/Template_Endpoint_Control_R.c **** {
 2529               		.loc 5 35 0
 2530               		.cfi_startproc
 2531               	.LVL250:
 2532               	/* prologue: function */
 2533               	/* frame size = 0 */
 2534               	/* stack size = 0 */
 2535               	.L__stack_usage = 0
  36:lufa-lib-svn/LUFA/Drivers/USB/Core/AVR8/Template/Template_Endpoint_Control_R.c **** 	uint8_t* DataStream = ((uint8_t*)Buffer + TEMPLATE_BUFFER_OFFSET(Length));
  37:lufa-lib-svn/LUFA/Drivers/USB/Core/AVR8/Template/Template_Endpoint_Control_R.c **** 
  38:lufa-lib-svn/LUFA/Drivers/USB/Core/AVR8/Template/Template_Endpoint_Control_R.c **** 	if (!(Length))
 2536               		.loc 5 38 0
 2537 0000 6115      		cp r22,__zero_reg__
 2538 0002 7105      		cpc r23,__zero_reg__
 2539 0004 01F4      		brne .L210
 2540               	.LBB372:
 2541               	.LBB373:
 535:lufa-lib-svn/LUFA/Drivers/USB/Core/AVR8/../AVR8/../AVR8/Endpoint_AVR8.h **** 					UEINTX &= ~((1 << RXOUTI) | (1 << FIFOCON));
 2542               		.loc 2 535 0
 2543 0006 4091 E800 		lds r20,232
 2544 000a 4B77      		andi r20,lo8(123)
 2545 000c 4093 E800 		sts 232,r20
 2546               	.L210:
 2547               	.LBE373:
 2548               	.LBE372:
  35:lufa-lib-svn/LUFA/Drivers/USB/Core/AVR8/Template/Template_Endpoint_Control_R.c **** {
 2549               		.loc 5 35 0 discriminator 1
 2550 0010 AC01      		movw r20,r24
 2551 0012 00C0      		rjmp .L211
 2552               	.LVL251:
 2553               	.L228:
 2554               	.LBB374:
  39:lufa-lib-svn/LUFA/Drivers/USB/Core/AVR8/Template/Template_Endpoint_Control_R.c **** 	  Endpoint_ClearOUT();
  40:lufa-lib-svn/LUFA/Drivers/USB/Core/AVR8/Template/Template_Endpoint_Control_R.c **** 
  41:lufa-lib-svn/LUFA/Drivers/USB/Core/AVR8/Template/Template_Endpoint_Control_R.c **** 	while (Length)
  42:lufa-lib-svn/LUFA/Drivers/USB/Core/AVR8/Template/Template_Endpoint_Control_R.c **** 	{
  43:lufa-lib-svn/LUFA/Drivers/USB/Core/AVR8/Template/Template_Endpoint_Control_R.c **** 		uint8_t USB_DeviceState_LCL = USB_DeviceState;
 2555               		.loc 5 43 0
 2556 0014 8EB3      		in r24,0x1e
 2557               	.LVL252:
  44:lufa-lib-svn/LUFA/Drivers/USB/Core/AVR8/Template/Template_Endpoint_Control_R.c **** 
  45:lufa-lib-svn/LUFA/Drivers/USB/Core/AVR8/Template/Template_Endpoint_Control_R.c **** 		if (USB_DeviceState_LCL == DEVICE_STATE_Unattached)
 2558               		.loc 5 45 0
 2559 0016 8823      		tst r24
 2560 0018 01F0      		breq .L222
  46:lufa-lib-svn/LUFA/Drivers/USB/Core/AVR8/Template/Template_Endpoint_Control_R.c **** 		  return ENDPOINT_RWCSTREAM_DeviceDisconnected;
  47:lufa-lib-svn/LUFA/Drivers/USB/Core/AVR8/Template/Template_Endpoint_Control_R.c **** 		else if (USB_DeviceState_LCL == DEVICE_STATE_Suspended)
 2561               		.loc 5 47 0
 2562 001a 8530      		cpi r24,lo8(5)
 2563 001c 01F0      		breq .L219
 2564               	.LBB375:
 2565               	.LBB376:
 495:lufa-lib-svn/LUFA/Drivers/USB/Core/AVR8/../AVR8/../AVR8/Endpoint_AVR8.h **** 				return ((UEINTX & (1 << RXSTPI)) ? true : false);
 2566               		.loc 2 495 0
 2567 001e 8091 E800 		lds r24,232
 2568               	.LVL253:
 2569               	.LBE376:
 2570               	.LBE375:
  48:lufa-lib-svn/LUFA/Drivers/USB/Core/AVR8/Template/Template_Endpoint_Control_R.c **** 		  return ENDPOINT_RWCSTREAM_BusSuspended;
  49:lufa-lib-svn/LUFA/Drivers/USB/Core/AVR8/Template/Template_Endpoint_Control_R.c **** 		else if (Endpoint_IsSETUPReceived())
 2571               		.loc 5 49 0
 2572 0022 83FD      		sbrc r24,3
 2573 0024 00C0      		rjmp .L220
 2574               	.LBB377:
 2575               	.LBB378:
 483:lufa-lib-svn/LUFA/Drivers/USB/Core/AVR8/../AVR8/../AVR8/Endpoint_AVR8.h **** 				return ((UEINTX & (1 << RXOUTI)) ? true : false);
 2576               		.loc 2 483 0
 2577 0026 8091 E800 		lds r24,232
 2578               	.LBE378:
 2579               	.LBE377:
  50:lufa-lib-svn/LUFA/Drivers/USB/Core/AVR8/Template/Template_Endpoint_Control_R.c **** 		  return ENDPOINT_RWCSTREAM_HostAborted;
  51:lufa-lib-svn/LUFA/Drivers/USB/Core/AVR8/Template/Template_Endpoint_Control_R.c **** 
  52:lufa-lib-svn/LUFA/Drivers/USB/Core/AVR8/Template/Template_Endpoint_Control_R.c **** 		if (Endpoint_IsOUTReceived())
 2580               		.loc 5 52 0
 2581 002a 82FF      		sbrs r24,2
 2582 002c 00C0      		rjmp .L228
 2583 002e FA01      		movw r30,r20
 2584 0030 00C0      		rjmp .L214
 2585               	.LVL254:
 2586               	.L216:
 2587               	.LBB379:
 2588               	.LBB380:
 616:lufa-lib-svn/LUFA/Drivers/USB/Core/AVR8/../AVR8/../AVR8/Endpoint_AVR8.h **** 				return UEDATX;
 2589               		.loc 2 616 0
 2590 0032 8091 F100 		lds r24,241
 2591               	.LBE380:
 2592               	.LBE379:
  53:lufa-lib-svn/LUFA/Drivers/USB/Core/AVR8/Template/Template_Endpoint_Control_R.c **** 		{
  54:lufa-lib-svn/LUFA/Drivers/USB/Core/AVR8/Template/Template_Endpoint_Control_R.c **** 			while (Length && Endpoint_BytesInEndpoint())
  55:lufa-lib-svn/LUFA/Drivers/USB/Core/AVR8/Template/Template_Endpoint_Control_R.c **** 			{
  56:lufa-lib-svn/LUFA/Drivers/USB/Core/AVR8/Template/Template_Endpoint_Control_R.c **** 				TEMPLATE_TRANSFER_BYTE(DataStream);
 2593               		.loc 5 56 0
 2594 0036 8193      		st Z+,r24
  57:lufa-lib-svn/LUFA/Drivers/USB/Core/AVR8/Template/Template_Endpoint_Control_R.c **** 				TEMPLATE_BUFFER_MOVE(DataStream, 1);
 2595               		.loc 5 57 0
 2596 0038 AF01      		movw r20,r30
 2597               	.LVL255:
  58:lufa-lib-svn/LUFA/Drivers/USB/Core/AVR8/Template/Template_Endpoint_Control_R.c **** 				Length--;
 2598               		.loc 5 58 0
 2599 003a 6150      		subi r22,1
 2600 003c 7109      		sbc r23,__zero_reg__
 2601               	.LVL256:
  54:lufa-lib-svn/LUFA/Drivers/USB/Core/AVR8/Template/Template_Endpoint_Control_R.c **** 			while (Length && Endpoint_BytesInEndpoint())
 2602               		.loc 5 54 0
 2603 003e 01F0      		breq .L215
 2604               	.LVL257:
 2605               	.L214:
 2606 0040 AF01      		movw r20,r30
 2607               	.LBB381:
 2608               	.LBB382:
 299:lufa-lib-svn/LUFA/Drivers/USB/Core/AVR8/../AVR8/../AVR8/Endpoint_AVR8.h **** 					return (((uint16_t)UEBCHX << 8) | UEBCLX);
 2609               		.loc 2 299 0
 2610 0042 9091 F300 		lds r25,243
 2611 0046 8091 F200 		lds r24,242
 2612 004a 392F      		mov r19,r25
 2613 004c 20E0      		ldi r18,0
 2614 004e D901      		movw r26,r18
 2615 0050 A82B      		or r26,r24
 2616 0052 CD01      		movw r24,r26
 2617               	.LBE382:
 2618               	.LBE381:
  54:lufa-lib-svn/LUFA/Drivers/USB/Core/AVR8/Template/Template_Endpoint_Control_R.c **** 			while (Length && Endpoint_BytesInEndpoint())
 2619               		.loc 5 54 0
 2620 0054 892B      		or r24,r25
 2621 0056 01F4      		brne .L216
 2622               	.L215:
 2623               	.LBB383:
 2624               	.LBB384:
 535:lufa-lib-svn/LUFA/Drivers/USB/Core/AVR8/../AVR8/../AVR8/Endpoint_AVR8.h **** 					UEINTX &= ~((1 << RXOUTI) | (1 << FIFOCON));
 2625               		.loc 2 535 0
 2626 0058 8091 E800 		lds r24,232
 2627 005c 8B77      		andi r24,lo8(123)
 2628 005e 8093 E800 		sts 232,r24
 2629               	.L211:
 2630               	.LVL258:
 2631               	.LBE384:
 2632               	.LBE383:
 2633               	.LBE374:
  41:lufa-lib-svn/LUFA/Drivers/USB/Core/AVR8/Template/Template_Endpoint_Control_R.c **** 	while (Length)
 2634               		.loc 5 41 0 discriminator 1
 2635 0062 6115      		cp r22,__zero_reg__
 2636 0064 7105      		cpc r23,__zero_reg__
 2637 0066 01F4      		brne .L228
 2638               	.L227:
 2639               	.LBB385:
 2640               	.LBB386:
 471:lufa-lib-svn/LUFA/Drivers/USB/Core/AVR8/../AVR8/../AVR8/Endpoint_AVR8.h **** 				return ((UEINTX & (1 << TXINI)) ? true : false);
 2641               		.loc 2 471 0
 2642 0068 8091 E800 		lds r24,232
 2643               	.LBE386:
 2644               	.LBE385:
  59:lufa-lib-svn/LUFA/Drivers/USB/Core/AVR8/Template/Template_Endpoint_Control_R.c **** 			}
  60:lufa-lib-svn/LUFA/Drivers/USB/Core/AVR8/Template/Template_Endpoint_Control_R.c **** 
  61:lufa-lib-svn/LUFA/Drivers/USB/Core/AVR8/Template/Template_Endpoint_Control_R.c **** 			Endpoint_ClearOUT();
  62:lufa-lib-svn/LUFA/Drivers/USB/Core/AVR8/Template/Template_Endpoint_Control_R.c **** 		}
  63:lufa-lib-svn/LUFA/Drivers/USB/Core/AVR8/Template/Template_Endpoint_Control_R.c **** 	}
  64:lufa-lib-svn/LUFA/Drivers/USB/Core/AVR8/Template/Template_Endpoint_Control_R.c **** 
  65:lufa-lib-svn/LUFA/Drivers/USB/Core/AVR8/Template/Template_Endpoint_Control_R.c **** 	while (!(Endpoint_IsINReady()))
 2645               		.loc 5 65 0
 2646 006c 80FD      		sbrc r24,0
 2647 006e 00C0      		rjmp .L221
 2648               	.LBB387:
  66:lufa-lib-svn/LUFA/Drivers/USB/Core/AVR8/Template/Template_Endpoint_Control_R.c **** 	{
  67:lufa-lib-svn/LUFA/Drivers/USB/Core/AVR8/Template/Template_Endpoint_Control_R.c **** 		uint8_t USB_DeviceState_LCL = USB_DeviceState;
 2649               		.loc 5 67 0
 2650 0070 8EB3      		in r24,0x1e
 2651               	.LVL259:
  68:lufa-lib-svn/LUFA/Drivers/USB/Core/AVR8/Template/Template_Endpoint_Control_R.c **** 
  69:lufa-lib-svn/LUFA/Drivers/USB/Core/AVR8/Template/Template_Endpoint_Control_R.c **** 		if (USB_DeviceState_LCL == DEVICE_STATE_Unattached)
 2652               		.loc 5 69 0
 2653 0072 8823      		tst r24
 2654 0074 01F0      		breq .L222
  70:lufa-lib-svn/LUFA/Drivers/USB/Core/AVR8/Template/Template_Endpoint_Control_R.c **** 		  return ENDPOINT_RWCSTREAM_DeviceDisconnected;
  71:lufa-lib-svn/LUFA/Drivers/USB/Core/AVR8/Template/Template_Endpoint_Control_R.c **** 		else if (USB_DeviceState_LCL == DEVICE_STATE_Suspended)
 2655               		.loc 5 71 0
 2656 0076 8530      		cpi r24,lo8(5)
 2657 0078 01F4      		brne .L227
 2658               	.LVL260:
 2659               	.L219:
 2660               	.LBE387:
 2661               	.LBB388:
  48:lufa-lib-svn/LUFA/Drivers/USB/Core/AVR8/Template/Template_Endpoint_Control_R.c **** 		  return ENDPOINT_RWCSTREAM_BusSuspended;
 2662               		.loc 5 48 0
 2663 007a 83E0      		ldi r24,lo8(3)
 2664 007c 0895      		ret
 2665               	.L220:
  50:lufa-lib-svn/LUFA/Drivers/USB/Core/AVR8/Template/Template_Endpoint_Control_R.c **** 		  return ENDPOINT_RWCSTREAM_HostAborted;
 2666               		.loc 5 50 0
 2667 007e 81E0      		ldi r24,lo8(1)
 2668 0080 0895      		ret
 2669               	.L221:
 2670               	.LBE388:
  72:lufa-lib-svn/LUFA/Drivers/USB/Core/AVR8/Template/Template_Endpoint_Control_R.c **** 		  return ENDPOINT_RWCSTREAM_BusSuspended;
  73:lufa-lib-svn/LUFA/Drivers/USB/Core/AVR8/Template/Template_Endpoint_Control_R.c **** 	}
  74:lufa-lib-svn/LUFA/Drivers/USB/Core/AVR8/Template/Template_Endpoint_Control_R.c **** 
  75:lufa-lib-svn/LUFA/Drivers/USB/Core/AVR8/Template/Template_Endpoint_Control_R.c **** 	return ENDPOINT_RWCSTREAM_NoError;
 2671               		.loc 5 75 0
 2672 0082 80E0      		ldi r24,0
 2673 0084 0895      		ret
 2674               	.L222:
 2675               	.LBB389:
  46:lufa-lib-svn/LUFA/Drivers/USB/Core/AVR8/Template/Template_Endpoint_Control_R.c **** 		  return ENDPOINT_RWCSTREAM_DeviceDisconnected;
 2676               		.loc 5 46 0
 2677 0086 82E0      		ldi r24,lo8(2)
 2678               	.LBE389:
  76:lufa-lib-svn/LUFA/Drivers/USB/Core/AVR8/Template/Template_Endpoint_Control_R.c **** }
 2679               		.loc 5 76 0
 2680 0088 0895      		ret
 2681               		.cfi_endproc
 2682               	.LFE98:
 2684               		.section	.text.Endpoint_Read_Control_Stream_BE,"ax",@progbits
 2685               	.global	Endpoint_Read_Control_Stream_BE
 2687               	Endpoint_Read_Control_Stream_BE:
 2688               	.LFB99:
  35:lufa-lib-svn/LUFA/Drivers/USB/Core/AVR8/Template/Template_Endpoint_Control_R.c **** {
 2689               		.loc 5 35 0
 2690               		.cfi_startproc
 2691               	.LVL261:
 2692               	/* prologue: function */
 2693               	/* frame size = 0 */
 2694               	/* stack size = 0 */
 2695               	.L__stack_usage = 0
  36:lufa-lib-svn/LUFA/Drivers/USB/Core/AVR8/Template/Template_Endpoint_Control_R.c **** 	uint8_t* DataStream = ((uint8_t*)Buffer + TEMPLATE_BUFFER_OFFSET(Length));
 2696               		.loc 5 36 0
 2697 0000 FB01      		movw r30,r22
 2698 0002 3197      		sbiw r30,1
 2699 0004 E80F      		add r30,r24
 2700 0006 F91F      		adc r31,r25
 2701               	.LVL262:
  38:lufa-lib-svn/LUFA/Drivers/USB/Core/AVR8/Template/Template_Endpoint_Control_R.c **** 	if (!(Length))
 2702               		.loc 5 38 0
 2703 0008 6115      		cp r22,__zero_reg__
 2704 000a 7105      		cpc r23,__zero_reg__
 2705 000c 01F4      		brne .L252
 2706 000e 00C0      		rjmp .L240
 2707               	.LVL263:
 2708               	.L253:
 2709               	.LBB390:
  43:lufa-lib-svn/LUFA/Drivers/USB/Core/AVR8/Template/Template_Endpoint_Control_R.c **** 		uint8_t USB_DeviceState_LCL = USB_DeviceState;
 2710               		.loc 5 43 0
 2711 0010 8EB3      		in r24,0x1e
 2712               	.LVL264:
  45:lufa-lib-svn/LUFA/Drivers/USB/Core/AVR8/Template/Template_Endpoint_Control_R.c **** 		if (USB_DeviceState_LCL == DEVICE_STATE_Unattached)
 2713               		.loc 5 45 0
 2714 0012 8823      		tst r24
 2715 0014 01F0      		breq .L247
  47:lufa-lib-svn/LUFA/Drivers/USB/Core/AVR8/Template/Template_Endpoint_Control_R.c **** 		else if (USB_DeviceState_LCL == DEVICE_STATE_Suspended)
 2716               		.loc 5 47 0
 2717 0016 8530      		cpi r24,lo8(5)
 2718 0018 01F0      		breq .L244
 2719               	.LBB391:
 2720               	.LBB392:
 495:lufa-lib-svn/LUFA/Drivers/USB/Core/AVR8/../AVR8/../AVR8/Endpoint_AVR8.h **** 				return ((UEINTX & (1 << RXSTPI)) ? true : false);
 2721               		.loc 2 495 0
 2722 001a 8091 E800 		lds r24,232
 2723               	.LVL265:
 2724               	.LBE392:
 2725               	.LBE391:
  49:lufa-lib-svn/LUFA/Drivers/USB/Core/AVR8/Template/Template_Endpoint_Control_R.c **** 		else if (Endpoint_IsSETUPReceived())
 2726               		.loc 5 49 0
 2727 001e 83FD      		sbrc r24,3
 2728 0020 00C0      		rjmp .L245
 2729               	.LBB393:
 2730               	.LBB394:
 483:lufa-lib-svn/LUFA/Drivers/USB/Core/AVR8/../AVR8/../AVR8/Endpoint_AVR8.h **** 				return ((UEINTX & (1 << RXOUTI)) ? true : false);
 2731               		.loc 2 483 0
 2732 0022 8091 E800 		lds r24,232
 2733               	.LBE394:
 2734               	.LBE393:
  52:lufa-lib-svn/LUFA/Drivers/USB/Core/AVR8/Template/Template_Endpoint_Control_R.c **** 		if (Endpoint_IsOUTReceived())
 2735               		.loc 5 52 0
 2736 0026 82FF      		sbrs r24,2
 2737 0028 00C0      		rjmp .L253
 2738 002a 00C0      		rjmp .L249
 2739               	.L241:
 2740               	.LBB395:
 2741               	.LBB396:
 616:lufa-lib-svn/LUFA/Drivers/USB/Core/AVR8/../AVR8/../AVR8/Endpoint_AVR8.h **** 				return UEDATX;
 2742               		.loc 2 616 0
 2743 002c 8091 F100 		lds r24,241
 2744               	.LBE396:
 2745               	.LBE395:
  56:lufa-lib-svn/LUFA/Drivers/USB/Core/AVR8/Template/Template_Endpoint_Control_R.c **** 				TEMPLATE_TRANSFER_BYTE(DataStream);
 2746               		.loc 5 56 0
 2747 0030 8083      		st Z,r24
  57:lufa-lib-svn/LUFA/Drivers/USB/Core/AVR8/Template/Template_Endpoint_Control_R.c **** 				TEMPLATE_BUFFER_MOVE(DataStream, 1);
 2748               		.loc 5 57 0
 2749 0032 3197      		sbiw r30,1
 2750               	.LVL266:
  58:lufa-lib-svn/LUFA/Drivers/USB/Core/AVR8/Template/Template_Endpoint_Control_R.c **** 				Length--;
 2751               		.loc 5 58 0
 2752 0034 6150      		subi r22,1
 2753 0036 7109      		sbc r23,__zero_reg__
 2754               	.LVL267:
  54:lufa-lib-svn/LUFA/Drivers/USB/Core/AVR8/Template/Template_Endpoint_Control_R.c **** 			while (Length && Endpoint_BytesInEndpoint())
 2755               		.loc 5 54 0
 2756 0038 01F0      		breq .L240
 2757               	.L249:
 2758               	.LBB397:
 2759               	.LBB398:
 299:lufa-lib-svn/LUFA/Drivers/USB/Core/AVR8/../AVR8/../AVR8/Endpoint_AVR8.h **** 					return (((uint16_t)UEBCHX << 8) | UEBCLX);
 2760               		.loc 2 299 0
 2761 003a 9091 F300 		lds r25,243
 2762 003e 8091 F200 		lds r24,242
 2763 0042 392F      		mov r19,r25
 2764 0044 20E0      		ldi r18,0
 2765 0046 A901      		movw r20,r18
 2766 0048 482B      		or r20,r24
 2767 004a CA01      		movw r24,r20
 2768               	.LBE398:
 2769               	.LBE397:
  54:lufa-lib-svn/LUFA/Drivers/USB/Core/AVR8/Template/Template_Endpoint_Control_R.c **** 			while (Length && Endpoint_BytesInEndpoint())
 2770               		.loc 5 54 0
 2771 004c 892B      		or r24,r25
 2772 004e 01F4      		brne .L241
 2773               	.L240:
 2774               	.LBB399:
 2775               	.LBB400:
 535:lufa-lib-svn/LUFA/Drivers/USB/Core/AVR8/../AVR8/../AVR8/Endpoint_AVR8.h **** 					UEINTX &= ~((1 << RXOUTI) | (1 << FIFOCON));
 2776               		.loc 2 535 0
 2777 0050 8091 E800 		lds r24,232
 2778 0054 8B77      		andi r24,lo8(123)
 2779 0056 8093 E800 		sts 232,r24
 2780               	.L252:
 2781               	.LBE400:
 2782               	.LBE399:
 2783               	.LBE390:
  41:lufa-lib-svn/LUFA/Drivers/USB/Core/AVR8/Template/Template_Endpoint_Control_R.c **** 	while (Length)
 2784               		.loc 5 41 0 discriminator 1
 2785 005a 6115      		cp r22,__zero_reg__
 2786 005c 7105      		cpc r23,__zero_reg__
 2787 005e 01F4      		brne .L253
 2788               	.L248:
 2789               	.LBB401:
 2790               	.LBB402:
 471:lufa-lib-svn/LUFA/Drivers/USB/Core/AVR8/../AVR8/../AVR8/Endpoint_AVR8.h **** 				return ((UEINTX & (1 << TXINI)) ? true : false);
 2791               		.loc 2 471 0
 2792 0060 8091 E800 		lds r24,232
 2793               	.LBE402:
 2794               	.LBE401:
