   1               		.file	"DeviceStandardReq.c"
   2               	__SP_H__ = 0x3e
   3               	__SP_L__ = 0x3d
   4               	__SREG__ = 0x3f
   5               	__tmp_reg__ = 0
   6               	__zero_reg__ = 1
   7               		.text
   8               	.Ltext0:
   9               		.cfi_sections	.debug_frame
  10               		.section	.text.USB_Device_ProcessControlRequest,"ax",@progbits
  11               	.global	USB_Device_ProcessControlRequest
  13               	USB_Device_ProcessControlRequest:
  14               	.LFB84:
  15               		.file 1 "lufa-lib-svn/LUFA/Drivers/USB/Core/DeviceStandardReq.c"
   1:lufa-lib-svn/LUFA/Drivers/USB/Core/DeviceStandardReq.c **** /*
   2:lufa-lib-svn/LUFA/Drivers/USB/Core/DeviceStandardReq.c ****              LUFA Library
   3:lufa-lib-svn/LUFA/Drivers/USB/Core/DeviceStandardReq.c ****      Copyright (C) Dean Camera, 2011.
   4:lufa-lib-svn/LUFA/Drivers/USB/Core/DeviceStandardReq.c **** 
   5:lufa-lib-svn/LUFA/Drivers/USB/Core/DeviceStandardReq.c ****   dean [at] fourwalledcubicle [dot] com
   6:lufa-lib-svn/LUFA/Drivers/USB/Core/DeviceStandardReq.c ****            www.lufa-lib.org
   7:lufa-lib-svn/LUFA/Drivers/USB/Core/DeviceStandardReq.c **** */
   8:lufa-lib-svn/LUFA/Drivers/USB/Core/DeviceStandardReq.c **** 
   9:lufa-lib-svn/LUFA/Drivers/USB/Core/DeviceStandardReq.c **** /*
  10:lufa-lib-svn/LUFA/Drivers/USB/Core/DeviceStandardReq.c ****   Copyright 2011  Dean Camera (dean [at] fourwalledcubicle [dot] com)
  11:lufa-lib-svn/LUFA/Drivers/USB/Core/DeviceStandardReq.c **** 
  12:lufa-lib-svn/LUFA/Drivers/USB/Core/DeviceStandardReq.c ****   Permission to use, copy, modify, distribute, and sell this
  13:lufa-lib-svn/LUFA/Drivers/USB/Core/DeviceStandardReq.c ****   software and its documentation for any purpose is hereby granted
  14:lufa-lib-svn/LUFA/Drivers/USB/Core/DeviceStandardReq.c ****   without fee, provided that the above copyright notice appear in
  15:lufa-lib-svn/LUFA/Drivers/USB/Core/DeviceStandardReq.c ****   all copies and that both that the copyright notice and this
  16:lufa-lib-svn/LUFA/Drivers/USB/Core/DeviceStandardReq.c ****   permission notice and warranty disclaimer appear in supporting
  17:lufa-lib-svn/LUFA/Drivers/USB/Core/DeviceStandardReq.c ****   documentation, and that the name of the author not be used in
  18:lufa-lib-svn/LUFA/Drivers/USB/Core/DeviceStandardReq.c ****   advertising or publicity pertaining to distribution of the
  19:lufa-lib-svn/LUFA/Drivers/USB/Core/DeviceStandardReq.c ****   software without specific, written prior permission.
  20:lufa-lib-svn/LUFA/Drivers/USB/Core/DeviceStandardReq.c **** 
  21:lufa-lib-svn/LUFA/Drivers/USB/Core/DeviceStandardReq.c ****   The author disclaim all warranties with regard to this
  22:lufa-lib-svn/LUFA/Drivers/USB/Core/DeviceStandardReq.c ****   software, including all implied warranties of merchantability
  23:lufa-lib-svn/LUFA/Drivers/USB/Core/DeviceStandardReq.c ****   and fitness.  In no event shall the author be liable for any
  24:lufa-lib-svn/LUFA/Drivers/USB/Core/DeviceStandardReq.c ****   special, indirect or consequential damages or any damages
  25:lufa-lib-svn/LUFA/Drivers/USB/Core/DeviceStandardReq.c ****   whatsoever resulting from loss of use, data or profits, whether
  26:lufa-lib-svn/LUFA/Drivers/USB/Core/DeviceStandardReq.c ****   in an action of contract, negligence or other tortious action,
  27:lufa-lib-svn/LUFA/Drivers/USB/Core/DeviceStandardReq.c ****   arising out of or in connection with the use or performance of
  28:lufa-lib-svn/LUFA/Drivers/USB/Core/DeviceStandardReq.c ****   this software.
  29:lufa-lib-svn/LUFA/Drivers/USB/Core/DeviceStandardReq.c **** */
  30:lufa-lib-svn/LUFA/Drivers/USB/Core/DeviceStandardReq.c **** 
  31:lufa-lib-svn/LUFA/Drivers/USB/Core/DeviceStandardReq.c **** #define  __INCLUDE_FROM_USB_DRIVER
  32:lufa-lib-svn/LUFA/Drivers/USB/Core/DeviceStandardReq.c **** #include "USBMode.h"
  33:lufa-lib-svn/LUFA/Drivers/USB/Core/DeviceStandardReq.c **** 
  34:lufa-lib-svn/LUFA/Drivers/USB/Core/DeviceStandardReq.c **** #if defined(USB_CAN_BE_DEVICE)
  35:lufa-lib-svn/LUFA/Drivers/USB/Core/DeviceStandardReq.c **** 
  36:lufa-lib-svn/LUFA/Drivers/USB/Core/DeviceStandardReq.c **** #define  __INCLUDE_FROM_DEVICESTDREQ_C
  37:lufa-lib-svn/LUFA/Drivers/USB/Core/DeviceStandardReq.c **** #include "DeviceStandardReq.h"
  38:lufa-lib-svn/LUFA/Drivers/USB/Core/DeviceStandardReq.c **** 
  39:lufa-lib-svn/LUFA/Drivers/USB/Core/DeviceStandardReq.c **** uint8_t USB_Device_ConfigurationNumber;
  40:lufa-lib-svn/LUFA/Drivers/USB/Core/DeviceStandardReq.c **** 
  41:lufa-lib-svn/LUFA/Drivers/USB/Core/DeviceStandardReq.c **** #if !defined(NO_DEVICE_SELF_POWER)
  42:lufa-lib-svn/LUFA/Drivers/USB/Core/DeviceStandardReq.c **** bool    USB_Device_CurrentlySelfPowered;
  43:lufa-lib-svn/LUFA/Drivers/USB/Core/DeviceStandardReq.c **** #endif
  44:lufa-lib-svn/LUFA/Drivers/USB/Core/DeviceStandardReq.c **** 
  45:lufa-lib-svn/LUFA/Drivers/USB/Core/DeviceStandardReq.c **** #if !defined(NO_DEVICE_REMOTE_WAKEUP)
  46:lufa-lib-svn/LUFA/Drivers/USB/Core/DeviceStandardReq.c **** bool    USB_Device_RemoteWakeupEnabled;
  47:lufa-lib-svn/LUFA/Drivers/USB/Core/DeviceStandardReq.c **** #endif
  48:lufa-lib-svn/LUFA/Drivers/USB/Core/DeviceStandardReq.c **** 
  49:lufa-lib-svn/LUFA/Drivers/USB/Core/DeviceStandardReq.c **** void USB_Device_ProcessControlRequest(void)
  50:lufa-lib-svn/LUFA/Drivers/USB/Core/DeviceStandardReq.c **** {
  16               		.loc 1 50 0
  17               		.cfi_startproc
  18 0000 EF92      		push r14
  19               	.LCFI0:
  20               		.cfi_def_cfa_offset 3
  21               		.cfi_offset 14, -2
  22 0002 FF92      		push r15
  23               	.LCFI1:
  24               		.cfi_def_cfa_offset 4
  25               		.cfi_offset 15, -3
  26 0004 0F93      		push r16
  27               	.LCFI2:
  28               		.cfi_def_cfa_offset 5
  29               		.cfi_offset 16, -4
  30 0006 1F93      		push r17
  31               	.LCFI3:
  32               		.cfi_def_cfa_offset 6
  33               		.cfi_offset 17, -5
  34 0008 CF93      		push r28
  35               	.LCFI4:
  36               		.cfi_def_cfa_offset 7
  37               		.cfi_offset 28, -6
  38 000a DF93      		push r29
  39               	.LCFI5:
  40               		.cfi_def_cfa_offset 8
  41               		.cfi_offset 29, -7
  42 000c CDB7      		in r28,__SP_L__
  43 000e DEB7      		in r29,__SP_H__
  44               	.LCFI6:
  45               		.cfi_def_cfa_register 28
  46 0010 AC97      		sbiw r28,44
  47               	.LCFI7:
  48               		.cfi_def_cfa_offset 52
  49 0012 0FB6      		in __tmp_reg__,__SREG__
  50 0014 F894      		cli
  51 0016 DEBF      		out __SP_H__,r29
  52 0018 0FBE      		out __SREG__,__tmp_reg__
  53 001a CDBF      		out __SP_L__,r28
  54               	/* prologue: function */
  55               	/* frame size = 44 */
  56               	/* stack size = 50 */
  57               	.L__stack_usage = 50
  58               	.LVL0:
  51:lufa-lib-svn/LUFA/Drivers/USB/Core/DeviceStandardReq.c **** 	#if defined(ARCH_BIG_ENDIAN)
  52:lufa-lib-svn/LUFA/Drivers/USB/Core/DeviceStandardReq.c **** 	USB_ControlRequest.bmRequestType = Endpoint_Read_8();
  53:lufa-lib-svn/LUFA/Drivers/USB/Core/DeviceStandardReq.c **** 	USB_ControlRequest.bRequest      = Endpoint_Read_8();
  54:lufa-lib-svn/LUFA/Drivers/USB/Core/DeviceStandardReq.c **** 	USB_ControlRequest.wValue        = Endpoint_Read_16_LE();
  55:lufa-lib-svn/LUFA/Drivers/USB/Core/DeviceStandardReq.c **** 	USB_ControlRequest.wIndex        = Endpoint_Read_16_LE();
  56:lufa-lib-svn/LUFA/Drivers/USB/Core/DeviceStandardReq.c **** 	USB_ControlRequest.wLength       = Endpoint_Read_16_LE();
  57:lufa-lib-svn/LUFA/Drivers/USB/Core/DeviceStandardReq.c **** 	#else
  58:lufa-lib-svn/LUFA/Drivers/USB/Core/DeviceStandardReq.c **** 	uint8_t* RequestHeader = (uint8_t*)&USB_ControlRequest;
  59               		.loc 1 58 0
  60 001c E0E0      		ldi r30,lo8(USB_ControlRequest)
  61 001e F0E0      		ldi r31,hi8(USB_ControlRequest)
  62               	.LVL1:
  63               	.L2:
  64               	.LBB178:
  65               	.LBB179:
  66               	.LBB180:
  67               		.file 2 "lufa-lib-svn/LUFA/Drivers/USB/Core/AVR8/../AVR8/Endpoint_AVR8.h"
   1:lufa-lib-svn/LUFA/Drivers/USB/Core/AVR8/../AVR8/Endpoint_AVR8.h **** /*
   2:lufa-lib-svn/LUFA/Drivers/USB/Core/AVR8/../AVR8/Endpoint_AVR8.h ****              LUFA Library
   3:lufa-lib-svn/LUFA/Drivers/USB/Core/AVR8/../AVR8/Endpoint_AVR8.h ****      Copyright (C) Dean Camera, 2011.
   4:lufa-lib-svn/LUFA/Drivers/USB/Core/AVR8/../AVR8/Endpoint_AVR8.h **** 
   5:lufa-lib-svn/LUFA/Drivers/USB/Core/AVR8/../AVR8/Endpoint_AVR8.h ****   dean [at] fourwalledcubicle [dot] com
   6:lufa-lib-svn/LUFA/Drivers/USB/Core/AVR8/../AVR8/Endpoint_AVR8.h ****            www.lufa-lib.org
   7:lufa-lib-svn/LUFA/Drivers/USB/Core/AVR8/../AVR8/Endpoint_AVR8.h **** */
   8:lufa-lib-svn/LUFA/Drivers/USB/Core/AVR8/../AVR8/Endpoint_AVR8.h **** 
   9:lufa-lib-svn/LUFA/Drivers/USB/Core/AVR8/../AVR8/Endpoint_AVR8.h **** /*
  10:lufa-lib-svn/LUFA/Drivers/USB/Core/AVR8/../AVR8/Endpoint_AVR8.h ****   Copyright 2011  Dean Camera (dean [at] fourwalledcubicle [dot] com)
  11:lufa-lib-svn/LUFA/Drivers/USB/Core/AVR8/../AVR8/Endpoint_AVR8.h **** 
  12:lufa-lib-svn/LUFA/Drivers/USB/Core/AVR8/../AVR8/Endpoint_AVR8.h ****   Permission to use, copy, modify, distribute, and sell this
  13:lufa-lib-svn/LUFA/Drivers/USB/Core/AVR8/../AVR8/Endpoint_AVR8.h ****   software and its documentation for any purpose is hereby granted
  14:lufa-lib-svn/LUFA/Drivers/USB/Core/AVR8/../AVR8/Endpoint_AVR8.h ****   without fee, provided that the above copyright notice appear in
  15:lufa-lib-svn/LUFA/Drivers/USB/Core/AVR8/../AVR8/Endpoint_AVR8.h ****   all copies and that both that the copyright notice and this
  16:lufa-lib-svn/LUFA/Drivers/USB/Core/AVR8/../AVR8/Endpoint_AVR8.h ****   permission notice and warranty disclaimer appear in supporting
  17:lufa-lib-svn/LUFA/Drivers/USB/Core/AVR8/../AVR8/Endpoint_AVR8.h ****   documentation, and that the name of the author not be used in
  18:lufa-lib-svn/LUFA/Drivers/USB/Core/AVR8/../AVR8/Endpoint_AVR8.h ****   advertising or publicity pertaining to distribution of the
  19:lufa-lib-svn/LUFA/Drivers/USB/Core/AVR8/../AVR8/Endpoint_AVR8.h ****   software without specific, written prior permission.
  20:lufa-lib-svn/LUFA/Drivers/USB/Core/AVR8/../AVR8/Endpoint_AVR8.h **** 
  21:lufa-lib-svn/LUFA/Drivers/USB/Core/AVR8/../AVR8/Endpoint_AVR8.h ****   The author disclaim all warranties with regard to this
  22:lufa-lib-svn/LUFA/Drivers/USB/Core/AVR8/../AVR8/Endpoint_AVR8.h ****   software, including all implied warranties of merchantability
  23:lufa-lib-svn/LUFA/Drivers/USB/Core/AVR8/../AVR8/Endpoint_AVR8.h ****   and fitness.  In no event shall the author be liable for any
  24:lufa-lib-svn/LUFA/Drivers/USB/Core/AVR8/../AVR8/Endpoint_AVR8.h ****   special, indirect or consequential damages or any damages
  25:lufa-lib-svn/LUFA/Drivers/USB/Core/AVR8/../AVR8/Endpoint_AVR8.h ****   whatsoever resulting from loss of use, data or profits, whether
  26:lufa-lib-svn/LUFA/Drivers/USB/Core/AVR8/../AVR8/Endpoint_AVR8.h ****   in an action of contract, negligence or other tortious action,
  27:lufa-lib-svn/LUFA/Drivers/USB/Core/AVR8/../AVR8/Endpoint_AVR8.h ****   arising out of or in connection with the use or performance of
  28:lufa-lib-svn/LUFA/Drivers/USB/Core/AVR8/../AVR8/Endpoint_AVR8.h ****   this software.
  29:lufa-lib-svn/LUFA/Drivers/USB/Core/AVR8/../AVR8/Endpoint_AVR8.h **** */
  30:lufa-lib-svn/LUFA/Drivers/USB/Core/AVR8/../AVR8/Endpoint_AVR8.h **** 
  31:lufa-lib-svn/LUFA/Drivers/USB/Core/AVR8/../AVR8/Endpoint_AVR8.h **** /** \file
  32:lufa-lib-svn/LUFA/Drivers/USB/Core/AVR8/../AVR8/Endpoint_AVR8.h ****  *  \brief USB Endpoint definitions for the AVR8 microcontrollers.
  33:lufa-lib-svn/LUFA/Drivers/USB/Core/AVR8/../AVR8/Endpoint_AVR8.h ****  *  \copydetails Group_EndpointManagement_AVR8
  34:lufa-lib-svn/LUFA/Drivers/USB/Core/AVR8/../AVR8/Endpoint_AVR8.h ****  *
  35:lufa-lib-svn/LUFA/Drivers/USB/Core/AVR8/../AVR8/Endpoint_AVR8.h ****  *  \note This file should not be included directly. It is automatically included as needed by the 
  36:lufa-lib-svn/LUFA/Drivers/USB/Core/AVR8/../AVR8/Endpoint_AVR8.h ****  *        dispatch header located in LUFA/Drivers/USB/USB.h.
  37:lufa-lib-svn/LUFA/Drivers/USB/Core/AVR8/../AVR8/Endpoint_AVR8.h ****  */
  38:lufa-lib-svn/LUFA/Drivers/USB/Core/AVR8/../AVR8/Endpoint_AVR8.h **** 
  39:lufa-lib-svn/LUFA/Drivers/USB/Core/AVR8/../AVR8/Endpoint_AVR8.h **** /** \ingroup Group_EndpointRW
  40:lufa-lib-svn/LUFA/Drivers/USB/Core/AVR8/../AVR8/Endpoint_AVR8.h ****  *  \defgroup Group_EndpointRW_AVR8 Endpoint Data Reading and Writing (AVR8)
  41:lufa-lib-svn/LUFA/Drivers/USB/Core/AVR8/../AVR8/Endpoint_AVR8.h ****  *  \brief Endpoint data read/write definitions for the Atmel AVR8 architecture.
  42:lufa-lib-svn/LUFA/Drivers/USB/Core/AVR8/../AVR8/Endpoint_AVR8.h ****  *
  43:lufa-lib-svn/LUFA/Drivers/USB/Core/AVR8/../AVR8/Endpoint_AVR8.h ****  *  Functions, macros, variables, enums and types related to data reading and writing from and to e
  44:lufa-lib-svn/LUFA/Drivers/USB/Core/AVR8/../AVR8/Endpoint_AVR8.h ****  */
  45:lufa-lib-svn/LUFA/Drivers/USB/Core/AVR8/../AVR8/Endpoint_AVR8.h **** 
  46:lufa-lib-svn/LUFA/Drivers/USB/Core/AVR8/../AVR8/Endpoint_AVR8.h **** /** \ingroup Group_EndpointPrimitiveRW
  47:lufa-lib-svn/LUFA/Drivers/USB/Core/AVR8/../AVR8/Endpoint_AVR8.h ****  *  \defgroup Group_EndpointPrimitiveRW_AVR8 Read/Write of Primitive Data Types (AVR8)
  48:lufa-lib-svn/LUFA/Drivers/USB/Core/AVR8/../AVR8/Endpoint_AVR8.h ****  *  \brief Endpoint primitive read/write definitions for the Atmel AVR8 architecture.
  49:lufa-lib-svn/LUFA/Drivers/USB/Core/AVR8/../AVR8/Endpoint_AVR8.h ****  *
  50:lufa-lib-svn/LUFA/Drivers/USB/Core/AVR8/../AVR8/Endpoint_AVR8.h ****  *  Functions, macros, variables, enums and types related to data reading and writing of primitive 
  51:lufa-lib-svn/LUFA/Drivers/USB/Core/AVR8/../AVR8/Endpoint_AVR8.h ****  *  from and to endpoints.
  52:lufa-lib-svn/LUFA/Drivers/USB/Core/AVR8/../AVR8/Endpoint_AVR8.h ****  */
  53:lufa-lib-svn/LUFA/Drivers/USB/Core/AVR8/../AVR8/Endpoint_AVR8.h **** 
  54:lufa-lib-svn/LUFA/Drivers/USB/Core/AVR8/../AVR8/Endpoint_AVR8.h **** /** \ingroup Group_EndpointPacketManagement
  55:lufa-lib-svn/LUFA/Drivers/USB/Core/AVR8/../AVR8/Endpoint_AVR8.h ****  *  \defgroup Group_EndpointPacketManagement_AVR8 Endpoint Packet Management (AVR8)
  56:lufa-lib-svn/LUFA/Drivers/USB/Core/AVR8/../AVR8/Endpoint_AVR8.h ****  *  \brief Endpoint packet management definitions for the Atmel AVR8 architecture.
  57:lufa-lib-svn/LUFA/Drivers/USB/Core/AVR8/../AVR8/Endpoint_AVR8.h ****  *
  58:lufa-lib-svn/LUFA/Drivers/USB/Core/AVR8/../AVR8/Endpoint_AVR8.h ****  *  Functions, macros, variables, enums and types related to packet management of endpoints.
  59:lufa-lib-svn/LUFA/Drivers/USB/Core/AVR8/../AVR8/Endpoint_AVR8.h ****  */
  60:lufa-lib-svn/LUFA/Drivers/USB/Core/AVR8/../AVR8/Endpoint_AVR8.h **** 
  61:lufa-lib-svn/LUFA/Drivers/USB/Core/AVR8/../AVR8/Endpoint_AVR8.h **** /** \ingroup Group_EndpointManagement
  62:lufa-lib-svn/LUFA/Drivers/USB/Core/AVR8/../AVR8/Endpoint_AVR8.h ****  *  \defgroup Group_EndpointManagement_AVR8 Endpoint Management (AVR8)
  63:lufa-lib-svn/LUFA/Drivers/USB/Core/AVR8/../AVR8/Endpoint_AVR8.h ****  *  \brief Endpoint management definitions for the Atmel AVR8 architecture.
  64:lufa-lib-svn/LUFA/Drivers/USB/Core/AVR8/../AVR8/Endpoint_AVR8.h ****  *
  65:lufa-lib-svn/LUFA/Drivers/USB/Core/AVR8/../AVR8/Endpoint_AVR8.h ****  *  Functions, macros and enums related to endpoint management when in USB Device mode. This
  66:lufa-lib-svn/LUFA/Drivers/USB/Core/AVR8/../AVR8/Endpoint_AVR8.h ****  *  module contains the endpoint management macros, as well as endpoint interrupt and data
  67:lufa-lib-svn/LUFA/Drivers/USB/Core/AVR8/../AVR8/Endpoint_AVR8.h ****  *  send/receive functions for various data types.
  68:lufa-lib-svn/LUFA/Drivers/USB/Core/AVR8/../AVR8/Endpoint_AVR8.h ****  *
  69:lufa-lib-svn/LUFA/Drivers/USB/Core/AVR8/../AVR8/Endpoint_AVR8.h ****  *  @{
  70:lufa-lib-svn/LUFA/Drivers/USB/Core/AVR8/../AVR8/Endpoint_AVR8.h ****  */
  71:lufa-lib-svn/LUFA/Drivers/USB/Core/AVR8/../AVR8/Endpoint_AVR8.h **** 
  72:lufa-lib-svn/LUFA/Drivers/USB/Core/AVR8/../AVR8/Endpoint_AVR8.h **** #ifndef __ENDPOINT_AVR8_H__
  73:lufa-lib-svn/LUFA/Drivers/USB/Core/AVR8/../AVR8/Endpoint_AVR8.h **** #define __ENDPOINT_AVR8_H__
  74:lufa-lib-svn/LUFA/Drivers/USB/Core/AVR8/../AVR8/Endpoint_AVR8.h **** 
  75:lufa-lib-svn/LUFA/Drivers/USB/Core/AVR8/../AVR8/Endpoint_AVR8.h **** 	/* Includes: */
  76:lufa-lib-svn/LUFA/Drivers/USB/Core/AVR8/../AVR8/Endpoint_AVR8.h **** 		#include "../../../../Common/Common.h"
  77:lufa-lib-svn/LUFA/Drivers/USB/Core/AVR8/../AVR8/Endpoint_AVR8.h **** 		#include "../USBTask.h"
  78:lufa-lib-svn/LUFA/Drivers/USB/Core/AVR8/../AVR8/Endpoint_AVR8.h **** 		#include "../USBInterrupt.h"
  79:lufa-lib-svn/LUFA/Drivers/USB/Core/AVR8/../AVR8/Endpoint_AVR8.h **** 
  80:lufa-lib-svn/LUFA/Drivers/USB/Core/AVR8/../AVR8/Endpoint_AVR8.h **** 	/* Enable C linkage for C++ Compilers: */
  81:lufa-lib-svn/LUFA/Drivers/USB/Core/AVR8/../AVR8/Endpoint_AVR8.h **** 		#if defined(__cplusplus)
  82:lufa-lib-svn/LUFA/Drivers/USB/Core/AVR8/../AVR8/Endpoint_AVR8.h **** 			extern "C" {
  83:lufa-lib-svn/LUFA/Drivers/USB/Core/AVR8/../AVR8/Endpoint_AVR8.h **** 		#endif
  84:lufa-lib-svn/LUFA/Drivers/USB/Core/AVR8/../AVR8/Endpoint_AVR8.h **** 
  85:lufa-lib-svn/LUFA/Drivers/USB/Core/AVR8/../AVR8/Endpoint_AVR8.h **** 	/* Preprocessor Checks: */
  86:lufa-lib-svn/LUFA/Drivers/USB/Core/AVR8/../AVR8/Endpoint_AVR8.h **** 		#if !defined(__INCLUDE_FROM_USB_DRIVER)
  87:lufa-lib-svn/LUFA/Drivers/USB/Core/AVR8/../AVR8/Endpoint_AVR8.h **** 			#error Do not include this file directly. Include LUFA/Drivers/USB/USB.h instead.
  88:lufa-lib-svn/LUFA/Drivers/USB/Core/AVR8/../AVR8/Endpoint_AVR8.h **** 		#endif
  89:lufa-lib-svn/LUFA/Drivers/USB/Core/AVR8/../AVR8/Endpoint_AVR8.h **** 
  90:lufa-lib-svn/LUFA/Drivers/USB/Core/AVR8/../AVR8/Endpoint_AVR8.h **** 	/* Private Interface - For use in library only: */
  91:lufa-lib-svn/LUFA/Drivers/USB/Core/AVR8/../AVR8/Endpoint_AVR8.h **** 	#if !defined(__DOXYGEN__)
  92:lufa-lib-svn/LUFA/Drivers/USB/Core/AVR8/../AVR8/Endpoint_AVR8.h **** 		/* Macros: */
  93:lufa-lib-svn/LUFA/Drivers/USB/Core/AVR8/../AVR8/Endpoint_AVR8.h **** 			#define _ENDPOINT_GET_MAXSIZE(EPIndex)         _ENDPOINT_GET_MAXSIZE2(ENDPOINT_DETAILS_EP ## EPI
  94:lufa-lib-svn/LUFA/Drivers/USB/Core/AVR8/../AVR8/Endpoint_AVR8.h **** 			#define _ENDPOINT_GET_MAXSIZE2(EPDetails)      _ENDPOINT_GET_MAXSIZE3(EPDetails)
  95:lufa-lib-svn/LUFA/Drivers/USB/Core/AVR8/../AVR8/Endpoint_AVR8.h **** 			#define _ENDPOINT_GET_MAXSIZE3(MaxSize, Banks) (MaxSize)
  96:lufa-lib-svn/LUFA/Drivers/USB/Core/AVR8/../AVR8/Endpoint_AVR8.h **** 
  97:lufa-lib-svn/LUFA/Drivers/USB/Core/AVR8/../AVR8/Endpoint_AVR8.h **** 			#define _ENDPOINT_GET_BANKS(EPIndex)           _ENDPOINT_GET_BANKS2(ENDPOINT_DETAILS_EP ## EPInd
  98:lufa-lib-svn/LUFA/Drivers/USB/Core/AVR8/../AVR8/Endpoint_AVR8.h **** 			#define _ENDPOINT_GET_BANKS2(EPDetails)        _ENDPOINT_GET_BANKS3(EPDetails)
  99:lufa-lib-svn/LUFA/Drivers/USB/Core/AVR8/../AVR8/Endpoint_AVR8.h **** 			#define _ENDPOINT_GET_BANKS3(MaxSize, Banks)   (Banks)
 100:lufa-lib-svn/LUFA/Drivers/USB/Core/AVR8/../AVR8/Endpoint_AVR8.h **** 
 101:lufa-lib-svn/LUFA/Drivers/USB/Core/AVR8/../AVR8/Endpoint_AVR8.h **** 			#if defined(USB_SERIES_4_AVR) || defined(USB_SERIES_6_AVR) || defined(USB_SERIES_7_AVR)
 102:lufa-lib-svn/LUFA/Drivers/USB/Core/AVR8/../AVR8/Endpoint_AVR8.h **** 				#define ENDPOINT_DETAILS_MAXEP             7
 103:lufa-lib-svn/LUFA/Drivers/USB/Core/AVR8/../AVR8/Endpoint_AVR8.h **** 
 104:lufa-lib-svn/LUFA/Drivers/USB/Core/AVR8/../AVR8/Endpoint_AVR8.h **** 				#define ENDPOINT_DETAILS_EP0               64,  1
 105:lufa-lib-svn/LUFA/Drivers/USB/Core/AVR8/../AVR8/Endpoint_AVR8.h **** 				#define ENDPOINT_DETAILS_EP1               256, 2
 106:lufa-lib-svn/LUFA/Drivers/USB/Core/AVR8/../AVR8/Endpoint_AVR8.h **** 				#define ENDPOINT_DETAILS_EP2               64,  2
 107:lufa-lib-svn/LUFA/Drivers/USB/Core/AVR8/../AVR8/Endpoint_AVR8.h **** 				#define ENDPOINT_DETAILS_EP3               64,  2
 108:lufa-lib-svn/LUFA/Drivers/USB/Core/AVR8/../AVR8/Endpoint_AVR8.h **** 				#define ENDPOINT_DETAILS_EP4               64,  2
 109:lufa-lib-svn/LUFA/Drivers/USB/Core/AVR8/../AVR8/Endpoint_AVR8.h **** 				#define ENDPOINT_DETAILS_EP5               64,  2
 110:lufa-lib-svn/LUFA/Drivers/USB/Core/AVR8/../AVR8/Endpoint_AVR8.h **** 				#define ENDPOINT_DETAILS_EP6               64,  2
 111:lufa-lib-svn/LUFA/Drivers/USB/Core/AVR8/../AVR8/Endpoint_AVR8.h **** 			#else
 112:lufa-lib-svn/LUFA/Drivers/USB/Core/AVR8/../AVR8/Endpoint_AVR8.h **** 				#define ENDPOINT_DETAILS_MAXEP             5
 113:lufa-lib-svn/LUFA/Drivers/USB/Core/AVR8/../AVR8/Endpoint_AVR8.h **** 
 114:lufa-lib-svn/LUFA/Drivers/USB/Core/AVR8/../AVR8/Endpoint_AVR8.h **** 				#define ENDPOINT_DETAILS_EP0               64,  1
 115:lufa-lib-svn/LUFA/Drivers/USB/Core/AVR8/../AVR8/Endpoint_AVR8.h **** 				#define ENDPOINT_DETAILS_EP1               64,  1
 116:lufa-lib-svn/LUFA/Drivers/USB/Core/AVR8/../AVR8/Endpoint_AVR8.h **** 				#define ENDPOINT_DETAILS_EP2               64,  1
 117:lufa-lib-svn/LUFA/Drivers/USB/Core/AVR8/../AVR8/Endpoint_AVR8.h **** 				#define ENDPOINT_DETAILS_EP3               64,  2
 118:lufa-lib-svn/LUFA/Drivers/USB/Core/AVR8/../AVR8/Endpoint_AVR8.h **** 				#define ENDPOINT_DETAILS_EP4               64,  2
 119:lufa-lib-svn/LUFA/Drivers/USB/Core/AVR8/../AVR8/Endpoint_AVR8.h **** 			#endif
 120:lufa-lib-svn/LUFA/Drivers/USB/Core/AVR8/../AVR8/Endpoint_AVR8.h **** 
 121:lufa-lib-svn/LUFA/Drivers/USB/Core/AVR8/../AVR8/Endpoint_AVR8.h **** 		/* Inline Functions: */
 122:lufa-lib-svn/LUFA/Drivers/USB/Core/AVR8/../AVR8/Endpoint_AVR8.h **** 			static inline uint8_t Endpoint_BytesToEPSizeMask(const uint16_t Bytes) ATTR_WARN_UNUSED_RESULT A
 123:lufa-lib-svn/LUFA/Drivers/USB/Core/AVR8/../AVR8/Endpoint_AVR8.h **** 			                                                                       ATTR_ALWAYS_INLINE;
 124:lufa-lib-svn/LUFA/Drivers/USB/Core/AVR8/../AVR8/Endpoint_AVR8.h **** 			static inline uint8_t Endpoint_BytesToEPSizeMask(const uint16_t Bytes)
 125:lufa-lib-svn/LUFA/Drivers/USB/Core/AVR8/../AVR8/Endpoint_AVR8.h **** 			{
 126:lufa-lib-svn/LUFA/Drivers/USB/Core/AVR8/../AVR8/Endpoint_AVR8.h **** 				uint8_t  MaskVal    = 0;
 127:lufa-lib-svn/LUFA/Drivers/USB/Core/AVR8/../AVR8/Endpoint_AVR8.h **** 				uint16_t CheckBytes = 8;
 128:lufa-lib-svn/LUFA/Drivers/USB/Core/AVR8/../AVR8/Endpoint_AVR8.h **** 
 129:lufa-lib-svn/LUFA/Drivers/USB/Core/AVR8/../AVR8/Endpoint_AVR8.h **** 				while (CheckBytes < Bytes)
 130:lufa-lib-svn/LUFA/Drivers/USB/Core/AVR8/../AVR8/Endpoint_AVR8.h **** 				{
 131:lufa-lib-svn/LUFA/Drivers/USB/Core/AVR8/../AVR8/Endpoint_AVR8.h **** 					MaskVal++;
 132:lufa-lib-svn/LUFA/Drivers/USB/Core/AVR8/../AVR8/Endpoint_AVR8.h **** 					CheckBytes <<= 1;
 133:lufa-lib-svn/LUFA/Drivers/USB/Core/AVR8/../AVR8/Endpoint_AVR8.h **** 				}
 134:lufa-lib-svn/LUFA/Drivers/USB/Core/AVR8/../AVR8/Endpoint_AVR8.h **** 
 135:lufa-lib-svn/LUFA/Drivers/USB/Core/AVR8/../AVR8/Endpoint_AVR8.h **** 				return (MaskVal << EPSIZE0);
 136:lufa-lib-svn/LUFA/Drivers/USB/Core/AVR8/../AVR8/Endpoint_AVR8.h **** 			}
 137:lufa-lib-svn/LUFA/Drivers/USB/Core/AVR8/../AVR8/Endpoint_AVR8.h **** 
 138:lufa-lib-svn/LUFA/Drivers/USB/Core/AVR8/../AVR8/Endpoint_AVR8.h **** 		/* Function Prototypes: */
 139:lufa-lib-svn/LUFA/Drivers/USB/Core/AVR8/../AVR8/Endpoint_AVR8.h **** 			void Endpoint_ClearEndpoints(void);
 140:lufa-lib-svn/LUFA/Drivers/USB/Core/AVR8/../AVR8/Endpoint_AVR8.h **** 			bool Endpoint_ConfigureEndpoint_Prv(const uint8_t Number,
 141:lufa-lib-svn/LUFA/Drivers/USB/Core/AVR8/../AVR8/Endpoint_AVR8.h **** 			                                    const uint8_t UECFG0XData,
 142:lufa-lib-svn/LUFA/Drivers/USB/Core/AVR8/../AVR8/Endpoint_AVR8.h **** 			                                    const uint8_t UECFG1XData);
 143:lufa-lib-svn/LUFA/Drivers/USB/Core/AVR8/../AVR8/Endpoint_AVR8.h **** 
 144:lufa-lib-svn/LUFA/Drivers/USB/Core/AVR8/../AVR8/Endpoint_AVR8.h **** 	#endif
 145:lufa-lib-svn/LUFA/Drivers/USB/Core/AVR8/../AVR8/Endpoint_AVR8.h **** 
 146:lufa-lib-svn/LUFA/Drivers/USB/Core/AVR8/../AVR8/Endpoint_AVR8.h **** 	/* Public Interface - May be used in end-application: */
 147:lufa-lib-svn/LUFA/Drivers/USB/Core/AVR8/../AVR8/Endpoint_AVR8.h **** 		/* Macros: */
 148:lufa-lib-svn/LUFA/Drivers/USB/Core/AVR8/../AVR8/Endpoint_AVR8.h **** 			/** \name Endpoint Bank Mode Masks */
 149:lufa-lib-svn/LUFA/Drivers/USB/Core/AVR8/../AVR8/Endpoint_AVR8.h **** 			//@{
 150:lufa-lib-svn/LUFA/Drivers/USB/Core/AVR8/../AVR8/Endpoint_AVR8.h **** 			/** Mask for the bank mode selection for the \ref Endpoint_ConfigureEndpoint() macro. This indic
 151:lufa-lib-svn/LUFA/Drivers/USB/Core/AVR8/../AVR8/Endpoint_AVR8.h **** 			 *  that the endpoint should have one single bank, which requires less USB FIFO memory but resul
 152:lufa-lib-svn/LUFA/Drivers/USB/Core/AVR8/../AVR8/Endpoint_AVR8.h **** 			 *  in slower transfers as only one USB device (the AVR or the host) can access the endpoint's
 153:lufa-lib-svn/LUFA/Drivers/USB/Core/AVR8/../AVR8/Endpoint_AVR8.h **** 			 *  bank at the one time.
 154:lufa-lib-svn/LUFA/Drivers/USB/Core/AVR8/../AVR8/Endpoint_AVR8.h **** 			 */
 155:lufa-lib-svn/LUFA/Drivers/USB/Core/AVR8/../AVR8/Endpoint_AVR8.h **** 			#define ENDPOINT_BANK_SINGLE                    (0 << EPBK0)
 156:lufa-lib-svn/LUFA/Drivers/USB/Core/AVR8/../AVR8/Endpoint_AVR8.h **** 
 157:lufa-lib-svn/LUFA/Drivers/USB/Core/AVR8/../AVR8/Endpoint_AVR8.h **** 			/** Mask for the bank mode selection for the \ref Endpoint_ConfigureEndpoint() macro. This indic
 158:lufa-lib-svn/LUFA/Drivers/USB/Core/AVR8/../AVR8/Endpoint_AVR8.h **** 			 *  that the endpoint should have two banks, which requires more USB FIFO memory but results
 159:lufa-lib-svn/LUFA/Drivers/USB/Core/AVR8/../AVR8/Endpoint_AVR8.h **** 			 *  in faster transfers as one USB device (the AVR or the host) can access one bank while the ot
 160:lufa-lib-svn/LUFA/Drivers/USB/Core/AVR8/../AVR8/Endpoint_AVR8.h **** 			 *  accesses the second bank.
 161:lufa-lib-svn/LUFA/Drivers/USB/Core/AVR8/../AVR8/Endpoint_AVR8.h **** 			 */
 162:lufa-lib-svn/LUFA/Drivers/USB/Core/AVR8/../AVR8/Endpoint_AVR8.h **** 			#define ENDPOINT_BANK_DOUBLE                    (1 << EPBK0)
 163:lufa-lib-svn/LUFA/Drivers/USB/Core/AVR8/../AVR8/Endpoint_AVR8.h **** 			//@}
 164:lufa-lib-svn/LUFA/Drivers/USB/Core/AVR8/../AVR8/Endpoint_AVR8.h **** 
 165:lufa-lib-svn/LUFA/Drivers/USB/Core/AVR8/../AVR8/Endpoint_AVR8.h **** 			#if (!defined(FIXED_CONTROL_ENDPOINT_SIZE) || defined(__DOXYGEN__))
 166:lufa-lib-svn/LUFA/Drivers/USB/Core/AVR8/../AVR8/Endpoint_AVR8.h **** 				/** Default size of the default control endpoint's bank, until altered by the control endpoint 
 167:lufa-lib-svn/LUFA/Drivers/USB/Core/AVR8/../AVR8/Endpoint_AVR8.h **** 				 *  value in the device descriptor. Not available if the \c FIXED_CONTROL_ENDPOINT_SIZE token i
 168:lufa-lib-svn/LUFA/Drivers/USB/Core/AVR8/../AVR8/Endpoint_AVR8.h **** 				 */
 169:lufa-lib-svn/LUFA/Drivers/USB/Core/AVR8/../AVR8/Endpoint_AVR8.h **** 				#define ENDPOINT_CONTROLEP_DEFAULT_SIZE     8
 170:lufa-lib-svn/LUFA/Drivers/USB/Core/AVR8/../AVR8/Endpoint_AVR8.h **** 			#endif
 171:lufa-lib-svn/LUFA/Drivers/USB/Core/AVR8/../AVR8/Endpoint_AVR8.h **** 
 172:lufa-lib-svn/LUFA/Drivers/USB/Core/AVR8/../AVR8/Endpoint_AVR8.h **** 			/** Retrieves the maximum bank size in bytes of a given endpoint.
 173:lufa-lib-svn/LUFA/Drivers/USB/Core/AVR8/../AVR8/Endpoint_AVR8.h **** 			 *
 174:lufa-lib-svn/LUFA/Drivers/USB/Core/AVR8/../AVR8/Endpoint_AVR8.h **** 			 *  \note This macro will only work correctly on endpoint indexes that are compile-time constant
 175:lufa-lib-svn/LUFA/Drivers/USB/Core/AVR8/../AVR8/Endpoint_AVR8.h **** 			 *        defined by the preprocessor.
 176:lufa-lib-svn/LUFA/Drivers/USB/Core/AVR8/../AVR8/Endpoint_AVR8.h **** 			 *
 177:lufa-lib-svn/LUFA/Drivers/USB/Core/AVR8/../AVR8/Endpoint_AVR8.h **** 			 *  \param[in] EPIndex  Endpoint number, a value between 0 and (\ref ENDPOINT_TOTAL_ENDPOINTS - 
 178:lufa-lib-svn/LUFA/Drivers/USB/Core/AVR8/../AVR8/Endpoint_AVR8.h **** 			 */
 179:lufa-lib-svn/LUFA/Drivers/USB/Core/AVR8/../AVR8/Endpoint_AVR8.h **** 			#define ENDPOINT_MAX_SIZE(EPIndex)              _ENDPOINT_GET_MAXSIZE(EPIndex)
 180:lufa-lib-svn/LUFA/Drivers/USB/Core/AVR8/../AVR8/Endpoint_AVR8.h **** 
 181:lufa-lib-svn/LUFA/Drivers/USB/Core/AVR8/../AVR8/Endpoint_AVR8.h **** 			/** Retrieves the total number of banks supported by the given endpoint.
 182:lufa-lib-svn/LUFA/Drivers/USB/Core/AVR8/../AVR8/Endpoint_AVR8.h **** 			 *
 183:lufa-lib-svn/LUFA/Drivers/USB/Core/AVR8/../AVR8/Endpoint_AVR8.h **** 			 *  \note This macro will only work correctly on endpoint indexes that are compile-time constant
 184:lufa-lib-svn/LUFA/Drivers/USB/Core/AVR8/../AVR8/Endpoint_AVR8.h **** 			 *        defined by the preprocessor.
 185:lufa-lib-svn/LUFA/Drivers/USB/Core/AVR8/../AVR8/Endpoint_AVR8.h **** 			 *
 186:lufa-lib-svn/LUFA/Drivers/USB/Core/AVR8/../AVR8/Endpoint_AVR8.h **** 			 *  \param[in] EPIndex  Endpoint number, a value between 0 and (\ref ENDPOINT_TOTAL_ENDPOINTS - 
 187:lufa-lib-svn/LUFA/Drivers/USB/Core/AVR8/../AVR8/Endpoint_AVR8.h **** 			 */
 188:lufa-lib-svn/LUFA/Drivers/USB/Core/AVR8/../AVR8/Endpoint_AVR8.h **** 			#define ENDPOINT_BANKS_SUPPORTED(EPIndex)       _ENDPOINT_GET_BANKS(EPIndex)
 189:lufa-lib-svn/LUFA/Drivers/USB/Core/AVR8/../AVR8/Endpoint_AVR8.h **** 
 190:lufa-lib-svn/LUFA/Drivers/USB/Core/AVR8/../AVR8/Endpoint_AVR8.h **** 			#if !defined(CONTROL_ONLY_DEVICE) || defined(__DOXYGEN__)
 191:lufa-lib-svn/LUFA/Drivers/USB/Core/AVR8/../AVR8/Endpoint_AVR8.h **** 				/** Total number of endpoints (including the default control endpoint at address 0) which may
 192:lufa-lib-svn/LUFA/Drivers/USB/Core/AVR8/../AVR8/Endpoint_AVR8.h **** 				 *  be used in the device. Different USB AVR models support different amounts of endpoints,
 193:lufa-lib-svn/LUFA/Drivers/USB/Core/AVR8/../AVR8/Endpoint_AVR8.h **** 				 *  this value reflects the maximum number of endpoints for the currently selected AVR model.
 194:lufa-lib-svn/LUFA/Drivers/USB/Core/AVR8/../AVR8/Endpoint_AVR8.h **** 				 */
 195:lufa-lib-svn/LUFA/Drivers/USB/Core/AVR8/../AVR8/Endpoint_AVR8.h **** 				#define ENDPOINT_TOTAL_ENDPOINTS            ENDPOINT_DETAILS_MAXEP
 196:lufa-lib-svn/LUFA/Drivers/USB/Core/AVR8/../AVR8/Endpoint_AVR8.h **** 			#else
 197:lufa-lib-svn/LUFA/Drivers/USB/Core/AVR8/../AVR8/Endpoint_AVR8.h **** 				#define ENDPOINT_TOTAL_ENDPOINTS            1
 198:lufa-lib-svn/LUFA/Drivers/USB/Core/AVR8/../AVR8/Endpoint_AVR8.h **** 			#endif
 199:lufa-lib-svn/LUFA/Drivers/USB/Core/AVR8/../AVR8/Endpoint_AVR8.h **** 
 200:lufa-lib-svn/LUFA/Drivers/USB/Core/AVR8/../AVR8/Endpoint_AVR8.h **** 		/* Enums: */
 201:lufa-lib-svn/LUFA/Drivers/USB/Core/AVR8/../AVR8/Endpoint_AVR8.h **** 			/** Enum for the possible error return codes of the \ref Endpoint_WaitUntilReady() function.
 202:lufa-lib-svn/LUFA/Drivers/USB/Core/AVR8/../AVR8/Endpoint_AVR8.h **** 			 *
 203:lufa-lib-svn/LUFA/Drivers/USB/Core/AVR8/../AVR8/Endpoint_AVR8.h **** 			 *  \ingroup Group_EndpointRW_AVR8
 204:lufa-lib-svn/LUFA/Drivers/USB/Core/AVR8/../AVR8/Endpoint_AVR8.h **** 			 */
 205:lufa-lib-svn/LUFA/Drivers/USB/Core/AVR8/../AVR8/Endpoint_AVR8.h **** 			enum Endpoint_WaitUntilReady_ErrorCodes_t
 206:lufa-lib-svn/LUFA/Drivers/USB/Core/AVR8/../AVR8/Endpoint_AVR8.h **** 			{
 207:lufa-lib-svn/LUFA/Drivers/USB/Core/AVR8/../AVR8/Endpoint_AVR8.h **** 				ENDPOINT_READYWAIT_NoError                 = 0, /**< Endpoint is ready for next packet, no erro
 208:lufa-lib-svn/LUFA/Drivers/USB/Core/AVR8/../AVR8/Endpoint_AVR8.h **** 				ENDPOINT_READYWAIT_EndpointStalled         = 1, /**< The endpoint was stalled during the stream
 209:lufa-lib-svn/LUFA/Drivers/USB/Core/AVR8/../AVR8/Endpoint_AVR8.h **** 				                                                 *   transfer by the host or device.
 210:lufa-lib-svn/LUFA/Drivers/USB/Core/AVR8/../AVR8/Endpoint_AVR8.h **** 				                                                 */
 211:lufa-lib-svn/LUFA/Drivers/USB/Core/AVR8/../AVR8/Endpoint_AVR8.h **** 				ENDPOINT_READYWAIT_DeviceDisconnected      = 2,	/**< Device was disconnected from the host whil
 212:lufa-lib-svn/LUFA/Drivers/USB/Core/AVR8/../AVR8/Endpoint_AVR8.h **** 				                                                 *   waiting for the endpoint to become ready.
 213:lufa-lib-svn/LUFA/Drivers/USB/Core/AVR8/../AVR8/Endpoint_AVR8.h **** 				                                                 */
 214:lufa-lib-svn/LUFA/Drivers/USB/Core/AVR8/../AVR8/Endpoint_AVR8.h **** 				ENDPOINT_READYWAIT_BusSuspended            = 3, /**< The USB bus has been suspended by the host
 215:lufa-lib-svn/LUFA/Drivers/USB/Core/AVR8/../AVR8/Endpoint_AVR8.h **** 				                                                 *   no USB endpoint traffic can occur until th
 216:lufa-lib-svn/LUFA/Drivers/USB/Core/AVR8/../AVR8/Endpoint_AVR8.h **** 				                                                 *   has resumed.
 217:lufa-lib-svn/LUFA/Drivers/USB/Core/AVR8/../AVR8/Endpoint_AVR8.h **** 				                                                 */
 218:lufa-lib-svn/LUFA/Drivers/USB/Core/AVR8/../AVR8/Endpoint_AVR8.h **** 				ENDPOINT_READYWAIT_Timeout                 = 4, /**< The host failed to accept or send the next
 219:lufa-lib-svn/LUFA/Drivers/USB/Core/AVR8/../AVR8/Endpoint_AVR8.h **** 				                                                 *   within the software timeout period set by 
 220:lufa-lib-svn/LUFA/Drivers/USB/Core/AVR8/../AVR8/Endpoint_AVR8.h **** 				                                                 *   \ref USB_STREAM_TIMEOUT_MS macro.
 221:lufa-lib-svn/LUFA/Drivers/USB/Core/AVR8/../AVR8/Endpoint_AVR8.h **** 				                                                 */
 222:lufa-lib-svn/LUFA/Drivers/USB/Core/AVR8/../AVR8/Endpoint_AVR8.h **** 				ENDPOINT_READYWAIT_TransmissionInProgress  = 5, /**< The bank for the USB endpoint is currently
 223:lufa-lib-svn/LUFA/Drivers/USB/Core/AVR8/../AVR8/Endpoint_AVR8.h ****                                                          *   and can't be written at the moment.
 224:lufa-lib-svn/LUFA/Drivers/USB/Core/AVR8/../AVR8/Endpoint_AVR8.h **** 				                                                 */
 225:lufa-lib-svn/LUFA/Drivers/USB/Core/AVR8/../AVR8/Endpoint_AVR8.h **** 
 226:lufa-lib-svn/LUFA/Drivers/USB/Core/AVR8/../AVR8/Endpoint_AVR8.h **** 			};
 227:lufa-lib-svn/LUFA/Drivers/USB/Core/AVR8/../AVR8/Endpoint_AVR8.h **** 
 228:lufa-lib-svn/LUFA/Drivers/USB/Core/AVR8/../AVR8/Endpoint_AVR8.h **** 		/* Inline Functions: */
 229:lufa-lib-svn/LUFA/Drivers/USB/Core/AVR8/../AVR8/Endpoint_AVR8.h **** 			/** Configures the specified endpoint number with the given endpoint type, direction, bank size
 230:lufa-lib-svn/LUFA/Drivers/USB/Core/AVR8/../AVR8/Endpoint_AVR8.h **** 			 *  and banking mode. Once configured, the endpoint may be read from or written to, depending
 231:lufa-lib-svn/LUFA/Drivers/USB/Core/AVR8/../AVR8/Endpoint_AVR8.h **** 			 *  on its direction.
 232:lufa-lib-svn/LUFA/Drivers/USB/Core/AVR8/../AVR8/Endpoint_AVR8.h **** 			 *
 233:lufa-lib-svn/LUFA/Drivers/USB/Core/AVR8/../AVR8/Endpoint_AVR8.h **** 			 *  \param[in] Number     Endpoint number to configure. This must be more than 0 and less than
 234:lufa-lib-svn/LUFA/Drivers/USB/Core/AVR8/../AVR8/Endpoint_AVR8.h **** 			 *                        \ref ENDPOINT_TOTAL_ENDPOINTS.
 235:lufa-lib-svn/LUFA/Drivers/USB/Core/AVR8/../AVR8/Endpoint_AVR8.h **** 			 *
 236:lufa-lib-svn/LUFA/Drivers/USB/Core/AVR8/../AVR8/Endpoint_AVR8.h **** 			 *  \param[in] Type       Type of endpoint to configure, a \c EP_TYPE_* mask. Not all endpoint t
 237:lufa-lib-svn/LUFA/Drivers/USB/Core/AVR8/../AVR8/Endpoint_AVR8.h **** 			 *                        are available on Low Speed USB devices - refer to the USB 2.0 specific
 238:lufa-lib-svn/LUFA/Drivers/USB/Core/AVR8/../AVR8/Endpoint_AVR8.h **** 			 *
 239:lufa-lib-svn/LUFA/Drivers/USB/Core/AVR8/../AVR8/Endpoint_AVR8.h **** 			 *  \param[in] Direction  Endpoint data direction, either \ref ENDPOINT_DIR_OUT or \ref ENDPOINT
 240:lufa-lib-svn/LUFA/Drivers/USB/Core/AVR8/../AVR8/Endpoint_AVR8.h **** 			 *                        All endpoints (except Control type) are unidirectional - data may only
 241:lufa-lib-svn/LUFA/Drivers/USB/Core/AVR8/../AVR8/Endpoint_AVR8.h **** 			 *                        from or written to the endpoint bank based on its direction, not both.
 242:lufa-lib-svn/LUFA/Drivers/USB/Core/AVR8/../AVR8/Endpoint_AVR8.h **** 			 *
 243:lufa-lib-svn/LUFA/Drivers/USB/Core/AVR8/../AVR8/Endpoint_AVR8.h **** 			 *  \param[in] Size       Size of the endpoint's bank, where packets are stored before they are 
 244:lufa-lib-svn/LUFA/Drivers/USB/Core/AVR8/../AVR8/Endpoint_AVR8.h **** 			 *                        to the USB host, or after they have been received from the USB host (d
 245:lufa-lib-svn/LUFA/Drivers/USB/Core/AVR8/../AVR8/Endpoint_AVR8.h **** 			 *                        the endpoint's data direction). The bank size must indicate the maximu
 246:lufa-lib-svn/LUFA/Drivers/USB/Core/AVR8/../AVR8/Endpoint_AVR8.h **** 			 *                        that the endpoint can handle.
 247:lufa-lib-svn/LUFA/Drivers/USB/Core/AVR8/../AVR8/Endpoint_AVR8.h **** 			 *
 248:lufa-lib-svn/LUFA/Drivers/USB/Core/AVR8/../AVR8/Endpoint_AVR8.h **** 			 *  \param[in] Banks      Number of banks to use for the endpoint being configured, an \c ENDPOI
 249:lufa-lib-svn/LUFA/Drivers/USB/Core/AVR8/../AVR8/Endpoint_AVR8.h **** 			 *                        More banks uses more USB DPRAM, but offers better performance. Isochro
 250:lufa-lib-svn/LUFA/Drivers/USB/Core/AVR8/../AVR8/Endpoint_AVR8.h **** 			 *                        endpoints <b>must</b> have at least two banks.
 251:lufa-lib-svn/LUFA/Drivers/USB/Core/AVR8/../AVR8/Endpoint_AVR8.h **** 			 *
 252:lufa-lib-svn/LUFA/Drivers/USB/Core/AVR8/../AVR8/Endpoint_AVR8.h **** 			 *  \note When the \c ORDERED_EP_CONFIG compile time option is used, Endpoints <b>must</b> be co
 253:lufa-lib-svn/LUFA/Drivers/USB/Core/AVR8/../AVR8/Endpoint_AVR8.h **** 			 *        ascending order, or bank corruption will occur.
 254:lufa-lib-svn/LUFA/Drivers/USB/Core/AVR8/../AVR8/Endpoint_AVR8.h **** 			 *        \n\n
 255:lufa-lib-svn/LUFA/Drivers/USB/Core/AVR8/../AVR8/Endpoint_AVR8.h **** 			 *
 256:lufa-lib-svn/LUFA/Drivers/USB/Core/AVR8/../AVR8/Endpoint_AVR8.h **** 			 *  \note Different endpoints may have different maximum packet sizes based on the endpoint's in
 257:lufa-lib-svn/LUFA/Drivers/USB/Core/AVR8/../AVR8/Endpoint_AVR8.h **** 			 *        the chosen microcontroller model's datasheet to determine the maximum bank size for ea
 258:lufa-lib-svn/LUFA/Drivers/USB/Core/AVR8/../AVR8/Endpoint_AVR8.h **** 			 *        \n\n
 259:lufa-lib-svn/LUFA/Drivers/USB/Core/AVR8/../AVR8/Endpoint_AVR8.h **** 			 *
 260:lufa-lib-svn/LUFA/Drivers/USB/Core/AVR8/../AVR8/Endpoint_AVR8.h **** 			 *  \note The default control endpoint should not be manually configured by the user application
 261:lufa-lib-svn/LUFA/Drivers/USB/Core/AVR8/../AVR8/Endpoint_AVR8.h **** 			 *        it is automatically configured by the library internally.
 262:lufa-lib-svn/LUFA/Drivers/USB/Core/AVR8/../AVR8/Endpoint_AVR8.h **** 			 *        \n\n
 263:lufa-lib-svn/LUFA/Drivers/USB/Core/AVR8/../AVR8/Endpoint_AVR8.h **** 			 *
 264:lufa-lib-svn/LUFA/Drivers/USB/Core/AVR8/../AVR8/Endpoint_AVR8.h **** 			 *  \note This routine will automatically select the specified endpoint upon success. Upon failu
 265:lufa-lib-svn/LUFA/Drivers/USB/Core/AVR8/../AVR8/Endpoint_AVR8.h **** 			 *        which failed to reconfigure correctly will be selected.
 266:lufa-lib-svn/LUFA/Drivers/USB/Core/AVR8/../AVR8/Endpoint_AVR8.h **** 			 *
 267:lufa-lib-svn/LUFA/Drivers/USB/Core/AVR8/../AVR8/Endpoint_AVR8.h **** 			 *  \return Boolean \c true if the configuration succeeded, \c false otherwise.
 268:lufa-lib-svn/LUFA/Drivers/USB/Core/AVR8/../AVR8/Endpoint_AVR8.h **** 			 */
 269:lufa-lib-svn/LUFA/Drivers/USB/Core/AVR8/../AVR8/Endpoint_AVR8.h **** 			static inline bool Endpoint_ConfigureEndpoint(const uint8_t Number,
 270:lufa-lib-svn/LUFA/Drivers/USB/Core/AVR8/../AVR8/Endpoint_AVR8.h **** 			                                              const uint8_t Type,
 271:lufa-lib-svn/LUFA/Drivers/USB/Core/AVR8/../AVR8/Endpoint_AVR8.h **** 			                                              const uint8_t Direction,
 272:lufa-lib-svn/LUFA/Drivers/USB/Core/AVR8/../AVR8/Endpoint_AVR8.h **** 			                                              const uint16_t Size,
 273:lufa-lib-svn/LUFA/Drivers/USB/Core/AVR8/../AVR8/Endpoint_AVR8.h **** 			                                              const uint8_t Banks) ATTR_ALWAYS_INLINE;
 274:lufa-lib-svn/LUFA/Drivers/USB/Core/AVR8/../AVR8/Endpoint_AVR8.h **** 			static inline bool Endpoint_ConfigureEndpoint(const uint8_t Number,
 275:lufa-lib-svn/LUFA/Drivers/USB/Core/AVR8/../AVR8/Endpoint_AVR8.h **** 			                                              const uint8_t Type,
 276:lufa-lib-svn/LUFA/Drivers/USB/Core/AVR8/../AVR8/Endpoint_AVR8.h **** 			                                              const uint8_t Direction,
 277:lufa-lib-svn/LUFA/Drivers/USB/Core/AVR8/../AVR8/Endpoint_AVR8.h **** 			                                              const uint16_t Size,
 278:lufa-lib-svn/LUFA/Drivers/USB/Core/AVR8/../AVR8/Endpoint_AVR8.h **** 			                                              const uint8_t Banks)
 279:lufa-lib-svn/LUFA/Drivers/USB/Core/AVR8/../AVR8/Endpoint_AVR8.h **** 			{
 280:lufa-lib-svn/LUFA/Drivers/USB/Core/AVR8/../AVR8/Endpoint_AVR8.h **** 				return Endpoint_ConfigureEndpoint_Prv(Number, ((Type << EPTYPE0) | (Direction ? (1 << EPDIR) : 
 281:lufa-lib-svn/LUFA/Drivers/USB/Core/AVR8/../AVR8/Endpoint_AVR8.h **** 				                                      ((1 << ALLOC) | Banks | Endpoint_BytesToEPSizeMask(Size))
 282:lufa-lib-svn/LUFA/Drivers/USB/Core/AVR8/../AVR8/Endpoint_AVR8.h **** 			}
 283:lufa-lib-svn/LUFA/Drivers/USB/Core/AVR8/../AVR8/Endpoint_AVR8.h **** 
 284:lufa-lib-svn/LUFA/Drivers/USB/Core/AVR8/../AVR8/Endpoint_AVR8.h **** 			/** Indicates the number of bytes currently stored in the current endpoint's selected bank.
 285:lufa-lib-svn/LUFA/Drivers/USB/Core/AVR8/../AVR8/Endpoint_AVR8.h **** 			 *
 286:lufa-lib-svn/LUFA/Drivers/USB/Core/AVR8/../AVR8/Endpoint_AVR8.h **** 			 *  \note The return width of this function may differ, depending on the maximum endpoint bank s
 287:lufa-lib-svn/LUFA/Drivers/USB/Core/AVR8/../AVR8/Endpoint_AVR8.h **** 			 *        of the selected AVR model.
 288:lufa-lib-svn/LUFA/Drivers/USB/Core/AVR8/../AVR8/Endpoint_AVR8.h **** 			 *
 289:lufa-lib-svn/LUFA/Drivers/USB/Core/AVR8/../AVR8/Endpoint_AVR8.h **** 			 *  \ingroup Group_EndpointRW_AVR8
 290:lufa-lib-svn/LUFA/Drivers/USB/Core/AVR8/../AVR8/Endpoint_AVR8.h **** 			 *
 291:lufa-lib-svn/LUFA/Drivers/USB/Core/AVR8/../AVR8/Endpoint_AVR8.h **** 			 *  \return Total number of bytes in the currently selected Endpoint's FIFO buffer.
 292:lufa-lib-svn/LUFA/Drivers/USB/Core/AVR8/../AVR8/Endpoint_AVR8.h **** 			 */
 293:lufa-lib-svn/LUFA/Drivers/USB/Core/AVR8/../AVR8/Endpoint_AVR8.h **** 			static inline uint16_t Endpoint_BytesInEndpoint(void) ATTR_WARN_UNUSED_RESULT ATTR_ALWAYS_INLINE
 294:lufa-lib-svn/LUFA/Drivers/USB/Core/AVR8/../AVR8/Endpoint_AVR8.h **** 			static inline uint16_t Endpoint_BytesInEndpoint(void)
 295:lufa-lib-svn/LUFA/Drivers/USB/Core/AVR8/../AVR8/Endpoint_AVR8.h **** 			{
 296:lufa-lib-svn/LUFA/Drivers/USB/Core/AVR8/../AVR8/Endpoint_AVR8.h **** 				#if defined(USB_SERIES_6_AVR) || defined(USB_SERIES_7_AVR)
 297:lufa-lib-svn/LUFA/Drivers/USB/Core/AVR8/../AVR8/Endpoint_AVR8.h **** 					return UEBCX;
 298:lufa-lib-svn/LUFA/Drivers/USB/Core/AVR8/../AVR8/Endpoint_AVR8.h **** 				#elif defined(USB_SERIES_4_AVR)
 299:lufa-lib-svn/LUFA/Drivers/USB/Core/AVR8/../AVR8/Endpoint_AVR8.h **** 					return (((uint16_t)UEBCHX << 8) | UEBCLX);
 300:lufa-lib-svn/LUFA/Drivers/USB/Core/AVR8/../AVR8/Endpoint_AVR8.h **** 				#elif defined(USB_SERIES_2_AVR)
 301:lufa-lib-svn/LUFA/Drivers/USB/Core/AVR8/../AVR8/Endpoint_AVR8.h **** 					return UEBCLX;
 302:lufa-lib-svn/LUFA/Drivers/USB/Core/AVR8/../AVR8/Endpoint_AVR8.h **** 				#endif
 303:lufa-lib-svn/LUFA/Drivers/USB/Core/AVR8/../AVR8/Endpoint_AVR8.h **** 			}
 304:lufa-lib-svn/LUFA/Drivers/USB/Core/AVR8/../AVR8/Endpoint_AVR8.h **** 
 305:lufa-lib-svn/LUFA/Drivers/USB/Core/AVR8/../AVR8/Endpoint_AVR8.h **** 			/** Get the endpoint address of the currently selected endpoint. This is typically used to save
 306:lufa-lib-svn/LUFA/Drivers/USB/Core/AVR8/../AVR8/Endpoint_AVR8.h **** 			 *  the currently selected endpoint number so that it can be restored after another endpoint has
 307:lufa-lib-svn/LUFA/Drivers/USB/Core/AVR8/../AVR8/Endpoint_AVR8.h **** 			 *  been manipulated.
 308:lufa-lib-svn/LUFA/Drivers/USB/Core/AVR8/../AVR8/Endpoint_AVR8.h **** 			 *
 309:lufa-lib-svn/LUFA/Drivers/USB/Core/AVR8/../AVR8/Endpoint_AVR8.h **** 			 *  \return Index of the currently selected endpoint.
 310:lufa-lib-svn/LUFA/Drivers/USB/Core/AVR8/../AVR8/Endpoint_AVR8.h **** 			 */
 311:lufa-lib-svn/LUFA/Drivers/USB/Core/AVR8/../AVR8/Endpoint_AVR8.h **** 			static inline uint8_t Endpoint_GetCurrentEndpoint(void) ATTR_WARN_UNUSED_RESULT ATTR_ALWAYS_INLI
 312:lufa-lib-svn/LUFA/Drivers/USB/Core/AVR8/../AVR8/Endpoint_AVR8.h **** 			static inline uint8_t Endpoint_GetCurrentEndpoint(void)
 313:lufa-lib-svn/LUFA/Drivers/USB/Core/AVR8/../AVR8/Endpoint_AVR8.h **** 			{
 314:lufa-lib-svn/LUFA/Drivers/USB/Core/AVR8/../AVR8/Endpoint_AVR8.h **** 				#if !defined(CONTROL_ONLY_DEVICE)
 315:lufa-lib-svn/LUFA/Drivers/USB/Core/AVR8/../AVR8/Endpoint_AVR8.h **** 					return (UENUM & ENDPOINT_EPNUM_MASK);
 316:lufa-lib-svn/LUFA/Drivers/USB/Core/AVR8/../AVR8/Endpoint_AVR8.h **** 				#else
 317:lufa-lib-svn/LUFA/Drivers/USB/Core/AVR8/../AVR8/Endpoint_AVR8.h **** 					return ENDPOINT_CONTROLEP;
 318:lufa-lib-svn/LUFA/Drivers/USB/Core/AVR8/../AVR8/Endpoint_AVR8.h **** 				#endif
 319:lufa-lib-svn/LUFA/Drivers/USB/Core/AVR8/../AVR8/Endpoint_AVR8.h **** 			}
 320:lufa-lib-svn/LUFA/Drivers/USB/Core/AVR8/../AVR8/Endpoint_AVR8.h **** 
 321:lufa-lib-svn/LUFA/Drivers/USB/Core/AVR8/../AVR8/Endpoint_AVR8.h **** 			/** Selects the given endpoint number. If the address from the device descriptors is used, the
 322:lufa-lib-svn/LUFA/Drivers/USB/Core/AVR8/../AVR8/Endpoint_AVR8.h **** 			 *  value should be masked with the \ref ENDPOINT_EPNUM_MASK constant to extract only the endpoi
 323:lufa-lib-svn/LUFA/Drivers/USB/Core/AVR8/../AVR8/Endpoint_AVR8.h **** 			 *  number (and discarding the endpoint direction bit).
 324:lufa-lib-svn/LUFA/Drivers/USB/Core/AVR8/../AVR8/Endpoint_AVR8.h **** 			 *
 325:lufa-lib-svn/LUFA/Drivers/USB/Core/AVR8/../AVR8/Endpoint_AVR8.h **** 			 *  Any endpoint operations which do not require the endpoint number to be indicated will operat
 326:lufa-lib-svn/LUFA/Drivers/USB/Core/AVR8/../AVR8/Endpoint_AVR8.h **** 			 *  the currently selected endpoint.
 327:lufa-lib-svn/LUFA/Drivers/USB/Core/AVR8/../AVR8/Endpoint_AVR8.h **** 			 *
 328:lufa-lib-svn/LUFA/Drivers/USB/Core/AVR8/../AVR8/Endpoint_AVR8.h **** 			 *  \param[in] EndpointNumber Endpoint number to select.
 329:lufa-lib-svn/LUFA/Drivers/USB/Core/AVR8/../AVR8/Endpoint_AVR8.h **** 			 */
 330:lufa-lib-svn/LUFA/Drivers/USB/Core/AVR8/../AVR8/Endpoint_AVR8.h **** 			static inline void Endpoint_SelectEndpoint(const uint8_t EndpointNumber) ATTR_ALWAYS_INLINE;
 331:lufa-lib-svn/LUFA/Drivers/USB/Core/AVR8/../AVR8/Endpoint_AVR8.h **** 			static inline void Endpoint_SelectEndpoint(const uint8_t EndpointNumber)
 332:lufa-lib-svn/LUFA/Drivers/USB/Core/AVR8/../AVR8/Endpoint_AVR8.h **** 			{
 333:lufa-lib-svn/LUFA/Drivers/USB/Core/AVR8/../AVR8/Endpoint_AVR8.h **** 				#if !defined(CONTROL_ONLY_DEVICE)
 334:lufa-lib-svn/LUFA/Drivers/USB/Core/AVR8/../AVR8/Endpoint_AVR8.h **** 					UENUM = EndpointNumber;
 335:lufa-lib-svn/LUFA/Drivers/USB/Core/AVR8/../AVR8/Endpoint_AVR8.h **** 				#endif
 336:lufa-lib-svn/LUFA/Drivers/USB/Core/AVR8/../AVR8/Endpoint_AVR8.h **** 			}
 337:lufa-lib-svn/LUFA/Drivers/USB/Core/AVR8/../AVR8/Endpoint_AVR8.h **** 
 338:lufa-lib-svn/LUFA/Drivers/USB/Core/AVR8/../AVR8/Endpoint_AVR8.h **** 			/** Resets the endpoint bank FIFO. This clears all the endpoint banks and resets the USB control
 339:lufa-lib-svn/LUFA/Drivers/USB/Core/AVR8/../AVR8/Endpoint_AVR8.h **** 			 *  data In and Out pointers to the bank's contents.
 340:lufa-lib-svn/LUFA/Drivers/USB/Core/AVR8/../AVR8/Endpoint_AVR8.h **** 			 *
 341:lufa-lib-svn/LUFA/Drivers/USB/Core/AVR8/../AVR8/Endpoint_AVR8.h **** 			 *  \param[in] EndpointNumber Endpoint number whose FIFO buffers are to be reset.
 342:lufa-lib-svn/LUFA/Drivers/USB/Core/AVR8/../AVR8/Endpoint_AVR8.h **** 			 */
 343:lufa-lib-svn/LUFA/Drivers/USB/Core/AVR8/../AVR8/Endpoint_AVR8.h **** 			static inline void Endpoint_ResetEndpoint(const uint8_t EndpointNumber) ATTR_ALWAYS_INLINE;
 344:lufa-lib-svn/LUFA/Drivers/USB/Core/AVR8/../AVR8/Endpoint_AVR8.h **** 			static inline void Endpoint_ResetEndpoint(const uint8_t EndpointNumber)
 345:lufa-lib-svn/LUFA/Drivers/USB/Core/AVR8/../AVR8/Endpoint_AVR8.h **** 			{
 346:lufa-lib-svn/LUFA/Drivers/USB/Core/AVR8/../AVR8/Endpoint_AVR8.h **** 				UERST = (1 << EndpointNumber);
 347:lufa-lib-svn/LUFA/Drivers/USB/Core/AVR8/../AVR8/Endpoint_AVR8.h **** 				UERST = 0;
 348:lufa-lib-svn/LUFA/Drivers/USB/Core/AVR8/../AVR8/Endpoint_AVR8.h **** 			}
 349:lufa-lib-svn/LUFA/Drivers/USB/Core/AVR8/../AVR8/Endpoint_AVR8.h **** 
 350:lufa-lib-svn/LUFA/Drivers/USB/Core/AVR8/../AVR8/Endpoint_AVR8.h **** 			/** Enables the currently selected endpoint so that data can be sent and received through it to
 351:lufa-lib-svn/LUFA/Drivers/USB/Core/AVR8/../AVR8/Endpoint_AVR8.h **** 			 *  and from a host.
 352:lufa-lib-svn/LUFA/Drivers/USB/Core/AVR8/../AVR8/Endpoint_AVR8.h **** 			 *
 353:lufa-lib-svn/LUFA/Drivers/USB/Core/AVR8/../AVR8/Endpoint_AVR8.h **** 			 *  \note Endpoints must first be configured properly via \ref Endpoint_ConfigureEndpoint().
 354:lufa-lib-svn/LUFA/Drivers/USB/Core/AVR8/../AVR8/Endpoint_AVR8.h **** 			 */
 355:lufa-lib-svn/LUFA/Drivers/USB/Core/AVR8/../AVR8/Endpoint_AVR8.h **** 			static inline void Endpoint_EnableEndpoint(void) ATTR_ALWAYS_INLINE;
 356:lufa-lib-svn/LUFA/Drivers/USB/Core/AVR8/../AVR8/Endpoint_AVR8.h **** 			static inline void Endpoint_EnableEndpoint(void)
 357:lufa-lib-svn/LUFA/Drivers/USB/Core/AVR8/../AVR8/Endpoint_AVR8.h **** 			{
 358:lufa-lib-svn/LUFA/Drivers/USB/Core/AVR8/../AVR8/Endpoint_AVR8.h **** 				UECONX |= (1 << EPEN);
 359:lufa-lib-svn/LUFA/Drivers/USB/Core/AVR8/../AVR8/Endpoint_AVR8.h **** 			}
 360:lufa-lib-svn/LUFA/Drivers/USB/Core/AVR8/../AVR8/Endpoint_AVR8.h **** 
 361:lufa-lib-svn/LUFA/Drivers/USB/Core/AVR8/../AVR8/Endpoint_AVR8.h **** 			/** Disables the currently selected endpoint so that data cannot be sent and received through it
 362:lufa-lib-svn/LUFA/Drivers/USB/Core/AVR8/../AVR8/Endpoint_AVR8.h **** 			 *  to and from a host.
 363:lufa-lib-svn/LUFA/Drivers/USB/Core/AVR8/../AVR8/Endpoint_AVR8.h **** 			 */
 364:lufa-lib-svn/LUFA/Drivers/USB/Core/AVR8/../AVR8/Endpoint_AVR8.h **** 			static inline void Endpoint_DisableEndpoint(void) ATTR_ALWAYS_INLINE;
 365:lufa-lib-svn/LUFA/Drivers/USB/Core/AVR8/../AVR8/Endpoint_AVR8.h **** 			static inline void Endpoint_DisableEndpoint(void)
 366:lufa-lib-svn/LUFA/Drivers/USB/Core/AVR8/../AVR8/Endpoint_AVR8.h **** 			{
 367:lufa-lib-svn/LUFA/Drivers/USB/Core/AVR8/../AVR8/Endpoint_AVR8.h **** 				UECONX &= ~(1 << EPEN);
 368:lufa-lib-svn/LUFA/Drivers/USB/Core/AVR8/../AVR8/Endpoint_AVR8.h **** 			}
 369:lufa-lib-svn/LUFA/Drivers/USB/Core/AVR8/../AVR8/Endpoint_AVR8.h **** 
 370:lufa-lib-svn/LUFA/Drivers/USB/Core/AVR8/../AVR8/Endpoint_AVR8.h **** 			/** Determines if the currently selected endpoint is enabled, but not necessarily configured.
 371:lufa-lib-svn/LUFA/Drivers/USB/Core/AVR8/../AVR8/Endpoint_AVR8.h **** 			 *
 372:lufa-lib-svn/LUFA/Drivers/USB/Core/AVR8/../AVR8/Endpoint_AVR8.h **** 			 * \return Boolean \c true if the currently selected endpoint is enabled, \c false otherwise.
 373:lufa-lib-svn/LUFA/Drivers/USB/Core/AVR8/../AVR8/Endpoint_AVR8.h **** 			 */
 374:lufa-lib-svn/LUFA/Drivers/USB/Core/AVR8/../AVR8/Endpoint_AVR8.h **** 			static inline bool Endpoint_IsEnabled(void) ATTR_WARN_UNUSED_RESULT ATTR_ALWAYS_INLINE;
 375:lufa-lib-svn/LUFA/Drivers/USB/Core/AVR8/../AVR8/Endpoint_AVR8.h **** 			static inline bool Endpoint_IsEnabled(void)
 376:lufa-lib-svn/LUFA/Drivers/USB/Core/AVR8/../AVR8/Endpoint_AVR8.h **** 			{
 377:lufa-lib-svn/LUFA/Drivers/USB/Core/AVR8/../AVR8/Endpoint_AVR8.h **** 				return ((UECONX & (1 << EPEN)) ? true : false);
 378:lufa-lib-svn/LUFA/Drivers/USB/Core/AVR8/../AVR8/Endpoint_AVR8.h **** 			}
 379:lufa-lib-svn/LUFA/Drivers/USB/Core/AVR8/../AVR8/Endpoint_AVR8.h **** 
 380:lufa-lib-svn/LUFA/Drivers/USB/Core/AVR8/../AVR8/Endpoint_AVR8.h **** 			/** Retrieves the number of busy banks in the currently selected endpoint, which have been queue
 381:lufa-lib-svn/LUFA/Drivers/USB/Core/AVR8/../AVR8/Endpoint_AVR8.h **** 			 *  transmission via the \ref Endpoint_ClearIN() command, or are awaiting acknowledgement via th
 382:lufa-lib-svn/LUFA/Drivers/USB/Core/AVR8/../AVR8/Endpoint_AVR8.h **** 			 *  \ref Endpoint_ClearOUT() command.
 383:lufa-lib-svn/LUFA/Drivers/USB/Core/AVR8/../AVR8/Endpoint_AVR8.h **** 			 *
 384:lufa-lib-svn/LUFA/Drivers/USB/Core/AVR8/../AVR8/Endpoint_AVR8.h **** 			 *  \ingroup Group_EndpointPacketManagement_AVR8
 385:lufa-lib-svn/LUFA/Drivers/USB/Core/AVR8/../AVR8/Endpoint_AVR8.h **** 			 *
 386:lufa-lib-svn/LUFA/Drivers/USB/Core/AVR8/../AVR8/Endpoint_AVR8.h **** 			 *  \return Total number of busy banks in the selected endpoint.
 387:lufa-lib-svn/LUFA/Drivers/USB/Core/AVR8/../AVR8/Endpoint_AVR8.h **** 			 */
 388:lufa-lib-svn/LUFA/Drivers/USB/Core/AVR8/../AVR8/Endpoint_AVR8.h **** 			static inline uint8_t Endpoint_GetBusyBanks(void) ATTR_ALWAYS_INLINE ATTR_WARN_UNUSED_RESULT;
 389:lufa-lib-svn/LUFA/Drivers/USB/Core/AVR8/../AVR8/Endpoint_AVR8.h **** 			static inline uint8_t Endpoint_GetBusyBanks(void)
 390:lufa-lib-svn/LUFA/Drivers/USB/Core/AVR8/../AVR8/Endpoint_AVR8.h **** 			{
 391:lufa-lib-svn/LUFA/Drivers/USB/Core/AVR8/../AVR8/Endpoint_AVR8.h **** 				return (UESTA0X & (0x03 << NBUSYBK0));
 392:lufa-lib-svn/LUFA/Drivers/USB/Core/AVR8/../AVR8/Endpoint_AVR8.h **** 			}
 393:lufa-lib-svn/LUFA/Drivers/USB/Core/AVR8/../AVR8/Endpoint_AVR8.h **** 
 394:lufa-lib-svn/LUFA/Drivers/USB/Core/AVR8/../AVR8/Endpoint_AVR8.h **** 			/** Aborts all pending IN transactions on the currently selected endpoint, once the bank
 395:lufa-lib-svn/LUFA/Drivers/USB/Core/AVR8/../AVR8/Endpoint_AVR8.h **** 			 *  has been queued for transmission to the host via \ref Endpoint_ClearIN(). This function
 396:lufa-lib-svn/LUFA/Drivers/USB/Core/AVR8/../AVR8/Endpoint_AVR8.h **** 			 *  will terminate all queued transactions, resetting the endpoint banks ready for a new
 397:lufa-lib-svn/LUFA/Drivers/USB/Core/AVR8/../AVR8/Endpoint_AVR8.h **** 			 *  packet.
 398:lufa-lib-svn/LUFA/Drivers/USB/Core/AVR8/../AVR8/Endpoint_AVR8.h **** 			 *
 399:lufa-lib-svn/LUFA/Drivers/USB/Core/AVR8/../AVR8/Endpoint_AVR8.h **** 			 *  \ingroup Group_EndpointPacketManagement_AVR8
 400:lufa-lib-svn/LUFA/Drivers/USB/Core/AVR8/../AVR8/Endpoint_AVR8.h **** 			 */
 401:lufa-lib-svn/LUFA/Drivers/USB/Core/AVR8/../AVR8/Endpoint_AVR8.h **** 			static inline void Endpoint_AbortPendingIN(void)
 402:lufa-lib-svn/LUFA/Drivers/USB/Core/AVR8/../AVR8/Endpoint_AVR8.h **** 			{
 403:lufa-lib-svn/LUFA/Drivers/USB/Core/AVR8/../AVR8/Endpoint_AVR8.h **** 				while (Endpoint_GetBusyBanks() != 0)
 404:lufa-lib-svn/LUFA/Drivers/USB/Core/AVR8/../AVR8/Endpoint_AVR8.h **** 				{
 405:lufa-lib-svn/LUFA/Drivers/USB/Core/AVR8/../AVR8/Endpoint_AVR8.h **** 					UEINTX |= (1 << RXOUTI);
 406:lufa-lib-svn/LUFA/Drivers/USB/Core/AVR8/../AVR8/Endpoint_AVR8.h **** 					while (UEINTX & (1 << RXOUTI));
 407:lufa-lib-svn/LUFA/Drivers/USB/Core/AVR8/../AVR8/Endpoint_AVR8.h **** 				}
 408:lufa-lib-svn/LUFA/Drivers/USB/Core/AVR8/../AVR8/Endpoint_AVR8.h **** 			}
 409:lufa-lib-svn/LUFA/Drivers/USB/Core/AVR8/../AVR8/Endpoint_AVR8.h **** 
 410:lufa-lib-svn/LUFA/Drivers/USB/Core/AVR8/../AVR8/Endpoint_AVR8.h **** 			/** Determines if the currently selected endpoint may be read from (if data is waiting in the en
 411:lufa-lib-svn/LUFA/Drivers/USB/Core/AVR8/../AVR8/Endpoint_AVR8.h **** 			 *  bank and the endpoint is an OUT direction, or if the bank is not yet full if the endpoint is
 412:lufa-lib-svn/LUFA/Drivers/USB/Core/AVR8/../AVR8/Endpoint_AVR8.h **** 			 *  direction). This function will return false if an error has occurred in the endpoint, if the
 413:lufa-lib-svn/LUFA/Drivers/USB/Core/AVR8/../AVR8/Endpoint_AVR8.h **** 			 *  is an OUT direction and no packet (or an empty packet) has been received, or if the endpoint
 414:lufa-lib-svn/LUFA/Drivers/USB/Core/AVR8/../AVR8/Endpoint_AVR8.h **** 			 *  direction and the endpoint bank is full.
 415:lufa-lib-svn/LUFA/Drivers/USB/Core/AVR8/../AVR8/Endpoint_AVR8.h **** 			 *
 416:lufa-lib-svn/LUFA/Drivers/USB/Core/AVR8/../AVR8/Endpoint_AVR8.h **** 			 *  \ingroup Group_EndpointPacketManagement_AVR8
 417:lufa-lib-svn/LUFA/Drivers/USB/Core/AVR8/../AVR8/Endpoint_AVR8.h **** 			 *
 418:lufa-lib-svn/LUFA/Drivers/USB/Core/AVR8/../AVR8/Endpoint_AVR8.h **** 			 *  \return Boolean \c true if the currently selected endpoint may be read from or written to, d
 419:lufa-lib-svn/LUFA/Drivers/USB/Core/AVR8/../AVR8/Endpoint_AVR8.h **** 			 *          on its direction.
 420:lufa-lib-svn/LUFA/Drivers/USB/Core/AVR8/../AVR8/Endpoint_AVR8.h **** 			 */
 421:lufa-lib-svn/LUFA/Drivers/USB/Core/AVR8/../AVR8/Endpoint_AVR8.h **** 			static inline bool Endpoint_IsReadWriteAllowed(void) ATTR_WARN_UNUSED_RESULT ATTR_ALWAYS_INLINE;
 422:lufa-lib-svn/LUFA/Drivers/USB/Core/AVR8/../AVR8/Endpoint_AVR8.h **** 			static inline bool Endpoint_IsReadWriteAllowed(void)
 423:lufa-lib-svn/LUFA/Drivers/USB/Core/AVR8/../AVR8/Endpoint_AVR8.h **** 			{
 424:lufa-lib-svn/LUFA/Drivers/USB/Core/AVR8/../AVR8/Endpoint_AVR8.h **** 				return ((UEINTX & (1 << RWAL)) ? true : false);
 425:lufa-lib-svn/LUFA/Drivers/USB/Core/AVR8/../AVR8/Endpoint_AVR8.h **** 			}
 426:lufa-lib-svn/LUFA/Drivers/USB/Core/AVR8/../AVR8/Endpoint_AVR8.h **** 
 427:lufa-lib-svn/LUFA/Drivers/USB/Core/AVR8/../AVR8/Endpoint_AVR8.h **** 			/** Determines if the currently selected endpoint is configured.
 428:lufa-lib-svn/LUFA/Drivers/USB/Core/AVR8/../AVR8/Endpoint_AVR8.h **** 			 *
 429:lufa-lib-svn/LUFA/Drivers/USB/Core/AVR8/../AVR8/Endpoint_AVR8.h **** 			 *  \return Boolean \c true if the currently selected endpoint has been configured, \c false oth
 430:lufa-lib-svn/LUFA/Drivers/USB/Core/AVR8/../AVR8/Endpoint_AVR8.h **** 			 */
 431:lufa-lib-svn/LUFA/Drivers/USB/Core/AVR8/../AVR8/Endpoint_AVR8.h **** 			static inline bool Endpoint_IsConfigured(void) ATTR_WARN_UNUSED_RESULT ATTR_ALWAYS_INLINE;
 432:lufa-lib-svn/LUFA/Drivers/USB/Core/AVR8/../AVR8/Endpoint_AVR8.h **** 			static inline bool Endpoint_IsConfigured(void)
 433:lufa-lib-svn/LUFA/Drivers/USB/Core/AVR8/../AVR8/Endpoint_AVR8.h **** 			{
 434:lufa-lib-svn/LUFA/Drivers/USB/Core/AVR8/../AVR8/Endpoint_AVR8.h **** 				return ((UESTA0X & (1 << CFGOK)) ? true : false);
 435:lufa-lib-svn/LUFA/Drivers/USB/Core/AVR8/../AVR8/Endpoint_AVR8.h **** 			}
 436:lufa-lib-svn/LUFA/Drivers/USB/Core/AVR8/../AVR8/Endpoint_AVR8.h **** 
 437:lufa-lib-svn/LUFA/Drivers/USB/Core/AVR8/../AVR8/Endpoint_AVR8.h **** 			/** Returns a mask indicating which INTERRUPT type endpoints have interrupted - i.e. their
 438:lufa-lib-svn/LUFA/Drivers/USB/Core/AVR8/../AVR8/Endpoint_AVR8.h **** 			 *  interrupt duration has elapsed. Which endpoints have interrupted can be determined by
 439:lufa-lib-svn/LUFA/Drivers/USB/Core/AVR8/../AVR8/Endpoint_AVR8.h **** 			 *  masking the return value against <tt>(1 << <i>{Endpoint Number}</i>)</tt>.
 440:lufa-lib-svn/LUFA/Drivers/USB/Core/AVR8/../AVR8/Endpoint_AVR8.h **** 			 *
 441:lufa-lib-svn/LUFA/Drivers/USB/Core/AVR8/../AVR8/Endpoint_AVR8.h **** 			 *  \return Mask whose bits indicate which endpoints have interrupted.
 442:lufa-lib-svn/LUFA/Drivers/USB/Core/AVR8/../AVR8/Endpoint_AVR8.h **** 			 */
 443:lufa-lib-svn/LUFA/Drivers/USB/Core/AVR8/../AVR8/Endpoint_AVR8.h **** 			static inline uint8_t Endpoint_GetEndpointInterrupts(void) ATTR_WARN_UNUSED_RESULT ATTR_ALWAYS_I
 444:lufa-lib-svn/LUFA/Drivers/USB/Core/AVR8/../AVR8/Endpoint_AVR8.h **** 			static inline uint8_t Endpoint_GetEndpointInterrupts(void)
 445:lufa-lib-svn/LUFA/Drivers/USB/Core/AVR8/../AVR8/Endpoint_AVR8.h **** 			{
 446:lufa-lib-svn/LUFA/Drivers/USB/Core/AVR8/../AVR8/Endpoint_AVR8.h **** 				return UEINT;
 447:lufa-lib-svn/LUFA/Drivers/USB/Core/AVR8/../AVR8/Endpoint_AVR8.h **** 			}
 448:lufa-lib-svn/LUFA/Drivers/USB/Core/AVR8/../AVR8/Endpoint_AVR8.h **** 
 449:lufa-lib-svn/LUFA/Drivers/USB/Core/AVR8/../AVR8/Endpoint_AVR8.h **** 			/** Determines if the specified endpoint number has interrupted (valid only for INTERRUPT type
 450:lufa-lib-svn/LUFA/Drivers/USB/Core/AVR8/../AVR8/Endpoint_AVR8.h **** 			 *  endpoints).
 451:lufa-lib-svn/LUFA/Drivers/USB/Core/AVR8/../AVR8/Endpoint_AVR8.h **** 			 *
 452:lufa-lib-svn/LUFA/Drivers/USB/Core/AVR8/../AVR8/Endpoint_AVR8.h **** 			 *  \param[in] EndpointNumber  Index of the endpoint whose interrupt flag should be tested.
 453:lufa-lib-svn/LUFA/Drivers/USB/Core/AVR8/../AVR8/Endpoint_AVR8.h **** 			 *
 454:lufa-lib-svn/LUFA/Drivers/USB/Core/AVR8/../AVR8/Endpoint_AVR8.h **** 			 *  \return Boolean \c true if the specified endpoint has interrupted, \c false otherwise.
 455:lufa-lib-svn/LUFA/Drivers/USB/Core/AVR8/../AVR8/Endpoint_AVR8.h **** 			 */
 456:lufa-lib-svn/LUFA/Drivers/USB/Core/AVR8/../AVR8/Endpoint_AVR8.h **** 			static inline bool Endpoint_HasEndpointInterrupted(const uint8_t EndpointNumber) ATTR_WARN_UNUSE
 457:lufa-lib-svn/LUFA/Drivers/USB/Core/AVR8/../AVR8/Endpoint_AVR8.h **** 			static inline bool Endpoint_HasEndpointInterrupted(const uint8_t EndpointNumber)
 458:lufa-lib-svn/LUFA/Drivers/USB/Core/AVR8/../AVR8/Endpoint_AVR8.h **** 			{
 459:lufa-lib-svn/LUFA/Drivers/USB/Core/AVR8/../AVR8/Endpoint_AVR8.h **** 				return ((Endpoint_GetEndpointInterrupts() & (1 << EndpointNumber)) ? true : false);
 460:lufa-lib-svn/LUFA/Drivers/USB/Core/AVR8/../AVR8/Endpoint_AVR8.h **** 			}
 461:lufa-lib-svn/LUFA/Drivers/USB/Core/AVR8/../AVR8/Endpoint_AVR8.h **** 
 462:lufa-lib-svn/LUFA/Drivers/USB/Core/AVR8/../AVR8/Endpoint_AVR8.h **** 			/** Determines if the selected IN endpoint is ready for a new packet to be sent to the host.
 463:lufa-lib-svn/LUFA/Drivers/USB/Core/AVR8/../AVR8/Endpoint_AVR8.h **** 			 *
 464:lufa-lib-svn/LUFA/Drivers/USB/Core/AVR8/../AVR8/Endpoint_AVR8.h **** 			 *  \ingroup Group_EndpointPacketManagement_AVR8
 465:lufa-lib-svn/LUFA/Drivers/USB/Core/AVR8/../AVR8/Endpoint_AVR8.h **** 			 *
 466:lufa-lib-svn/LUFA/Drivers/USB/Core/AVR8/../AVR8/Endpoint_AVR8.h **** 			 *  \return Boolean \c true if the current endpoint is ready for an IN packet, \c false otherwis
 467:lufa-lib-svn/LUFA/Drivers/USB/Core/AVR8/../AVR8/Endpoint_AVR8.h **** 			 */
 468:lufa-lib-svn/LUFA/Drivers/USB/Core/AVR8/../AVR8/Endpoint_AVR8.h **** 			static inline bool Endpoint_IsINReady(void) ATTR_WARN_UNUSED_RESULT ATTR_ALWAYS_INLINE;
 469:lufa-lib-svn/LUFA/Drivers/USB/Core/AVR8/../AVR8/Endpoint_AVR8.h **** 			static inline bool Endpoint_IsINReady(void)
 470:lufa-lib-svn/LUFA/Drivers/USB/Core/AVR8/../AVR8/Endpoint_AVR8.h **** 			{
 471:lufa-lib-svn/LUFA/Drivers/USB/Core/AVR8/../AVR8/Endpoint_AVR8.h **** 				return ((UEINTX & (1 << TXINI)) ? true : false);
 472:lufa-lib-svn/LUFA/Drivers/USB/Core/AVR8/../AVR8/Endpoint_AVR8.h **** 			}
 473:lufa-lib-svn/LUFA/Drivers/USB/Core/AVR8/../AVR8/Endpoint_AVR8.h **** 
 474:lufa-lib-svn/LUFA/Drivers/USB/Core/AVR8/../AVR8/Endpoint_AVR8.h **** 			/** Determines if the selected OUT endpoint has received new packet from the host.
 475:lufa-lib-svn/LUFA/Drivers/USB/Core/AVR8/../AVR8/Endpoint_AVR8.h **** 			 *
 476:lufa-lib-svn/LUFA/Drivers/USB/Core/AVR8/../AVR8/Endpoint_AVR8.h **** 			 *  \ingroup Group_EndpointPacketManagement_AVR8
 477:lufa-lib-svn/LUFA/Drivers/USB/Core/AVR8/../AVR8/Endpoint_AVR8.h **** 			 *
 478:lufa-lib-svn/LUFA/Drivers/USB/Core/AVR8/../AVR8/Endpoint_AVR8.h **** 			 *  \return Boolean \c true if current endpoint is has received an OUT packet, \c false otherwis
 479:lufa-lib-svn/LUFA/Drivers/USB/Core/AVR8/../AVR8/Endpoint_AVR8.h **** 			 */
 480:lufa-lib-svn/LUFA/Drivers/USB/Core/AVR8/../AVR8/Endpoint_AVR8.h **** 			static inline bool Endpoint_IsOUTReceived(void) ATTR_WARN_UNUSED_RESULT ATTR_ALWAYS_INLINE;
 481:lufa-lib-svn/LUFA/Drivers/USB/Core/AVR8/../AVR8/Endpoint_AVR8.h **** 			static inline bool Endpoint_IsOUTReceived(void)
 482:lufa-lib-svn/LUFA/Drivers/USB/Core/AVR8/../AVR8/Endpoint_AVR8.h **** 			{
 483:lufa-lib-svn/LUFA/Drivers/USB/Core/AVR8/../AVR8/Endpoint_AVR8.h **** 				return ((UEINTX & (1 << RXOUTI)) ? true : false);
 484:lufa-lib-svn/LUFA/Drivers/USB/Core/AVR8/../AVR8/Endpoint_AVR8.h **** 			}
 485:lufa-lib-svn/LUFA/Drivers/USB/Core/AVR8/../AVR8/Endpoint_AVR8.h **** 
 486:lufa-lib-svn/LUFA/Drivers/USB/Core/AVR8/../AVR8/Endpoint_AVR8.h **** 			/** Determines if the current CONTROL type endpoint has received a SETUP packet.
 487:lufa-lib-svn/LUFA/Drivers/USB/Core/AVR8/../AVR8/Endpoint_AVR8.h **** 			 *
 488:lufa-lib-svn/LUFA/Drivers/USB/Core/AVR8/../AVR8/Endpoint_AVR8.h **** 			 *  \ingroup Group_EndpointPacketManagement_AVR8
 489:lufa-lib-svn/LUFA/Drivers/USB/Core/AVR8/../AVR8/Endpoint_AVR8.h **** 			 *
 490:lufa-lib-svn/LUFA/Drivers/USB/Core/AVR8/../AVR8/Endpoint_AVR8.h **** 			 *  \return Boolean \c true if the selected endpoint has received a SETUP packet, \c false other
 491:lufa-lib-svn/LUFA/Drivers/USB/Core/AVR8/../AVR8/Endpoint_AVR8.h **** 			 */
 492:lufa-lib-svn/LUFA/Drivers/USB/Core/AVR8/../AVR8/Endpoint_AVR8.h **** 			static inline bool Endpoint_IsSETUPReceived(void) ATTR_WARN_UNUSED_RESULT ATTR_ALWAYS_INLINE;
 493:lufa-lib-svn/LUFA/Drivers/USB/Core/AVR8/../AVR8/Endpoint_AVR8.h **** 			static inline bool Endpoint_IsSETUPReceived(void)
 494:lufa-lib-svn/LUFA/Drivers/USB/Core/AVR8/../AVR8/Endpoint_AVR8.h **** 			{
 495:lufa-lib-svn/LUFA/Drivers/USB/Core/AVR8/../AVR8/Endpoint_AVR8.h **** 				return ((UEINTX & (1 << RXSTPI)) ? true : false);
 496:lufa-lib-svn/LUFA/Drivers/USB/Core/AVR8/../AVR8/Endpoint_AVR8.h **** 			}
 497:lufa-lib-svn/LUFA/Drivers/USB/Core/AVR8/../AVR8/Endpoint_AVR8.h **** 
 498:lufa-lib-svn/LUFA/Drivers/USB/Core/AVR8/../AVR8/Endpoint_AVR8.h **** 			/** Clears a received SETUP packet on the currently selected CONTROL type endpoint, freeing up t
 499:lufa-lib-svn/LUFA/Drivers/USB/Core/AVR8/../AVR8/Endpoint_AVR8.h **** 			 *  endpoint for the next packet.
 500:lufa-lib-svn/LUFA/Drivers/USB/Core/AVR8/../AVR8/Endpoint_AVR8.h **** 			 *
 501:lufa-lib-svn/LUFA/Drivers/USB/Core/AVR8/../AVR8/Endpoint_AVR8.h **** 			 *  \ingroup Group_EndpointPacketManagement_AVR8
 502:lufa-lib-svn/LUFA/Drivers/USB/Core/AVR8/../AVR8/Endpoint_AVR8.h **** 			 *
 503:lufa-lib-svn/LUFA/Drivers/USB/Core/AVR8/../AVR8/Endpoint_AVR8.h **** 			 *  \note This is not applicable for non CONTROL type endpoints.
 504:lufa-lib-svn/LUFA/Drivers/USB/Core/AVR8/../AVR8/Endpoint_AVR8.h **** 			 */
 505:lufa-lib-svn/LUFA/Drivers/USB/Core/AVR8/../AVR8/Endpoint_AVR8.h **** 			static inline void Endpoint_ClearSETUP(void) ATTR_ALWAYS_INLINE;
 506:lufa-lib-svn/LUFA/Drivers/USB/Core/AVR8/../AVR8/Endpoint_AVR8.h **** 			static inline void Endpoint_ClearSETUP(void)
 507:lufa-lib-svn/LUFA/Drivers/USB/Core/AVR8/../AVR8/Endpoint_AVR8.h **** 			{
 508:lufa-lib-svn/LUFA/Drivers/USB/Core/AVR8/../AVR8/Endpoint_AVR8.h **** 				UEINTX &= ~(1 << RXSTPI);
 509:lufa-lib-svn/LUFA/Drivers/USB/Core/AVR8/../AVR8/Endpoint_AVR8.h **** 			}
 510:lufa-lib-svn/LUFA/Drivers/USB/Core/AVR8/../AVR8/Endpoint_AVR8.h **** 
 511:lufa-lib-svn/LUFA/Drivers/USB/Core/AVR8/../AVR8/Endpoint_AVR8.h **** 			/** Sends an IN packet to the host on the currently selected endpoint, freeing up the endpoint f
 512:lufa-lib-svn/LUFA/Drivers/USB/Core/AVR8/../AVR8/Endpoint_AVR8.h **** 			 *  next packet and switching to the alternative endpoint bank if double banked.
 513:lufa-lib-svn/LUFA/Drivers/USB/Core/AVR8/../AVR8/Endpoint_AVR8.h **** 			 *
 514:lufa-lib-svn/LUFA/Drivers/USB/Core/AVR8/../AVR8/Endpoint_AVR8.h **** 			 *  \ingroup Group_EndpointPacketManagement_AVR8
 515:lufa-lib-svn/LUFA/Drivers/USB/Core/AVR8/../AVR8/Endpoint_AVR8.h **** 			 */
 516:lufa-lib-svn/LUFA/Drivers/USB/Core/AVR8/../AVR8/Endpoint_AVR8.h **** 			static inline void Endpoint_ClearIN(void) ATTR_ALWAYS_INLINE;
 517:lufa-lib-svn/LUFA/Drivers/USB/Core/AVR8/../AVR8/Endpoint_AVR8.h **** 			static inline void Endpoint_ClearIN(void)
 518:lufa-lib-svn/LUFA/Drivers/USB/Core/AVR8/../AVR8/Endpoint_AVR8.h **** 			{
 519:lufa-lib-svn/LUFA/Drivers/USB/Core/AVR8/../AVR8/Endpoint_AVR8.h **** 				#if !defined(CONTROL_ONLY_DEVICE)
 520:lufa-lib-svn/LUFA/Drivers/USB/Core/AVR8/../AVR8/Endpoint_AVR8.h **** 					UEINTX &= ~((1 << TXINI) | (1 << FIFOCON));
 521:lufa-lib-svn/LUFA/Drivers/USB/Core/AVR8/../AVR8/Endpoint_AVR8.h **** 				#else
 522:lufa-lib-svn/LUFA/Drivers/USB/Core/AVR8/../AVR8/Endpoint_AVR8.h **** 					UEINTX &= ~(1 << TXINI);
 523:lufa-lib-svn/LUFA/Drivers/USB/Core/AVR8/../AVR8/Endpoint_AVR8.h **** 				#endif
 524:lufa-lib-svn/LUFA/Drivers/USB/Core/AVR8/../AVR8/Endpoint_AVR8.h **** 			}
 525:lufa-lib-svn/LUFA/Drivers/USB/Core/AVR8/../AVR8/Endpoint_AVR8.h **** 
 526:lufa-lib-svn/LUFA/Drivers/USB/Core/AVR8/../AVR8/Endpoint_AVR8.h **** 			/** Acknowledges an OUT packet to the host on the currently selected endpoint, freeing up the en
 527:lufa-lib-svn/LUFA/Drivers/USB/Core/AVR8/../AVR8/Endpoint_AVR8.h **** 			 *  for the next packet and switching to the alternative endpoint bank if double banked.
 528:lufa-lib-svn/LUFA/Drivers/USB/Core/AVR8/../AVR8/Endpoint_AVR8.h **** 			 *
 529:lufa-lib-svn/LUFA/Drivers/USB/Core/AVR8/../AVR8/Endpoint_AVR8.h **** 			 *  \ingroup Group_EndpointPacketManagement_AVR8
 530:lufa-lib-svn/LUFA/Drivers/USB/Core/AVR8/../AVR8/Endpoint_AVR8.h **** 			 */
 531:lufa-lib-svn/LUFA/Drivers/USB/Core/AVR8/../AVR8/Endpoint_AVR8.h **** 			static inline void Endpoint_ClearOUT(void) ATTR_ALWAYS_INLINE;
 532:lufa-lib-svn/LUFA/Drivers/USB/Core/AVR8/../AVR8/Endpoint_AVR8.h **** 			static inline void Endpoint_ClearOUT(void)
 533:lufa-lib-svn/LUFA/Drivers/USB/Core/AVR8/../AVR8/Endpoint_AVR8.h **** 			{
 534:lufa-lib-svn/LUFA/Drivers/USB/Core/AVR8/../AVR8/Endpoint_AVR8.h **** 				#if !defined(CONTROL_ONLY_DEVICE)
 535:lufa-lib-svn/LUFA/Drivers/USB/Core/AVR8/../AVR8/Endpoint_AVR8.h **** 					UEINTX &= ~((1 << RXOUTI) | (1 << FIFOCON));
 536:lufa-lib-svn/LUFA/Drivers/USB/Core/AVR8/../AVR8/Endpoint_AVR8.h **** 				#else
 537:lufa-lib-svn/LUFA/Drivers/USB/Core/AVR8/../AVR8/Endpoint_AVR8.h **** 					UEINTX &= ~(1 << RXOUTI);
 538:lufa-lib-svn/LUFA/Drivers/USB/Core/AVR8/../AVR8/Endpoint_AVR8.h **** 				#endif
 539:lufa-lib-svn/LUFA/Drivers/USB/Core/AVR8/../AVR8/Endpoint_AVR8.h **** 			}
 540:lufa-lib-svn/LUFA/Drivers/USB/Core/AVR8/../AVR8/Endpoint_AVR8.h **** 
 541:lufa-lib-svn/LUFA/Drivers/USB/Core/AVR8/../AVR8/Endpoint_AVR8.h **** 			/** Stalls the current endpoint, indicating to the host that a logical problem occurred with the
 542:lufa-lib-svn/LUFA/Drivers/USB/Core/AVR8/../AVR8/Endpoint_AVR8.h **** 			 *  indicated endpoint and that the current transfer sequence should be aborted. This provides a
 543:lufa-lib-svn/LUFA/Drivers/USB/Core/AVR8/../AVR8/Endpoint_AVR8.h **** 			 *  way for devices to indicate invalid commands to the host so that the current transfer can be
 544:lufa-lib-svn/LUFA/Drivers/USB/Core/AVR8/../AVR8/Endpoint_AVR8.h **** 			 *  aborted and the host can begin its own recovery sequence.
 545:lufa-lib-svn/LUFA/Drivers/USB/Core/AVR8/../AVR8/Endpoint_AVR8.h **** 			 *
 546:lufa-lib-svn/LUFA/Drivers/USB/Core/AVR8/../AVR8/Endpoint_AVR8.h **** 			 *  The currently selected endpoint remains stalled until either the \ref Endpoint_ClearStall() 
 547:lufa-lib-svn/LUFA/Drivers/USB/Core/AVR8/../AVR8/Endpoint_AVR8.h **** 			 *  is called, or the host issues a CLEAR FEATURE request to the device for the currently select
 548:lufa-lib-svn/LUFA/Drivers/USB/Core/AVR8/../AVR8/Endpoint_AVR8.h **** 			 *  endpoint.
 549:lufa-lib-svn/LUFA/Drivers/USB/Core/AVR8/../AVR8/Endpoint_AVR8.h **** 			 *
 550:lufa-lib-svn/LUFA/Drivers/USB/Core/AVR8/../AVR8/Endpoint_AVR8.h **** 			 *  \ingroup Group_EndpointPacketManagement_AVR8
 551:lufa-lib-svn/LUFA/Drivers/USB/Core/AVR8/../AVR8/Endpoint_AVR8.h **** 			 */
 552:lufa-lib-svn/LUFA/Drivers/USB/Core/AVR8/../AVR8/Endpoint_AVR8.h **** 			static inline void Endpoint_StallTransaction(void) ATTR_ALWAYS_INLINE;
 553:lufa-lib-svn/LUFA/Drivers/USB/Core/AVR8/../AVR8/Endpoint_AVR8.h **** 			static inline void Endpoint_StallTransaction(void)
 554:lufa-lib-svn/LUFA/Drivers/USB/Core/AVR8/../AVR8/Endpoint_AVR8.h **** 			{
 555:lufa-lib-svn/LUFA/Drivers/USB/Core/AVR8/../AVR8/Endpoint_AVR8.h **** 				UECONX |= (1 << STALLRQ);
 556:lufa-lib-svn/LUFA/Drivers/USB/Core/AVR8/../AVR8/Endpoint_AVR8.h **** 			}
 557:lufa-lib-svn/LUFA/Drivers/USB/Core/AVR8/../AVR8/Endpoint_AVR8.h **** 
 558:lufa-lib-svn/LUFA/Drivers/USB/Core/AVR8/../AVR8/Endpoint_AVR8.h **** 			/** Clears the STALL condition on the currently selected endpoint.
 559:lufa-lib-svn/LUFA/Drivers/USB/Core/AVR8/../AVR8/Endpoint_AVR8.h **** 			 *
 560:lufa-lib-svn/LUFA/Drivers/USB/Core/AVR8/../AVR8/Endpoint_AVR8.h **** 			 *  \ingroup Group_EndpointPacketManagement_AVR8
 561:lufa-lib-svn/LUFA/Drivers/USB/Core/AVR8/../AVR8/Endpoint_AVR8.h **** 			 */
 562:lufa-lib-svn/LUFA/Drivers/USB/Core/AVR8/../AVR8/Endpoint_AVR8.h **** 			static inline void Endpoint_ClearStall(void) ATTR_ALWAYS_INLINE;
 563:lufa-lib-svn/LUFA/Drivers/USB/Core/AVR8/../AVR8/Endpoint_AVR8.h **** 			static inline void Endpoint_ClearStall(void)
 564:lufa-lib-svn/LUFA/Drivers/USB/Core/AVR8/../AVR8/Endpoint_AVR8.h **** 			{
 565:lufa-lib-svn/LUFA/Drivers/USB/Core/AVR8/../AVR8/Endpoint_AVR8.h **** 				UECONX |= (1 << STALLRQC);
 566:lufa-lib-svn/LUFA/Drivers/USB/Core/AVR8/../AVR8/Endpoint_AVR8.h **** 			}
 567:lufa-lib-svn/LUFA/Drivers/USB/Core/AVR8/../AVR8/Endpoint_AVR8.h **** 
 568:lufa-lib-svn/LUFA/Drivers/USB/Core/AVR8/../AVR8/Endpoint_AVR8.h **** 			/** Determines if the currently selected endpoint is stalled, false otherwise.
 569:lufa-lib-svn/LUFA/Drivers/USB/Core/AVR8/../AVR8/Endpoint_AVR8.h **** 			 *
 570:lufa-lib-svn/LUFA/Drivers/USB/Core/AVR8/../AVR8/Endpoint_AVR8.h **** 			 *  \ingroup Group_EndpointPacketManagement_AVR8
 571:lufa-lib-svn/LUFA/Drivers/USB/Core/AVR8/../AVR8/Endpoint_AVR8.h **** 			 *
 572:lufa-lib-svn/LUFA/Drivers/USB/Core/AVR8/../AVR8/Endpoint_AVR8.h **** 			 *  \return Boolean \c true if the currently selected endpoint is stalled, \c false otherwise.
 573:lufa-lib-svn/LUFA/Drivers/USB/Core/AVR8/../AVR8/Endpoint_AVR8.h **** 			 */
 574:lufa-lib-svn/LUFA/Drivers/USB/Core/AVR8/../AVR8/Endpoint_AVR8.h **** 			static inline bool Endpoint_IsStalled(void) ATTR_WARN_UNUSED_RESULT ATTR_ALWAYS_INLINE;
 575:lufa-lib-svn/LUFA/Drivers/USB/Core/AVR8/../AVR8/Endpoint_AVR8.h **** 			static inline bool Endpoint_IsStalled(void)
 576:lufa-lib-svn/LUFA/Drivers/USB/Core/AVR8/../AVR8/Endpoint_AVR8.h **** 			{
 577:lufa-lib-svn/LUFA/Drivers/USB/Core/AVR8/../AVR8/Endpoint_AVR8.h **** 				return ((UECONX & (1 << STALLRQ)) ? true : false);
 578:lufa-lib-svn/LUFA/Drivers/USB/Core/AVR8/../AVR8/Endpoint_AVR8.h **** 			}
 579:lufa-lib-svn/LUFA/Drivers/USB/Core/AVR8/../AVR8/Endpoint_AVR8.h **** 
 580:lufa-lib-svn/LUFA/Drivers/USB/Core/AVR8/../AVR8/Endpoint_AVR8.h **** 			/** Resets the data toggle of the currently selected endpoint. */
 581:lufa-lib-svn/LUFA/Drivers/USB/Core/AVR8/../AVR8/Endpoint_AVR8.h **** 			static inline void Endpoint_ResetDataToggle(void) ATTR_ALWAYS_INLINE;
 582:lufa-lib-svn/LUFA/Drivers/USB/Core/AVR8/../AVR8/Endpoint_AVR8.h **** 			static inline void Endpoint_ResetDataToggle(void)
 583:lufa-lib-svn/LUFA/Drivers/USB/Core/AVR8/../AVR8/Endpoint_AVR8.h **** 			{
 584:lufa-lib-svn/LUFA/Drivers/USB/Core/AVR8/../AVR8/Endpoint_AVR8.h **** 				UECONX |= (1 << RSTDT);
 585:lufa-lib-svn/LUFA/Drivers/USB/Core/AVR8/../AVR8/Endpoint_AVR8.h **** 			}
 586:lufa-lib-svn/LUFA/Drivers/USB/Core/AVR8/../AVR8/Endpoint_AVR8.h **** 
 587:lufa-lib-svn/LUFA/Drivers/USB/Core/AVR8/../AVR8/Endpoint_AVR8.h **** 			/** Determines the currently selected endpoint's direction.
 588:lufa-lib-svn/LUFA/Drivers/USB/Core/AVR8/../AVR8/Endpoint_AVR8.h **** 			 *
 589:lufa-lib-svn/LUFA/Drivers/USB/Core/AVR8/../AVR8/Endpoint_AVR8.h **** 			 *  \return The currently selected endpoint's direction, as a \c ENDPOINT_DIR_* mask.
 590:lufa-lib-svn/LUFA/Drivers/USB/Core/AVR8/../AVR8/Endpoint_AVR8.h **** 			 */
 591:lufa-lib-svn/LUFA/Drivers/USB/Core/AVR8/../AVR8/Endpoint_AVR8.h **** 			static inline uint8_t Endpoint_GetEndpointDirection(void) ATTR_WARN_UNUSED_RESULT ATTR_ALWAYS_IN
 592:lufa-lib-svn/LUFA/Drivers/USB/Core/AVR8/../AVR8/Endpoint_AVR8.h **** 			static inline uint8_t Endpoint_GetEndpointDirection(void)
 593:lufa-lib-svn/LUFA/Drivers/USB/Core/AVR8/../AVR8/Endpoint_AVR8.h **** 			{
 594:lufa-lib-svn/LUFA/Drivers/USB/Core/AVR8/../AVR8/Endpoint_AVR8.h **** 				return (UECFG0X & (1 << EPDIR)) ? ENDPOINT_DIR_IN : ENDPOINT_DIR_OUT;
 595:lufa-lib-svn/LUFA/Drivers/USB/Core/AVR8/../AVR8/Endpoint_AVR8.h **** 			}
 596:lufa-lib-svn/LUFA/Drivers/USB/Core/AVR8/../AVR8/Endpoint_AVR8.h **** 
 597:lufa-lib-svn/LUFA/Drivers/USB/Core/AVR8/../AVR8/Endpoint_AVR8.h **** 			/** Sets the direction of the currently selected endpoint.
 598:lufa-lib-svn/LUFA/Drivers/USB/Core/AVR8/../AVR8/Endpoint_AVR8.h **** 			 *
 599:lufa-lib-svn/LUFA/Drivers/USB/Core/AVR8/../AVR8/Endpoint_AVR8.h **** 			 *  \param[in] DirectionMask  New endpoint direction, as a \c ENDPOINT_DIR_* mask.
 600:lufa-lib-svn/LUFA/Drivers/USB/Core/AVR8/../AVR8/Endpoint_AVR8.h **** 			 */
 601:lufa-lib-svn/LUFA/Drivers/USB/Core/AVR8/../AVR8/Endpoint_AVR8.h **** 			static inline void Endpoint_SetEndpointDirection(const uint8_t DirectionMask) ATTR_ALWAYS_INLINE
 602:lufa-lib-svn/LUFA/Drivers/USB/Core/AVR8/../AVR8/Endpoint_AVR8.h **** 			static inline void Endpoint_SetEndpointDirection(const uint8_t DirectionMask)
 603:lufa-lib-svn/LUFA/Drivers/USB/Core/AVR8/../AVR8/Endpoint_AVR8.h **** 			{
 604:lufa-lib-svn/LUFA/Drivers/USB/Core/AVR8/../AVR8/Endpoint_AVR8.h **** 				UECFG0X = ((UECFG0X & ~(1 << EPDIR)) | (DirectionMask ? (1 << EPDIR) : 0));
 605:lufa-lib-svn/LUFA/Drivers/USB/Core/AVR8/../AVR8/Endpoint_AVR8.h **** 			}
 606:lufa-lib-svn/LUFA/Drivers/USB/Core/AVR8/../AVR8/Endpoint_AVR8.h **** 
 607:lufa-lib-svn/LUFA/Drivers/USB/Core/AVR8/../AVR8/Endpoint_AVR8.h **** 			/** Reads one byte from the currently selected endpoint's bank, for OUT direction endpoints.
 608:lufa-lib-svn/LUFA/Drivers/USB/Core/AVR8/../AVR8/Endpoint_AVR8.h **** 			 *
 609:lufa-lib-svn/LUFA/Drivers/USB/Core/AVR8/../AVR8/Endpoint_AVR8.h **** 			 *  \ingroup Group_EndpointPrimitiveRW_AVR8
 610:lufa-lib-svn/LUFA/Drivers/USB/Core/AVR8/../AVR8/Endpoint_AVR8.h **** 			 *
 611:lufa-lib-svn/LUFA/Drivers/USB/Core/AVR8/../AVR8/Endpoint_AVR8.h **** 			 *  \return Next byte in the currently selected endpoint's FIFO buffer.
 612:lufa-lib-svn/LUFA/Drivers/USB/Core/AVR8/../AVR8/Endpoint_AVR8.h **** 			 */
 613:lufa-lib-svn/LUFA/Drivers/USB/Core/AVR8/../AVR8/Endpoint_AVR8.h **** 			static inline uint8_t Endpoint_Read_8(void) ATTR_WARN_UNUSED_RESULT ATTR_ALWAYS_INLINE;
 614:lufa-lib-svn/LUFA/Drivers/USB/Core/AVR8/../AVR8/Endpoint_AVR8.h **** 			static inline uint8_t Endpoint_Read_8(void)
 615:lufa-lib-svn/LUFA/Drivers/USB/Core/AVR8/../AVR8/Endpoint_AVR8.h **** 			{
 616:lufa-lib-svn/LUFA/Drivers/USB/Core/AVR8/../AVR8/Endpoint_AVR8.h **** 				return UEDATX;
  68               		.loc 2 616 0
  69 0020 8091 F100 		lds r24,241
  70               	.LBE180:
  71               	.LBE179:
  59:lufa-lib-svn/LUFA/Drivers/USB/Core/DeviceStandardReq.c **** 
  60:lufa-lib-svn/LUFA/Drivers/USB/Core/DeviceStandardReq.c **** 	for (uint8_t RequestHeaderByte = 0; RequestHeaderByte < sizeof(USB_Request_Header_t); RequestHeade
  61:lufa-lib-svn/LUFA/Drivers/USB/Core/DeviceStandardReq.c **** 	  *(RequestHeader++) = Endpoint_Read_8();
  72               		.loc 1 61 0
  73 0024 8193      		st Z+,r24
  74               	.LVL2:
  60:lufa-lib-svn/LUFA/Drivers/USB/Core/DeviceStandardReq.c **** 	for (uint8_t RequestHeaderByte = 0; RequestHeaderByte < sizeof(USB_Request_Header_t); RequestHeade
  75               		.loc 1 60 0
  76 0026 20E0      		ldi r18,hi8(USB_ControlRequest+8)
  77 0028 E030      		cpi r30,lo8(USB_ControlRequest+8)
  78 002a F207      		cpc r31,r18
  79 002c 01F4      		brne .L2
  80               	.LBE178:
  62:lufa-lib-svn/LUFA/Drivers/USB/Core/DeviceStandardReq.c **** 	#endif
  63:lufa-lib-svn/LUFA/Drivers/USB/Core/DeviceStandardReq.c **** 
  64:lufa-lib-svn/LUFA/Drivers/USB/Core/DeviceStandardReq.c **** 	EVENT_USB_Device_ControlRequest();
  81               		.loc 1 64 0
  82 002e 0E94 0000 		call EVENT_USB_Device_ControlRequest
  83               	.LVL3:
  84               	.LBB181:
  85               	.LBB182:
 495:lufa-lib-svn/LUFA/Drivers/USB/Core/AVR8/../AVR8/Endpoint_AVR8.h **** 				return ((UEINTX & (1 << RXSTPI)) ? true : false);
  86               		.loc 2 495 0
  87 0032 8091 E800 		lds r24,232
  88               	.LBE182:
  89               	.LBE181:
  65:lufa-lib-svn/LUFA/Drivers/USB/Core/DeviceStandardReq.c **** 
  66:lufa-lib-svn/LUFA/Drivers/USB/Core/DeviceStandardReq.c **** 	if (Endpoint_IsSETUPReceived())
  90               		.loc 1 66 0
  91 0036 83FF      		sbrs r24,3
  92 0038 00C0      		rjmp .L3
  93               	.LBB183:
  67:lufa-lib-svn/LUFA/Drivers/USB/Core/DeviceStandardReq.c **** 	{
  68:lufa-lib-svn/LUFA/Drivers/USB/Core/DeviceStandardReq.c **** 		uint8_t bmRequestType = USB_ControlRequest.bmRequestType;
  94               		.loc 1 68 0
  95 003a 8091 0000 		lds r24,USB_ControlRequest
  96               	.LVL4:
  69:lufa-lib-svn/LUFA/Drivers/USB/Core/DeviceStandardReq.c **** 
  70:lufa-lib-svn/LUFA/Drivers/USB/Core/DeviceStandardReq.c **** 		switch (USB_ControlRequest.bRequest)
  97               		.loc 1 70 0
  98 003e 9091 0000 		lds r25,USB_ControlRequest+1
  99 0042 9530      		cpi r25,lo8(5)
 100 0044 01F4      		brne .+2
 101 0046 00C0      		rjmp .L6
 102 0048 00F4      		brsh .L10
 103 004a 9130      		cpi r25,lo8(1)
 104 004c 01F0      		breq .L5
 105 004e 00F0      		brlo .L4
 106 0050 9330      		cpi r25,lo8(3)
 107 0052 01F0      		breq .+2
 108 0054 00C0      		rjmp .L3
 109 0056 00C0      		rjmp .L5
 110               	.L10:
 111 0058 9830      		cpi r25,lo8(8)
 112 005a 01F4      		brne .+2
 113 005c 00C0      		rjmp .L8
 114 005e 9930      		cpi r25,lo8(9)
 115 0060 01F4      		brne .+2
 116 0062 00C0      		rjmp .L9
 117 0064 9630      		cpi r25,lo8(6)
 118 0066 01F0      		breq .+2
 119 0068 00C0      		rjmp .L3
 120 006a 00C0      		rjmp .L7
 121               	.L4:
  71:lufa-lib-svn/LUFA/Drivers/USB/Core/DeviceStandardReq.c **** 		{
  72:lufa-lib-svn/LUFA/Drivers/USB/Core/DeviceStandardReq.c **** 			case REQ_GetStatus:
  73:lufa-lib-svn/LUFA/Drivers/USB/Core/DeviceStandardReq.c **** 				if ((bmRequestType == (REQDIR_DEVICETOHOST | REQTYPE_STANDARD | REQREC_DEVICE)) ||
 122               		.loc 1 73 0
 123 006c 8038      		cpi r24,lo8(-128)
 124 006e 01F0      		breq .L11
 125               		.loc 1 73 0 is_stmt 0 discriminator 1
 126 0070 8238      		cpi r24,lo8(-126)
 127 0072 01F0      		breq .+2
 128 0074 00C0      		rjmp .L3
 129 0076 00C0      		rjmp .L12
 130               	.L11:
 131               	.LVL5:
  74:lufa-lib-svn/LUFA/Drivers/USB/Core/DeviceStandardReq.c **** 					(bmRequestType == (REQDIR_DEVICETOHOST | REQTYPE_STANDARD | REQREC_ENDPOINT)))
  75:lufa-lib-svn/LUFA/Drivers/USB/Core/DeviceStandardReq.c **** 				{
  76:lufa-lib-svn/LUFA/Drivers/USB/Core/DeviceStandardReq.c **** 					USB_Device_GetStatus();
  77:lufa-lib-svn/LUFA/Drivers/USB/Core/DeviceStandardReq.c **** 				}
  78:lufa-lib-svn/LUFA/Drivers/USB/Core/DeviceStandardReq.c **** 
  79:lufa-lib-svn/LUFA/Drivers/USB/Core/DeviceStandardReq.c **** 				break;
  80:lufa-lib-svn/LUFA/Drivers/USB/Core/DeviceStandardReq.c **** 			case REQ_ClearFeature:
  81:lufa-lib-svn/LUFA/Drivers/USB/Core/DeviceStandardReq.c **** 			case REQ_SetFeature:
  82:lufa-lib-svn/LUFA/Drivers/USB/Core/DeviceStandardReq.c **** 				if ((bmRequestType == (REQDIR_HOSTTODEVICE | REQTYPE_STANDARD | REQREC_DEVICE)) ||
  83:lufa-lib-svn/LUFA/Drivers/USB/Core/DeviceStandardReq.c **** 					(bmRequestType == (REQDIR_HOSTTODEVICE | REQTYPE_STANDARD | REQREC_ENDPOINT)))
  84:lufa-lib-svn/LUFA/Drivers/USB/Core/DeviceStandardReq.c **** 				{
  85:lufa-lib-svn/LUFA/Drivers/USB/Core/DeviceStandardReq.c **** 					USB_Device_ClearSetFeature();
  86:lufa-lib-svn/LUFA/Drivers/USB/Core/DeviceStandardReq.c **** 				}
  87:lufa-lib-svn/LUFA/Drivers/USB/Core/DeviceStandardReq.c **** 
  88:lufa-lib-svn/LUFA/Drivers/USB/Core/DeviceStandardReq.c **** 				break;
  89:lufa-lib-svn/LUFA/Drivers/USB/Core/DeviceStandardReq.c **** 			case REQ_SetAddress:
  90:lufa-lib-svn/LUFA/Drivers/USB/Core/DeviceStandardReq.c **** 				if (bmRequestType == (REQDIR_HOSTTODEVICE | REQTYPE_STANDARD | REQREC_DEVICE))
  91:lufa-lib-svn/LUFA/Drivers/USB/Core/DeviceStandardReq.c **** 				  USB_Device_SetAddress();
  92:lufa-lib-svn/LUFA/Drivers/USB/Core/DeviceStandardReq.c **** 
  93:lufa-lib-svn/LUFA/Drivers/USB/Core/DeviceStandardReq.c **** 				break;
  94:lufa-lib-svn/LUFA/Drivers/USB/Core/DeviceStandardReq.c **** 			case REQ_GetDescriptor:
  95:lufa-lib-svn/LUFA/Drivers/USB/Core/DeviceStandardReq.c **** 				if ((bmRequestType == (REQDIR_DEVICETOHOST | REQTYPE_STANDARD | REQREC_DEVICE)) ||
  96:lufa-lib-svn/LUFA/Drivers/USB/Core/DeviceStandardReq.c **** 					(bmRequestType == (REQDIR_DEVICETOHOST | REQTYPE_STANDARD | REQREC_INTERFACE)))
  97:lufa-lib-svn/LUFA/Drivers/USB/Core/DeviceStandardReq.c **** 				{
  98:lufa-lib-svn/LUFA/Drivers/USB/Core/DeviceStandardReq.c **** 					USB_Device_GetDescriptor();
  99:lufa-lib-svn/LUFA/Drivers/USB/Core/DeviceStandardReq.c **** 				}
 100:lufa-lib-svn/LUFA/Drivers/USB/Core/DeviceStandardReq.c **** 
 101:lufa-lib-svn/LUFA/Drivers/USB/Core/DeviceStandardReq.c **** 				break;
 102:lufa-lib-svn/LUFA/Drivers/USB/Core/DeviceStandardReq.c **** 			case REQ_GetConfiguration:
 103:lufa-lib-svn/LUFA/Drivers/USB/Core/DeviceStandardReq.c **** 				if (bmRequestType == (REQDIR_DEVICETOHOST | REQTYPE_STANDARD | REQREC_DEVICE))
 104:lufa-lib-svn/LUFA/Drivers/USB/Core/DeviceStandardReq.c **** 				  USB_Device_GetConfiguration();
 105:lufa-lib-svn/LUFA/Drivers/USB/Core/DeviceStandardReq.c **** 
 106:lufa-lib-svn/LUFA/Drivers/USB/Core/DeviceStandardReq.c **** 				break;
 107:lufa-lib-svn/LUFA/Drivers/USB/Core/DeviceStandardReq.c **** 			case REQ_SetConfiguration:
 108:lufa-lib-svn/LUFA/Drivers/USB/Core/DeviceStandardReq.c **** 				if (bmRequestType == (REQDIR_HOSTTODEVICE | REQTYPE_STANDARD | REQREC_DEVICE))
 109:lufa-lib-svn/LUFA/Drivers/USB/Core/DeviceStandardReq.c **** 				  USB_Device_SetConfiguration();
 110:lufa-lib-svn/LUFA/Drivers/USB/Core/DeviceStandardReq.c **** 
 111:lufa-lib-svn/LUFA/Drivers/USB/Core/DeviceStandardReq.c **** 				break;
 112:lufa-lib-svn/LUFA/Drivers/USB/Core/DeviceStandardReq.c **** 		}
 113:lufa-lib-svn/LUFA/Drivers/USB/Core/DeviceStandardReq.c **** 	}
 114:lufa-lib-svn/LUFA/Drivers/USB/Core/DeviceStandardReq.c **** 
 115:lufa-lib-svn/LUFA/Drivers/USB/Core/DeviceStandardReq.c **** 	if (Endpoint_IsSETUPReceived())
 116:lufa-lib-svn/LUFA/Drivers/USB/Core/DeviceStandardReq.c **** 	{
 117:lufa-lib-svn/LUFA/Drivers/USB/Core/DeviceStandardReq.c **** 		Endpoint_StallTransaction();
 118:lufa-lib-svn/LUFA/Drivers/USB/Core/DeviceStandardReq.c **** 		Endpoint_ClearSETUP();
 119:lufa-lib-svn/LUFA/Drivers/USB/Core/DeviceStandardReq.c **** 	}
 120:lufa-lib-svn/LUFA/Drivers/USB/Core/DeviceStandardReq.c **** }
 121:lufa-lib-svn/LUFA/Drivers/USB/Core/DeviceStandardReq.c **** 
 122:lufa-lib-svn/LUFA/Drivers/USB/Core/DeviceStandardReq.c **** static void USB_Device_SetAddress(void)
 123:lufa-lib-svn/LUFA/Drivers/USB/Core/DeviceStandardReq.c **** {
 124:lufa-lib-svn/LUFA/Drivers/USB/Core/DeviceStandardReq.c **** 	uint8_t    DeviceAddress    = (USB_ControlRequest.wValue & 0x7F);
 125:lufa-lib-svn/LUFA/Drivers/USB/Core/DeviceStandardReq.c **** 	uint_reg_t CurrentGlobalInt = GetGlobalInterruptMask();
 126:lufa-lib-svn/LUFA/Drivers/USB/Core/DeviceStandardReq.c **** 	GlobalInterruptDisable();
 127:lufa-lib-svn/LUFA/Drivers/USB/Core/DeviceStandardReq.c **** 
 128:lufa-lib-svn/LUFA/Drivers/USB/Core/DeviceStandardReq.c **** 	Endpoint_ClearSETUP();
 129:lufa-lib-svn/LUFA/Drivers/USB/Core/DeviceStandardReq.c **** 
 130:lufa-lib-svn/LUFA/Drivers/USB/Core/DeviceStandardReq.c **** 	Endpoint_ClearStatusStage();
 131:lufa-lib-svn/LUFA/Drivers/USB/Core/DeviceStandardReq.c **** 
 132:lufa-lib-svn/LUFA/Drivers/USB/Core/DeviceStandardReq.c **** 	while (!(Endpoint_IsINReady()));
 133:lufa-lib-svn/LUFA/Drivers/USB/Core/DeviceStandardReq.c **** 
 134:lufa-lib-svn/LUFA/Drivers/USB/Core/DeviceStandardReq.c **** 	USB_Device_SetDeviceAddress(DeviceAddress);
 135:lufa-lib-svn/LUFA/Drivers/USB/Core/DeviceStandardReq.c **** 	USB_DeviceState = (DeviceAddress) ? DEVICE_STATE_Addressed : DEVICE_STATE_Default;
 136:lufa-lib-svn/LUFA/Drivers/USB/Core/DeviceStandardReq.c **** 
 137:lufa-lib-svn/LUFA/Drivers/USB/Core/DeviceStandardReq.c **** 	SetGlobalInterruptMask(CurrentGlobalInt);
 138:lufa-lib-svn/LUFA/Drivers/USB/Core/DeviceStandardReq.c **** }
 139:lufa-lib-svn/LUFA/Drivers/USB/Core/DeviceStandardReq.c **** 
 140:lufa-lib-svn/LUFA/Drivers/USB/Core/DeviceStandardReq.c **** static void USB_Device_SetConfiguration(void)
 141:lufa-lib-svn/LUFA/Drivers/USB/Core/DeviceStandardReq.c **** {
 142:lufa-lib-svn/LUFA/Drivers/USB/Core/DeviceStandardReq.c **** 	#if defined(FIXED_NUM_CONFIGURATIONS)
 143:lufa-lib-svn/LUFA/Drivers/USB/Core/DeviceStandardReq.c **** 	if ((uint8_t)USB_ControlRequest.wValue > FIXED_NUM_CONFIGURATIONS)
 144:lufa-lib-svn/LUFA/Drivers/USB/Core/DeviceStandardReq.c **** 	  return;
 145:lufa-lib-svn/LUFA/Drivers/USB/Core/DeviceStandardReq.c **** 	#else
 146:lufa-lib-svn/LUFA/Drivers/USB/Core/DeviceStandardReq.c **** 	USB_Descriptor_Device_t* DevDescriptorPtr;
 147:lufa-lib-svn/LUFA/Drivers/USB/Core/DeviceStandardReq.c **** 
 148:lufa-lib-svn/LUFA/Drivers/USB/Core/DeviceStandardReq.c **** 	#if defined(ARCH_HAS_MULTI_ADDRESS_SPACE)
 149:lufa-lib-svn/LUFA/Drivers/USB/Core/DeviceStandardReq.c **** 		#if defined(USE_FLASH_DESCRIPTORS)
 150:lufa-lib-svn/LUFA/Drivers/USB/Core/DeviceStandardReq.c **** 			#define MemoryAddressSpace  MEMSPACE_FLASH
 151:lufa-lib-svn/LUFA/Drivers/USB/Core/DeviceStandardReq.c **** 		#elif defined(USE_EEPROM_DESCRIPTORS)
 152:lufa-lib-svn/LUFA/Drivers/USB/Core/DeviceStandardReq.c **** 			#define MemoryAddressSpace  MEMSPACE_EEPROM
 153:lufa-lib-svn/LUFA/Drivers/USB/Core/DeviceStandardReq.c **** 		#elif defined(USE_SRAM_DESCRIPTORS)
 154:lufa-lib-svn/LUFA/Drivers/USB/Core/DeviceStandardReq.c **** 			#define MemoryAddressSpace  MEMSPACE_SRAM
 155:lufa-lib-svn/LUFA/Drivers/USB/Core/DeviceStandardReq.c **** 		#else
 156:lufa-lib-svn/LUFA/Drivers/USB/Core/DeviceStandardReq.c **** 			uint8_t MemoryAddressSpace;
 157:lufa-lib-svn/LUFA/Drivers/USB/Core/DeviceStandardReq.c **** 		#endif
 158:lufa-lib-svn/LUFA/Drivers/USB/Core/DeviceStandardReq.c **** 	#endif
 159:lufa-lib-svn/LUFA/Drivers/USB/Core/DeviceStandardReq.c **** 
 160:lufa-lib-svn/LUFA/Drivers/USB/Core/DeviceStandardReq.c **** 	if (CALLBACK_USB_GetDescriptor((DTYPE_Device << 8), 0, (void*)&DevDescriptorPtr
 161:lufa-lib-svn/LUFA/Drivers/USB/Core/DeviceStandardReq.c **** 	#if defined(ARCH_HAS_MULTI_ADDRESS_SPACE) && \
 162:lufa-lib-svn/LUFA/Drivers/USB/Core/DeviceStandardReq.c **** 	    !(defined(USE_FLASH_DESCRIPTORS) || defined(USE_EEPROM_DESCRIPTORS) || defined(USE_RAM_DESCRIP
 163:lufa-lib-svn/LUFA/Drivers/USB/Core/DeviceStandardReq.c **** 	                               , &MemoryAddressSpace
 164:lufa-lib-svn/LUFA/Drivers/USB/Core/DeviceStandardReq.c **** 	#endif
 165:lufa-lib-svn/LUFA/Drivers/USB/Core/DeviceStandardReq.c **** 	                               ) == NO_DESCRIPTOR)
 166:lufa-lib-svn/LUFA/Drivers/USB/Core/DeviceStandardReq.c **** 	{
 167:lufa-lib-svn/LUFA/Drivers/USB/Core/DeviceStandardReq.c **** 		return;
 168:lufa-lib-svn/LUFA/Drivers/USB/Core/DeviceStandardReq.c **** 	}
 169:lufa-lib-svn/LUFA/Drivers/USB/Core/DeviceStandardReq.c **** 
 170:lufa-lib-svn/LUFA/Drivers/USB/Core/DeviceStandardReq.c **** 	#if defined(ARCH_HAS_MULTI_ADDRESS_SPACE)
 171:lufa-lib-svn/LUFA/Drivers/USB/Core/DeviceStandardReq.c **** 	if (MemoryAddressSpace == MEMSPACE_FLASH)
 172:lufa-lib-svn/LUFA/Drivers/USB/Core/DeviceStandardReq.c **** 	{
 173:lufa-lib-svn/LUFA/Drivers/USB/Core/DeviceStandardReq.c **** 		if (((uint8_t)USB_ControlRequest.wValue > pgm_read_byte(&DevDescriptorPtr->NumberOfConfigurations
 174:lufa-lib-svn/LUFA/Drivers/USB/Core/DeviceStandardReq.c **** 		  return;
 175:lufa-lib-svn/LUFA/Drivers/USB/Core/DeviceStandardReq.c **** 	}
 176:lufa-lib-svn/LUFA/Drivers/USB/Core/DeviceStandardReq.c **** 	else if (MemoryAddressSpace == MEMSPACE_EEPROM)
 177:lufa-lib-svn/LUFA/Drivers/USB/Core/DeviceStandardReq.c **** 	{
 178:lufa-lib-svn/LUFA/Drivers/USB/Core/DeviceStandardReq.c **** 		if (((uint8_t)USB_ControlRequest.wValue > eeprom_read_byte(&DevDescriptorPtr->NumberOfConfigurati
 179:lufa-lib-svn/LUFA/Drivers/USB/Core/DeviceStandardReq.c **** 		  return;
 180:lufa-lib-svn/LUFA/Drivers/USB/Core/DeviceStandardReq.c **** 	}
 181:lufa-lib-svn/LUFA/Drivers/USB/Core/DeviceStandardReq.c **** 	else
 182:lufa-lib-svn/LUFA/Drivers/USB/Core/DeviceStandardReq.c **** 	{
 183:lufa-lib-svn/LUFA/Drivers/USB/Core/DeviceStandardReq.c **** 		if ((uint8_t)USB_ControlRequest.wValue > DevDescriptorPtr->NumberOfConfigurations)
 184:lufa-lib-svn/LUFA/Drivers/USB/Core/DeviceStandardReq.c **** 		  return;
 185:lufa-lib-svn/LUFA/Drivers/USB/Core/DeviceStandardReq.c **** 	}
 186:lufa-lib-svn/LUFA/Drivers/USB/Core/DeviceStandardReq.c **** 	#else
 187:lufa-lib-svn/LUFA/Drivers/USB/Core/DeviceStandardReq.c **** 	if ((uint8_t)USB_ControlRequest.wValue > DevDescriptorPtr->NumberOfConfigurations)
 188:lufa-lib-svn/LUFA/Drivers/USB/Core/DeviceStandardReq.c **** 	  return;
 189:lufa-lib-svn/LUFA/Drivers/USB/Core/DeviceStandardReq.c **** 	#endif
 190:lufa-lib-svn/LUFA/Drivers/USB/Core/DeviceStandardReq.c **** 	#endif
 191:lufa-lib-svn/LUFA/Drivers/USB/Core/DeviceStandardReq.c **** 
 192:lufa-lib-svn/LUFA/Drivers/USB/Core/DeviceStandardReq.c **** 	Endpoint_ClearSETUP();
 193:lufa-lib-svn/LUFA/Drivers/USB/Core/DeviceStandardReq.c **** 
 194:lufa-lib-svn/LUFA/Drivers/USB/Core/DeviceStandardReq.c **** 	USB_Device_ConfigurationNumber = (uint8_t)USB_ControlRequest.wValue;
 195:lufa-lib-svn/LUFA/Drivers/USB/Core/DeviceStandardReq.c **** 
 196:lufa-lib-svn/LUFA/Drivers/USB/Core/DeviceStandardReq.c **** 	Endpoint_ClearStatusStage();
 197:lufa-lib-svn/LUFA/Drivers/USB/Core/DeviceStandardReq.c **** 
 198:lufa-lib-svn/LUFA/Drivers/USB/Core/DeviceStandardReq.c **** 	if (USB_Device_ConfigurationNumber)
 199:lufa-lib-svn/LUFA/Drivers/USB/Core/DeviceStandardReq.c **** 	  USB_DeviceState = DEVICE_STATE_Configured;
 200:lufa-lib-svn/LUFA/Drivers/USB/Core/DeviceStandardReq.c **** 	else
 201:lufa-lib-svn/LUFA/Drivers/USB/Core/DeviceStandardReq.c **** 	  USB_DeviceState = (USB_Device_IsAddressSet()) ? DEVICE_STATE_Configured : DEVICE_STATE_Powered;
 202:lufa-lib-svn/LUFA/Drivers/USB/Core/DeviceStandardReq.c **** 
 203:lufa-lib-svn/LUFA/Drivers/USB/Core/DeviceStandardReq.c **** 	EVENT_USB_Device_ConfigurationChanged();
 204:lufa-lib-svn/LUFA/Drivers/USB/Core/DeviceStandardReq.c **** }
 205:lufa-lib-svn/LUFA/Drivers/USB/Core/DeviceStandardReq.c **** 
 206:lufa-lib-svn/LUFA/Drivers/USB/Core/DeviceStandardReq.c **** static void USB_Device_GetConfiguration(void)
 207:lufa-lib-svn/LUFA/Drivers/USB/Core/DeviceStandardReq.c **** {
 208:lufa-lib-svn/LUFA/Drivers/USB/Core/DeviceStandardReq.c **** 	Endpoint_ClearSETUP();
 209:lufa-lib-svn/LUFA/Drivers/USB/Core/DeviceStandardReq.c **** 
 210:lufa-lib-svn/LUFA/Drivers/USB/Core/DeviceStandardReq.c **** 	Endpoint_Write_8(USB_Device_ConfigurationNumber);
 211:lufa-lib-svn/LUFA/Drivers/USB/Core/DeviceStandardReq.c **** 	Endpoint_ClearIN();
 212:lufa-lib-svn/LUFA/Drivers/USB/Core/DeviceStandardReq.c **** 
 213:lufa-lib-svn/LUFA/Drivers/USB/Core/DeviceStandardReq.c **** 	Endpoint_ClearStatusStage();
 214:lufa-lib-svn/LUFA/Drivers/USB/Core/DeviceStandardReq.c **** }
 215:lufa-lib-svn/LUFA/Drivers/USB/Core/DeviceStandardReq.c **** 
 216:lufa-lib-svn/LUFA/Drivers/USB/Core/DeviceStandardReq.c **** #if !defined(NO_INTERNAL_SERIAL) && (USE_INTERNAL_SERIAL != NO_DESCRIPTOR)
 217:lufa-lib-svn/LUFA/Drivers/USB/Core/DeviceStandardReq.c **** static void USB_Device_GetInternalSerialDescriptor(void)
 218:lufa-lib-svn/LUFA/Drivers/USB/Core/DeviceStandardReq.c **** {
 219:lufa-lib-svn/LUFA/Drivers/USB/Core/DeviceStandardReq.c **** 	struct
 220:lufa-lib-svn/LUFA/Drivers/USB/Core/DeviceStandardReq.c **** 	{
 221:lufa-lib-svn/LUFA/Drivers/USB/Core/DeviceStandardReq.c **** 		USB_Descriptor_Header_t Header;
 222:lufa-lib-svn/LUFA/Drivers/USB/Core/DeviceStandardReq.c **** 		uint16_t                UnicodeString[INTERNAL_SERIAL_LENGTH_BITS / 4];
 223:lufa-lib-svn/LUFA/Drivers/USB/Core/DeviceStandardReq.c **** 	} SignatureDescriptor;
 224:lufa-lib-svn/LUFA/Drivers/USB/Core/DeviceStandardReq.c **** 
 225:lufa-lib-svn/LUFA/Drivers/USB/Core/DeviceStandardReq.c **** 	SignatureDescriptor.Header.Type = DTYPE_String;
 226:lufa-lib-svn/LUFA/Drivers/USB/Core/DeviceStandardReq.c **** 	SignatureDescriptor.Header.Size = USB_STRING_LEN(INTERNAL_SERIAL_LENGTH_BITS / 4);
 227:lufa-lib-svn/LUFA/Drivers/USB/Core/DeviceStandardReq.c **** 
 228:lufa-lib-svn/LUFA/Drivers/USB/Core/DeviceStandardReq.c **** 	USB_Device_GetSerialString(SignatureDescriptor.UnicodeString);
 229:lufa-lib-svn/LUFA/Drivers/USB/Core/DeviceStandardReq.c **** 
 230:lufa-lib-svn/LUFA/Drivers/USB/Core/DeviceStandardReq.c **** 	Endpoint_ClearSETUP();
 231:lufa-lib-svn/LUFA/Drivers/USB/Core/DeviceStandardReq.c **** 
 232:lufa-lib-svn/LUFA/Drivers/USB/Core/DeviceStandardReq.c **** 	Endpoint_Write_Control_Stream_LE(&SignatureDescriptor, sizeof(SignatureDescriptor));
 233:lufa-lib-svn/LUFA/Drivers/USB/Core/DeviceStandardReq.c **** 	Endpoint_ClearOUT();
 234:lufa-lib-svn/LUFA/Drivers/USB/Core/DeviceStandardReq.c **** }
 235:lufa-lib-svn/LUFA/Drivers/USB/Core/DeviceStandardReq.c **** #endif
 236:lufa-lib-svn/LUFA/Drivers/USB/Core/DeviceStandardReq.c **** 
 237:lufa-lib-svn/LUFA/Drivers/USB/Core/DeviceStandardReq.c **** static void USB_Device_GetDescriptor(void)
 238:lufa-lib-svn/LUFA/Drivers/USB/Core/DeviceStandardReq.c **** {
 239:lufa-lib-svn/LUFA/Drivers/USB/Core/DeviceStandardReq.c **** 	const void* DescriptorPointer;
 240:lufa-lib-svn/LUFA/Drivers/USB/Core/DeviceStandardReq.c **** 	uint16_t    DescriptorSize;
 241:lufa-lib-svn/LUFA/Drivers/USB/Core/DeviceStandardReq.c **** 
 242:lufa-lib-svn/LUFA/Drivers/USB/Core/DeviceStandardReq.c **** 	#if defined(ARCH_HAS_MULTI_ADDRESS_SPACE) && \
 243:lufa-lib-svn/LUFA/Drivers/USB/Core/DeviceStandardReq.c **** 	    !(defined(USE_FLASH_DESCRIPTORS) || defined(USE_EEPROM_DESCRIPTORS) || defined(USE_RAM_DESCRIP
 244:lufa-lib-svn/LUFA/Drivers/USB/Core/DeviceStandardReq.c **** 	uint8_t DescriptorAddressSpace;
 245:lufa-lib-svn/LUFA/Drivers/USB/Core/DeviceStandardReq.c **** 	#endif
 246:lufa-lib-svn/LUFA/Drivers/USB/Core/DeviceStandardReq.c **** 
 247:lufa-lib-svn/LUFA/Drivers/USB/Core/DeviceStandardReq.c **** 	#if !defined(NO_INTERNAL_SERIAL) && (USE_INTERNAL_SERIAL != NO_DESCRIPTOR)
 248:lufa-lib-svn/LUFA/Drivers/USB/Core/DeviceStandardReq.c **** 	if (USB_ControlRequest.wValue == ((DTYPE_String << 8) | USE_INTERNAL_SERIAL))
 249:lufa-lib-svn/LUFA/Drivers/USB/Core/DeviceStandardReq.c **** 	{
 250:lufa-lib-svn/LUFA/Drivers/USB/Core/DeviceStandardReq.c **** 		USB_Device_GetInternalSerialDescriptor();
 251:lufa-lib-svn/LUFA/Drivers/USB/Core/DeviceStandardReq.c **** 		return;
 252:lufa-lib-svn/LUFA/Drivers/USB/Core/DeviceStandardReq.c **** 	}
 253:lufa-lib-svn/LUFA/Drivers/USB/Core/DeviceStandardReq.c **** 	#endif
 254:lufa-lib-svn/LUFA/Drivers/USB/Core/DeviceStandardReq.c **** 
 255:lufa-lib-svn/LUFA/Drivers/USB/Core/DeviceStandardReq.c **** 	if ((DescriptorSize = CALLBACK_USB_GetDescriptor(USB_ControlRequest.wValue, USB_ControlRequest.wIn
 256:lufa-lib-svn/LUFA/Drivers/USB/Core/DeviceStandardReq.c **** 	                                                 &DescriptorPointer
 257:lufa-lib-svn/LUFA/Drivers/USB/Core/DeviceStandardReq.c **** 	#if defined(ARCH_HAS_MULTI_ADDRESS_SPACE) && \
 258:lufa-lib-svn/LUFA/Drivers/USB/Core/DeviceStandardReq.c **** 	    !(defined(USE_FLASH_DESCRIPTORS) || defined(USE_EEPROM_DESCRIPTORS) || defined(USE_RAM_DESCRIP
 259:lufa-lib-svn/LUFA/Drivers/USB/Core/DeviceStandardReq.c **** 	                                                 , &DescriptorAddressSpace
 260:lufa-lib-svn/LUFA/Drivers/USB/Core/DeviceStandardReq.c **** 	#endif
 261:lufa-lib-svn/LUFA/Drivers/USB/Core/DeviceStandardReq.c **** 													 )) == NO_DESCRIPTOR)
 262:lufa-lib-svn/LUFA/Drivers/USB/Core/DeviceStandardReq.c **** 	{
 263:lufa-lib-svn/LUFA/Drivers/USB/Core/DeviceStandardReq.c **** 		return;
 264:lufa-lib-svn/LUFA/Drivers/USB/Core/DeviceStandardReq.c **** 	}
 265:lufa-lib-svn/LUFA/Drivers/USB/Core/DeviceStandardReq.c **** 
 266:lufa-lib-svn/LUFA/Drivers/USB/Core/DeviceStandardReq.c **** 	Endpoint_ClearSETUP();
 267:lufa-lib-svn/LUFA/Drivers/USB/Core/DeviceStandardReq.c **** 
 268:lufa-lib-svn/LUFA/Drivers/USB/Core/DeviceStandardReq.c **** 	#if defined(USE_RAM_DESCRIPTORS) || !defined(ARCH_HAS_MULTI_ADDRESS_SPACE)
 269:lufa-lib-svn/LUFA/Drivers/USB/Core/DeviceStandardReq.c **** 	Endpoint_Write_Control_Stream_LE(DescriptorPointer, DescriptorSize);
 270:lufa-lib-svn/LUFA/Drivers/USB/Core/DeviceStandardReq.c **** 	#elif defined(USE_EEPROM_DESCRIPTORS)
 271:lufa-lib-svn/LUFA/Drivers/USB/Core/DeviceStandardReq.c **** 	Endpoint_Write_Control_EStream_LE(DescriptorPointer, DescriptorSize);
 272:lufa-lib-svn/LUFA/Drivers/USB/Core/DeviceStandardReq.c **** 	#elif defined(USE_FLASH_DESCRIPTORS)
 273:lufa-lib-svn/LUFA/Drivers/USB/Core/DeviceStandardReq.c **** 	Endpoint_Write_Control_PStream_LE(DescriptorPointer, DescriptorSize);
 274:lufa-lib-svn/LUFA/Drivers/USB/Core/DeviceStandardReq.c **** 	#else
 275:lufa-lib-svn/LUFA/Drivers/USB/Core/DeviceStandardReq.c **** 	if (DescriptorAddressSpace == MEMSPACE_FLASH)
 276:lufa-lib-svn/LUFA/Drivers/USB/Core/DeviceStandardReq.c **** 	  Endpoint_Write_Control_PStream_LE(DescriptorPointer, DescriptorSize);
 277:lufa-lib-svn/LUFA/Drivers/USB/Core/DeviceStandardReq.c **** 	else if (DescriptorAddressSpace == MEMSPACE_EEPROM)
 278:lufa-lib-svn/LUFA/Drivers/USB/Core/DeviceStandardReq.c **** 	  Endpoint_Write_Control_EStream_LE(DescriptorPointer, DescriptorSize);
 279:lufa-lib-svn/LUFA/Drivers/USB/Core/DeviceStandardReq.c **** 	else
 280:lufa-lib-svn/LUFA/Drivers/USB/Core/DeviceStandardReq.c **** 	  Endpoint_Write_Control_Stream_LE(DescriptorPointer, DescriptorSize);
 281:lufa-lib-svn/LUFA/Drivers/USB/Core/DeviceStandardReq.c **** 	#endif
 282:lufa-lib-svn/LUFA/Drivers/USB/Core/DeviceStandardReq.c **** 
 283:lufa-lib-svn/LUFA/Drivers/USB/Core/DeviceStandardReq.c **** 	Endpoint_ClearOUT();
 284:lufa-lib-svn/LUFA/Drivers/USB/Core/DeviceStandardReq.c **** }
 285:lufa-lib-svn/LUFA/Drivers/USB/Core/DeviceStandardReq.c **** 
 286:lufa-lib-svn/LUFA/Drivers/USB/Core/DeviceStandardReq.c **** static void USB_Device_GetStatus(void)
 287:lufa-lib-svn/LUFA/Drivers/USB/Core/DeviceStandardReq.c **** {
 288:lufa-lib-svn/LUFA/Drivers/USB/Core/DeviceStandardReq.c **** 	uint8_t CurrentStatus = 0;
 132               		.loc 1 288 0 is_stmt 1
 133 0078 8091 0000 		lds r24,USB_Device_CurrentlySelfPowered
 134               	.LVL6:
 135               	.LBB184:
 136               	.LBB185:
 289:lufa-lib-svn/LUFA/Drivers/USB/Core/DeviceStandardReq.c **** 
 290:lufa-lib-svn/LUFA/Drivers/USB/Core/DeviceStandardReq.c **** 	switch (USB_ControlRequest.bmRequestType)
 291:lufa-lib-svn/LUFA/Drivers/USB/Core/DeviceStandardReq.c **** 	{
 292:lufa-lib-svn/LUFA/Drivers/USB/Core/DeviceStandardReq.c **** 		#if !defined(NO_DEVICE_SELF_POWER) || !defined(NO_DEVICE_REMOTE_WAKEUP)
 293:lufa-lib-svn/LUFA/Drivers/USB/Core/DeviceStandardReq.c **** 		case (REQDIR_DEVICETOHOST | REQTYPE_STANDARD | REQREC_DEVICE):
 294:lufa-lib-svn/LUFA/Drivers/USB/Core/DeviceStandardReq.c **** 			#if !defined(NO_DEVICE_SELF_POWER)
 295:lufa-lib-svn/LUFA/Drivers/USB/Core/DeviceStandardReq.c **** 			if (USB_Device_CurrentlySelfPowered)
 296:lufa-lib-svn/LUFA/Drivers/USB/Core/DeviceStandardReq.c **** 			  CurrentStatus |= FEATURE_SELFPOWERED_ENABLED;
 297:lufa-lib-svn/LUFA/Drivers/USB/Core/DeviceStandardReq.c **** 			#endif
 298:lufa-lib-svn/LUFA/Drivers/USB/Core/DeviceStandardReq.c **** 
 299:lufa-lib-svn/LUFA/Drivers/USB/Core/DeviceStandardReq.c **** 			#if !defined(NO_DEVICE_REMOTE_WAKEUP)
 300:lufa-lib-svn/LUFA/Drivers/USB/Core/DeviceStandardReq.c **** 			if (USB_Device_RemoteWakeupEnabled)
 137               		.loc 1 300 0
 138 007c 9091 0000 		lds r25,USB_Device_RemoteWakeupEnabled
 139 0080 9923      		tst r25
 140 0082 01F0      		breq .L13
 301:lufa-lib-svn/LUFA/Drivers/USB/Core/DeviceStandardReq.c **** 			  CurrentStatus |= FEATURE_REMOTE_WAKEUP_ENABLED;
 141               		.loc 1 301 0
 142 0084 8260      		ori r24,lo8(2)
 143               	.LVL7:
 144 0086 00C0      		rjmp .L13
 145               	.LVL8:
 146               	.L12:
 147               	.LBE185:
 302:lufa-lib-svn/LUFA/Drivers/USB/Core/DeviceStandardReq.c **** 			#endif
 303:lufa-lib-svn/LUFA/Drivers/USB/Core/DeviceStandardReq.c **** 			break;
 304:lufa-lib-svn/LUFA/Drivers/USB/Core/DeviceStandardReq.c **** 		#endif
 305:lufa-lib-svn/LUFA/Drivers/USB/Core/DeviceStandardReq.c **** 		#if !defined(CONTROL_ONLY_DEVICE)
 306:lufa-lib-svn/LUFA/Drivers/USB/Core/DeviceStandardReq.c **** 		case (REQDIR_DEVICETOHOST | REQTYPE_STANDARD | REQREC_ENDPOINT):
 307:lufa-lib-svn/LUFA/Drivers/USB/Core/DeviceStandardReq.c **** 			Endpoint_SelectEndpoint((uint8_t)USB_ControlRequest.wIndex & ENDPOINT_EPNUM_MASK);
 148               		.loc 1 307 0
 149 0088 8091 0000 		lds r24,USB_ControlRequest+4
 150 008c 9091 0000 		lds r25,USB_ControlRequest+4+1
 151               	.LVL9:
 152 0090 8F70      		andi r24,15
 153 0092 9927      		clr r25
 154               	.LBB196:
 155               	.LBB186:
 156               	.LBB187:
 334:lufa-lib-svn/LUFA/Drivers/USB/Core/AVR8/../AVR8/Endpoint_AVR8.h **** 					UENUM = EndpointNumber;
 157               		.loc 2 334 0
 158 0094 8093 E900 		sts 233,r24
 159               	.LBE187:
 160               	.LBE186:
 161               	.LBB188:
 162               	.LBB189:
 577:lufa-lib-svn/LUFA/Drivers/USB/Core/AVR8/../AVR8/Endpoint_AVR8.h **** 				return ((UECONX & (1 << STALLRQ)) ? true : false);
 163               		.loc 2 577 0
 164 0098 8091 EB00 		lds r24,235
 165 009c 85FB      		bst r24,5
 166 009e 8827      		clr r24
 167 00a0 80F9      		bld r24,0
 168               	.LVL10:
 169               	.LBE189:
 170               	.LBE188:
 171               	.LBB190:
 172               	.LBB191:
 334:lufa-lib-svn/LUFA/Drivers/USB/Core/AVR8/../AVR8/Endpoint_AVR8.h **** 					UENUM = EndpointNumber;
 173               		.loc 2 334 0
 174 00a2 1092 E900 		sts 233,__zero_reg__
 175               	.LVL11:
 176               	.L13:
 177               	.LBE191:
 178               	.LBE190:
 179               	.LBB192:
 180               	.LBB193:
 508:lufa-lib-svn/LUFA/Drivers/USB/Core/AVR8/../AVR8/Endpoint_AVR8.h **** 				UEINTX &= ~(1 << RXSTPI);
 181               		.loc 2 508 0
 182 00a6 9091 E800 		lds r25,232
 183 00aa 977F      		andi r25,lo8(-9)
 184 00ac 9093 E800 		sts 232,r25
 185               	.LVL12:
 186               	.LBE193:
 187               	.LBE192:
 188               	.LBB194:
 189               	.LBB195:
 617:lufa-lib-svn/LUFA/Drivers/USB/Core/AVR8/../AVR8/Endpoint_AVR8.h **** 			}
 618:lufa-lib-svn/LUFA/Drivers/USB/Core/AVR8/../AVR8/Endpoint_AVR8.h **** 
 619:lufa-lib-svn/LUFA/Drivers/USB/Core/AVR8/../AVR8/Endpoint_AVR8.h **** 			/** Writes one byte to the currently selected endpoint's bank, for IN direction endpoints.
 620:lufa-lib-svn/LUFA/Drivers/USB/Core/AVR8/../AVR8/Endpoint_AVR8.h **** 			 *
 621:lufa-lib-svn/LUFA/Drivers/USB/Core/AVR8/../AVR8/Endpoint_AVR8.h **** 			 *  \ingroup Group_EndpointPrimitiveRW_AVR8
 622:lufa-lib-svn/LUFA/Drivers/USB/Core/AVR8/../AVR8/Endpoint_AVR8.h **** 			 *
 623:lufa-lib-svn/LUFA/Drivers/USB/Core/AVR8/../AVR8/Endpoint_AVR8.h **** 			 *  \param[in] Data  Data to write into the the currently selected endpoint's FIFO buffer.
 624:lufa-lib-svn/LUFA/Drivers/USB/Core/AVR8/../AVR8/Endpoint_AVR8.h **** 			 */
 625:lufa-lib-svn/LUFA/Drivers/USB/Core/AVR8/../AVR8/Endpoint_AVR8.h **** 			static inline void Endpoint_Write_8(const uint8_t Data) ATTR_ALWAYS_INLINE;
 626:lufa-lib-svn/LUFA/Drivers/USB/Core/AVR8/../AVR8/Endpoint_AVR8.h **** 			static inline void Endpoint_Write_8(const uint8_t Data)
 627:lufa-lib-svn/LUFA/Drivers/USB/Core/AVR8/../AVR8/Endpoint_AVR8.h **** 			{
 628:lufa-lib-svn/LUFA/Drivers/USB/Core/AVR8/../AVR8/Endpoint_AVR8.h **** 				UEDATX = Data;
 629:lufa-lib-svn/LUFA/Drivers/USB/Core/AVR8/../AVR8/Endpoint_AVR8.h **** 			}
 630:lufa-lib-svn/LUFA/Drivers/USB/Core/AVR8/../AVR8/Endpoint_AVR8.h **** 
 631:lufa-lib-svn/LUFA/Drivers/USB/Core/AVR8/../AVR8/Endpoint_AVR8.h **** 			/** Discards one byte from the currently selected endpoint's bank, for OUT direction endpoints.
 632:lufa-lib-svn/LUFA/Drivers/USB/Core/AVR8/../AVR8/Endpoint_AVR8.h **** 			 *
 633:lufa-lib-svn/LUFA/Drivers/USB/Core/AVR8/../AVR8/Endpoint_AVR8.h **** 			 *  \ingroup Group_EndpointPrimitiveRW_AVR8
 634:lufa-lib-svn/LUFA/Drivers/USB/Core/AVR8/../AVR8/Endpoint_AVR8.h **** 			 */
 635:lufa-lib-svn/LUFA/Drivers/USB/Core/AVR8/../AVR8/Endpoint_AVR8.h **** 			static inline void Endpoint_Discard_8(void) ATTR_ALWAYS_INLINE;
 636:lufa-lib-svn/LUFA/Drivers/USB/Core/AVR8/../AVR8/Endpoint_AVR8.h **** 			static inline void Endpoint_Discard_8(void)
 637:lufa-lib-svn/LUFA/Drivers/USB/Core/AVR8/../AVR8/Endpoint_AVR8.h **** 			{
 638:lufa-lib-svn/LUFA/Drivers/USB/Core/AVR8/../AVR8/Endpoint_AVR8.h **** 				uint8_t Dummy;
 639:lufa-lib-svn/LUFA/Drivers/USB/Core/AVR8/../AVR8/Endpoint_AVR8.h **** 
 640:lufa-lib-svn/LUFA/Drivers/USB/Core/AVR8/../AVR8/Endpoint_AVR8.h **** 				Dummy = UEDATX;
 641:lufa-lib-svn/LUFA/Drivers/USB/Core/AVR8/../AVR8/Endpoint_AVR8.h **** 
 642:lufa-lib-svn/LUFA/Drivers/USB/Core/AVR8/../AVR8/Endpoint_AVR8.h **** 				(void)Dummy;
 643:lufa-lib-svn/LUFA/Drivers/USB/Core/AVR8/../AVR8/Endpoint_AVR8.h **** 			}
 644:lufa-lib-svn/LUFA/Drivers/USB/Core/AVR8/../AVR8/Endpoint_AVR8.h **** 
 645:lufa-lib-svn/LUFA/Drivers/USB/Core/AVR8/../AVR8/Endpoint_AVR8.h **** 			/** Reads two bytes from the currently selected endpoint's bank in little endian format, for OUT
 646:lufa-lib-svn/LUFA/Drivers/USB/Core/AVR8/../AVR8/Endpoint_AVR8.h **** 			 *  direction endpoints.
 647:lufa-lib-svn/LUFA/Drivers/USB/Core/AVR8/../AVR8/Endpoint_AVR8.h **** 			 *
 648:lufa-lib-svn/LUFA/Drivers/USB/Core/AVR8/../AVR8/Endpoint_AVR8.h **** 			 *  \ingroup Group_EndpointPrimitiveRW_AVR8
 649:lufa-lib-svn/LUFA/Drivers/USB/Core/AVR8/../AVR8/Endpoint_AVR8.h **** 			 *
 650:lufa-lib-svn/LUFA/Drivers/USB/Core/AVR8/../AVR8/Endpoint_AVR8.h **** 			 *  \return Next two bytes in the currently selected endpoint's FIFO buffer.
 651:lufa-lib-svn/LUFA/Drivers/USB/Core/AVR8/../AVR8/Endpoint_AVR8.h **** 			 */
 652:lufa-lib-svn/LUFA/Drivers/USB/Core/AVR8/../AVR8/Endpoint_AVR8.h **** 			static inline uint16_t Endpoint_Read_16_LE(void) ATTR_WARN_UNUSED_RESULT ATTR_ALWAYS_INLINE;
 653:lufa-lib-svn/LUFA/Drivers/USB/Core/AVR8/../AVR8/Endpoint_AVR8.h **** 			static inline uint16_t Endpoint_Read_16_LE(void)
 654:lufa-lib-svn/LUFA/Drivers/USB/Core/AVR8/../AVR8/Endpoint_AVR8.h **** 			{
 655:lufa-lib-svn/LUFA/Drivers/USB/Core/AVR8/../AVR8/Endpoint_AVR8.h **** 				union
 656:lufa-lib-svn/LUFA/Drivers/USB/Core/AVR8/../AVR8/Endpoint_AVR8.h **** 				{
 657:lufa-lib-svn/LUFA/Drivers/USB/Core/AVR8/../AVR8/Endpoint_AVR8.h **** 					uint16_t Value;
 658:lufa-lib-svn/LUFA/Drivers/USB/Core/AVR8/../AVR8/Endpoint_AVR8.h **** 					uint8_t  Bytes[2];
 659:lufa-lib-svn/LUFA/Drivers/USB/Core/AVR8/../AVR8/Endpoint_AVR8.h **** 				} Data;
 660:lufa-lib-svn/LUFA/Drivers/USB/Core/AVR8/../AVR8/Endpoint_AVR8.h **** 
 661:lufa-lib-svn/LUFA/Drivers/USB/Core/AVR8/../AVR8/Endpoint_AVR8.h **** 				Data.Bytes[0] = UEDATX;
 662:lufa-lib-svn/LUFA/Drivers/USB/Core/AVR8/../AVR8/Endpoint_AVR8.h **** 				Data.Bytes[1] = UEDATX;
 663:lufa-lib-svn/LUFA/Drivers/USB/Core/AVR8/../AVR8/Endpoint_AVR8.h **** 
 664:lufa-lib-svn/LUFA/Drivers/USB/Core/AVR8/../AVR8/Endpoint_AVR8.h **** 				return Data.Value;
 665:lufa-lib-svn/LUFA/Drivers/USB/Core/AVR8/../AVR8/Endpoint_AVR8.h **** 			}
 666:lufa-lib-svn/LUFA/Drivers/USB/Core/AVR8/../AVR8/Endpoint_AVR8.h **** 
 667:lufa-lib-svn/LUFA/Drivers/USB/Core/AVR8/../AVR8/Endpoint_AVR8.h **** 			/** Reads two bytes from the currently selected endpoint's bank in big endian format, for OUT
 668:lufa-lib-svn/LUFA/Drivers/USB/Core/AVR8/../AVR8/Endpoint_AVR8.h **** 			 *  direction endpoints.
 669:lufa-lib-svn/LUFA/Drivers/USB/Core/AVR8/../AVR8/Endpoint_AVR8.h **** 			 *
 670:lufa-lib-svn/LUFA/Drivers/USB/Core/AVR8/../AVR8/Endpoint_AVR8.h **** 			 *  \ingroup Group_EndpointPrimitiveRW_AVR8
 671:lufa-lib-svn/LUFA/Drivers/USB/Core/AVR8/../AVR8/Endpoint_AVR8.h **** 			 *
 672:lufa-lib-svn/LUFA/Drivers/USB/Core/AVR8/../AVR8/Endpoint_AVR8.h **** 			 *  \return Next two bytes in the currently selected endpoint's FIFO buffer.
 673:lufa-lib-svn/LUFA/Drivers/USB/Core/AVR8/../AVR8/Endpoint_AVR8.h **** 			 */
 674:lufa-lib-svn/LUFA/Drivers/USB/Core/AVR8/../AVR8/Endpoint_AVR8.h **** 			static inline uint16_t Endpoint_Read_16_BE(void) ATTR_WARN_UNUSED_RESULT ATTR_ALWAYS_INLINE;
 675:lufa-lib-svn/LUFA/Drivers/USB/Core/AVR8/../AVR8/Endpoint_AVR8.h **** 			static inline uint16_t Endpoint_Read_16_BE(void)
 676:lufa-lib-svn/LUFA/Drivers/USB/Core/AVR8/../AVR8/Endpoint_AVR8.h **** 			{
 677:lufa-lib-svn/LUFA/Drivers/USB/Core/AVR8/../AVR8/Endpoint_AVR8.h **** 				union
 678:lufa-lib-svn/LUFA/Drivers/USB/Core/AVR8/../AVR8/Endpoint_AVR8.h **** 				{
 679:lufa-lib-svn/LUFA/Drivers/USB/Core/AVR8/../AVR8/Endpoint_AVR8.h **** 					uint16_t Value;
 680:lufa-lib-svn/LUFA/Drivers/USB/Core/AVR8/../AVR8/Endpoint_AVR8.h **** 					uint8_t  Bytes[2];
 681:lufa-lib-svn/LUFA/Drivers/USB/Core/AVR8/../AVR8/Endpoint_AVR8.h **** 				} Data;
 682:lufa-lib-svn/LUFA/Drivers/USB/Core/AVR8/../AVR8/Endpoint_AVR8.h **** 
 683:lufa-lib-svn/LUFA/Drivers/USB/Core/AVR8/../AVR8/Endpoint_AVR8.h **** 				Data.Bytes[1] = UEDATX;
 684:lufa-lib-svn/LUFA/Drivers/USB/Core/AVR8/../AVR8/Endpoint_AVR8.h **** 				Data.Bytes[0] = UEDATX;
 685:lufa-lib-svn/LUFA/Drivers/USB/Core/AVR8/../AVR8/Endpoint_AVR8.h **** 
 686:lufa-lib-svn/LUFA/Drivers/USB/Core/AVR8/../AVR8/Endpoint_AVR8.h **** 				return Data.Value;
 687:lufa-lib-svn/LUFA/Drivers/USB/Core/AVR8/../AVR8/Endpoint_AVR8.h **** 			}
 688:lufa-lib-svn/LUFA/Drivers/USB/Core/AVR8/../AVR8/Endpoint_AVR8.h **** 
 689:lufa-lib-svn/LUFA/Drivers/USB/Core/AVR8/../AVR8/Endpoint_AVR8.h **** 			/** Writes two bytes to the currently selected endpoint's bank in little endian format, for IN
 690:lufa-lib-svn/LUFA/Drivers/USB/Core/AVR8/../AVR8/Endpoint_AVR8.h **** 			 *  direction endpoints.
 691:lufa-lib-svn/LUFA/Drivers/USB/Core/AVR8/../AVR8/Endpoint_AVR8.h **** 			 *
 692:lufa-lib-svn/LUFA/Drivers/USB/Core/AVR8/../AVR8/Endpoint_AVR8.h **** 			 *  \ingroup Group_EndpointPrimitiveRW_AVR8
 693:lufa-lib-svn/LUFA/Drivers/USB/Core/AVR8/../AVR8/Endpoint_AVR8.h **** 			 *
 694:lufa-lib-svn/LUFA/Drivers/USB/Core/AVR8/../AVR8/Endpoint_AVR8.h **** 			 *  \param[in] Data  Data to write to the currently selected endpoint's FIFO buffer.
 695:lufa-lib-svn/LUFA/Drivers/USB/Core/AVR8/../AVR8/Endpoint_AVR8.h **** 			 */
 696:lufa-lib-svn/LUFA/Drivers/USB/Core/AVR8/../AVR8/Endpoint_AVR8.h **** 			static inline void Endpoint_Write_16_LE(const uint16_t Data) ATTR_ALWAYS_INLINE;
 697:lufa-lib-svn/LUFA/Drivers/USB/Core/AVR8/../AVR8/Endpoint_AVR8.h **** 			static inline void Endpoint_Write_16_LE(const uint16_t Data)
 698:lufa-lib-svn/LUFA/Drivers/USB/Core/AVR8/../AVR8/Endpoint_AVR8.h **** 			{
 699:lufa-lib-svn/LUFA/Drivers/USB/Core/AVR8/../AVR8/Endpoint_AVR8.h **** 				UEDATX = (Data & 0xFF);
 190               		.loc 2 699 0
 191 00b0 8093 F100 		sts 241,r24
 700:lufa-lib-svn/LUFA/Drivers/USB/Core/AVR8/../AVR8/Endpoint_AVR8.h **** 				UEDATX = (Data >> 8);
 192               		.loc 2 700 0
 193 00b4 1092 F100 		sts 241,__zero_reg__
 194 00b8 00C0      		rjmp .L78
 195               	.LVL13:
 196               	.L5:
 197               	.LBE195:
 198               	.LBE194:
 199               	.LBE196:
 200               	.LBE184:
  82:lufa-lib-svn/LUFA/Drivers/USB/Core/DeviceStandardReq.c **** 				if ((bmRequestType == (REQDIR_HOSTTODEVICE | REQTYPE_STANDARD | REQREC_DEVICE)) ||
 201               		.loc 1 82 0
 202 00ba 8823      		tst r24
 203 00bc 01F0      		breq .L14
  82:lufa-lib-svn/LUFA/Drivers/USB/Core/DeviceStandardReq.c **** 				if ((bmRequestType == (REQDIR_HOSTTODEVICE | REQTYPE_STANDARD | REQREC_DEVICE)) ||
 204               		.loc 1 82 0 is_stmt 0 discriminator 1
 205 00be 8230      		cpi r24,lo8(2)
 206 00c0 01F0      		breq .+2
 207 00c2 00C0      		rjmp .L3
 208               	.L14:
 209               	.LBB197:
 308:lufa-lib-svn/LUFA/Drivers/USB/Core/DeviceStandardReq.c **** 
 309:lufa-lib-svn/LUFA/Drivers/USB/Core/DeviceStandardReq.c **** 			CurrentStatus = Endpoint_IsStalled();
 310:lufa-lib-svn/LUFA/Drivers/USB/Core/DeviceStandardReq.c **** 
 311:lufa-lib-svn/LUFA/Drivers/USB/Core/DeviceStandardReq.c **** 			Endpoint_SelectEndpoint(ENDPOINT_CONTROLEP);
 312:lufa-lib-svn/LUFA/Drivers/USB/Core/DeviceStandardReq.c **** 
 313:lufa-lib-svn/LUFA/Drivers/USB/Core/DeviceStandardReq.c **** 			break;
 314:lufa-lib-svn/LUFA/Drivers/USB/Core/DeviceStandardReq.c **** 		#endif
 315:lufa-lib-svn/LUFA/Drivers/USB/Core/DeviceStandardReq.c **** 		default:
 316:lufa-lib-svn/LUFA/Drivers/USB/Core/DeviceStandardReq.c **** 			return;
 317:lufa-lib-svn/LUFA/Drivers/USB/Core/DeviceStandardReq.c **** 	}
 318:lufa-lib-svn/LUFA/Drivers/USB/Core/DeviceStandardReq.c **** 
 319:lufa-lib-svn/LUFA/Drivers/USB/Core/DeviceStandardReq.c **** 	Endpoint_ClearSETUP();
 320:lufa-lib-svn/LUFA/Drivers/USB/Core/DeviceStandardReq.c **** 
 321:lufa-lib-svn/LUFA/Drivers/USB/Core/DeviceStandardReq.c **** 	Endpoint_Write_16_LE(CurrentStatus);
 322:lufa-lib-svn/LUFA/Drivers/USB/Core/DeviceStandardReq.c **** 	Endpoint_ClearIN();
 323:lufa-lib-svn/LUFA/Drivers/USB/Core/DeviceStandardReq.c **** 
 324:lufa-lib-svn/LUFA/Drivers/USB/Core/DeviceStandardReq.c **** 	Endpoint_ClearStatusStage();
 325:lufa-lib-svn/LUFA/Drivers/USB/Core/DeviceStandardReq.c **** }
 326:lufa-lib-svn/LUFA/Drivers/USB/Core/DeviceStandardReq.c **** 
 327:lufa-lib-svn/LUFA/Drivers/USB/Core/DeviceStandardReq.c **** static void USB_Device_ClearSetFeature(void)
 328:lufa-lib-svn/LUFA/Drivers/USB/Core/DeviceStandardReq.c **** {
 329:lufa-lib-svn/LUFA/Drivers/USB/Core/DeviceStandardReq.c **** 	switch (USB_ControlRequest.bmRequestType & CONTROL_REQTYPE_RECIPIENT)
 210               		.loc 1 329 0 is_stmt 1
 211 00c4 8F71      		andi r24,lo8(31)
 212               	.LVL14:
 213               	.LBB198:
 214 00c6 01F0      		breq .L15
 215 00c8 8230      		cpi r24,lo8(2)
 216 00ca 01F0      		breq .+2
 217 00cc 00C0      		rjmp .L3
 218 00ce 00C0      		rjmp .L16
 219               	.L15:
 330:lufa-lib-svn/LUFA/Drivers/USB/Core/DeviceStandardReq.c **** 	{
 331:lufa-lib-svn/LUFA/Drivers/USB/Core/DeviceStandardReq.c **** 		#if !defined(NO_DEVICE_REMOTE_WAKEUP)
 332:lufa-lib-svn/LUFA/Drivers/USB/Core/DeviceStandardReq.c **** 		case REQREC_DEVICE:
 333:lufa-lib-svn/LUFA/Drivers/USB/Core/DeviceStandardReq.c **** 			if ((uint8_t)USB_ControlRequest.wValue == FEATURE_SEL_DeviceRemoteWakeup)
 220               		.loc 1 333 0
 221 00d0 8091 0000 		lds r24,USB_ControlRequest+2
 222 00d4 8130      		cpi r24,lo8(1)
 223 00d6 01F0      		breq .+2
 224 00d8 00C0      		rjmp .L3
 334:lufa-lib-svn/LUFA/Drivers/USB/Core/DeviceStandardReq.c **** 			  USB_Device_RemoteWakeupEnabled = (USB_ControlRequest.bRequest == REQ_SetFeature);
 225               		.loc 1 334 0
 226 00da 9330      		cpi r25,lo8(3)
 227 00dc 01F0      		breq .L17
 228 00de 80E0      		ldi r24,0
 229               	.L17:
 230 00e0 8093 0000 		sts USB_Device_RemoteWakeupEnabled,r24
 231 00e4 00C0      		rjmp .L18
 232               	.L16:
 335:lufa-lib-svn/LUFA/Drivers/USB/Core/DeviceStandardReq.c **** 			else
 336:lufa-lib-svn/LUFA/Drivers/USB/Core/DeviceStandardReq.c **** 			  return;
 337:lufa-lib-svn/LUFA/Drivers/USB/Core/DeviceStandardReq.c **** 
 338:lufa-lib-svn/LUFA/Drivers/USB/Core/DeviceStandardReq.c **** 			break;
 339:lufa-lib-svn/LUFA/Drivers/USB/Core/DeviceStandardReq.c **** 		#endif
 340:lufa-lib-svn/LUFA/Drivers/USB/Core/DeviceStandardReq.c **** 		#if !defined(CONTROL_ONLY_DEVICE)
 341:lufa-lib-svn/LUFA/Drivers/USB/Core/DeviceStandardReq.c **** 		case REQREC_ENDPOINT:
 342:lufa-lib-svn/LUFA/Drivers/USB/Core/DeviceStandardReq.c **** 			if ((uint8_t)USB_ControlRequest.wValue == FEATURE_SEL_EndpointHalt)
 233               		.loc 1 342 0
 234 00e6 8091 0000 		lds r24,USB_ControlRequest+2
 235 00ea 8111      		cpse r24,__zero_reg__
 236 00ec 00C0      		rjmp .L18
 237               	.LBE198:
 343:lufa-lib-svn/LUFA/Drivers/USB/Core/DeviceStandardReq.c **** 			{
 344:lufa-lib-svn/LUFA/Drivers/USB/Core/DeviceStandardReq.c **** 				uint8_t EndpointIndex = ((uint8_t)USB_ControlRequest.wIndex & ENDPOINT_EPNUM_MASK);
 238               		.loc 1 344 0
 239 00ee 8091 0000 		lds r24,USB_ControlRequest+4
 240 00f2 9091 0000 		lds r25,USB_ControlRequest+4+1
 241 00f6 8F70      		andi r24,15
 242 00f8 9927      		clr r25
 243               	.LVL15:
 244               	.LBB216:
 245               	.LBB199:
 345:lufa-lib-svn/LUFA/Drivers/USB/Core/DeviceStandardReq.c **** 
 346:lufa-lib-svn/LUFA/Drivers/USB/Core/DeviceStandardReq.c **** 				if (EndpointIndex == ENDPOINT_CONTROLEP)
 246               		.loc 1 346 0
 247 00fa 0097      		sbiw r24,0
 248 00fc 01F4      		brne .+2
 249 00fe 00C0      		rjmp .L3
 250               	.LBB200:
 251               	.LBB201:
 334:lufa-lib-svn/LUFA/Drivers/USB/Core/AVR8/../AVR8/Endpoint_AVR8.h **** 					UENUM = EndpointNumber;
 252               		.loc 2 334 0
 253 0100 8093 E900 		sts 233,r24
 254               	.LBE201:
 255               	.LBE200:
 256               	.LBB202:
 257               	.LBB203:
 377:lufa-lib-svn/LUFA/Drivers/USB/Core/AVR8/../AVR8/Endpoint_AVR8.h **** 				return ((UECONX & (1 << EPEN)) ? true : false);
 258               		.loc 2 377 0
 259 0104 2091 EB00 		lds r18,235
 260               	.LBE203:
 261               	.LBE202:
 347:lufa-lib-svn/LUFA/Drivers/USB/Core/DeviceStandardReq.c **** 				  return;
 348:lufa-lib-svn/LUFA/Drivers/USB/Core/DeviceStandardReq.c **** 
 349:lufa-lib-svn/LUFA/Drivers/USB/Core/DeviceStandardReq.c **** 				Endpoint_SelectEndpoint(EndpointIndex);
 350:lufa-lib-svn/LUFA/Drivers/USB/Core/DeviceStandardReq.c **** 
 351:lufa-lib-svn/LUFA/Drivers/USB/Core/DeviceStandardReq.c **** 				if (Endpoint_IsEnabled())
 262               		.loc 1 351 0
 263 0108 20FF      		sbrs r18,0
 264 010a 00C0      		rjmp .L18
 352:lufa-lib-svn/LUFA/Drivers/USB/Core/DeviceStandardReq.c **** 				{
 353:lufa-lib-svn/LUFA/Drivers/USB/Core/DeviceStandardReq.c **** 					if (USB_ControlRequest.bRequest == REQ_SetFeature)
 265               		.loc 1 353 0
 266 010c 2091 0000 		lds r18,USB_ControlRequest+1
 267 0110 2330      		cpi r18,lo8(3)
 268 0112 01F4      		brne .L21
 269               	.LBB204:
 270               	.LBB205:
 555:lufa-lib-svn/LUFA/Drivers/USB/Core/AVR8/../AVR8/Endpoint_AVR8.h **** 				UECONX |= (1 << STALLRQ);
 271               		.loc 2 555 0
 272 0114 8091 EB00 		lds r24,235
 273               	.LVL16:
 274 0118 8062      		ori r24,lo8(32)
 275 011a 00C0      		rjmp .L75
 276               	.LVL17:
 277               	.L21:
 278               	.LBE205:
 279               	.LBE204:
 280               	.LBB206:
 281               	.LBB207:
 565:lufa-lib-svn/LUFA/Drivers/USB/Core/AVR8/../AVR8/Endpoint_AVR8.h **** 				UECONX |= (1 << STALLRQC);
 282               		.loc 2 565 0
 283 011c 9091 EB00 		lds r25,235
 284 0120 9061      		ori r25,lo8(16)
 285 0122 9093 EB00 		sts 235,r25
 286               	.LBE207:
 287               	.LBE206:
 288               	.LBB208:
 289               	.LBB209:
 346:lufa-lib-svn/LUFA/Drivers/USB/Core/AVR8/../AVR8/Endpoint_AVR8.h **** 				UERST = (1 << EndpointNumber);
 290               		.loc 2 346 0
 291 0126 21E0      		ldi r18,lo8(1)
 292 0128 30E0      		ldi r19,0
 293 012a 00C0      		rjmp 2f
 294               		1:
 295 012c 220F      		lsl r18
 296               		2:
 297 012e 8A95      		dec r24
 298 0130 02F4      		brpl 1b
 299 0132 2093 EA00 		sts 234,r18
 347:lufa-lib-svn/LUFA/Drivers/USB/Core/AVR8/../AVR8/Endpoint_AVR8.h **** 				UERST = 0;
 300               		.loc 2 347 0
 301 0136 1092 EA00 		sts 234,__zero_reg__
 302               	.LBE209:
 303               	.LBE208:
 304               	.LBB210:
 305               	.LBB211:
 584:lufa-lib-svn/LUFA/Drivers/USB/Core/AVR8/../AVR8/Endpoint_AVR8.h **** 				UECONX |= (1 << RSTDT);
 306               		.loc 2 584 0
 307 013a 8091 EB00 		lds r24,235
 308               	.LVL18:
 309 013e 8860      		ori r24,lo8(8)
 310               	.L75:
 311 0140 8093 EB00 		sts 235,r24
 312               	.LVL19:
 313               	.L18:
 314               	.LBE211:
 315               	.LBE210:
 316               	.LBE199:
 317               	.LBB212:
 318               	.LBB213:
 334:lufa-lib-svn/LUFA/Drivers/USB/Core/AVR8/../AVR8/Endpoint_AVR8.h **** 					UENUM = EndpointNumber;
 319               		.loc 2 334 0
 320 0144 1092 E900 		sts 233,__zero_reg__
 321               	.LBE213:
 322               	.LBE212:
 323               	.LBB214:
 324               	.LBB215:
 508:lufa-lib-svn/LUFA/Drivers/USB/Core/AVR8/../AVR8/Endpoint_AVR8.h **** 				UEINTX &= ~(1 << RXSTPI);
 325               		.loc 2 508 0
 326 0148 8091 E800 		lds r24,232
 327 014c 877F      		andi r24,lo8(-9)
 328               	.LVL20:
 329               	.L76:
 330 014e 8093 E800 		sts 232,r24
 331               	.LBE215:
 332               	.LBE214:
 354:lufa-lib-svn/LUFA/Drivers/USB/Core/DeviceStandardReq.c **** 					{
 355:lufa-lib-svn/LUFA/Drivers/USB/Core/DeviceStandardReq.c **** 						Endpoint_StallTransaction();
 356:lufa-lib-svn/LUFA/Drivers/USB/Core/DeviceStandardReq.c **** 					}
 357:lufa-lib-svn/LUFA/Drivers/USB/Core/DeviceStandardReq.c **** 					else
 358:lufa-lib-svn/LUFA/Drivers/USB/Core/DeviceStandardReq.c **** 					{
 359:lufa-lib-svn/LUFA/Drivers/USB/Core/DeviceStandardReq.c **** 						Endpoint_ClearStall();
 360:lufa-lib-svn/LUFA/Drivers/USB/Core/DeviceStandardReq.c **** 						Endpoint_ResetEndpoint(EndpointIndex);
 361:lufa-lib-svn/LUFA/Drivers/USB/Core/DeviceStandardReq.c **** 						Endpoint_ResetDataToggle();
 362:lufa-lib-svn/LUFA/Drivers/USB/Core/DeviceStandardReq.c **** 					}
 363:lufa-lib-svn/LUFA/Drivers/USB/Core/DeviceStandardReq.c **** 				}
 364:lufa-lib-svn/LUFA/Drivers/USB/Core/DeviceStandardReq.c **** 			}
 365:lufa-lib-svn/LUFA/Drivers/USB/Core/DeviceStandardReq.c **** 
 366:lufa-lib-svn/LUFA/Drivers/USB/Core/DeviceStandardReq.c **** 			break;
 367:lufa-lib-svn/LUFA/Drivers/USB/Core/DeviceStandardReq.c **** 		#endif
 368:lufa-lib-svn/LUFA/Drivers/USB/Core/DeviceStandardReq.c **** 		default:
 369:lufa-lib-svn/LUFA/Drivers/USB/Core/DeviceStandardReq.c **** 			return;
 370:lufa-lib-svn/LUFA/Drivers/USB/Core/DeviceStandardReq.c **** 	}
 371:lufa-lib-svn/LUFA/Drivers/USB/Core/DeviceStandardReq.c **** 
 372:lufa-lib-svn/LUFA/Drivers/USB/Core/DeviceStandardReq.c **** 	Endpoint_SelectEndpoint(ENDPOINT_CONTROLEP);
 373:lufa-lib-svn/LUFA/Drivers/USB/Core/DeviceStandardReq.c **** 
 374:lufa-lib-svn/LUFA/Drivers/USB/Core/DeviceStandardReq.c **** 	Endpoint_ClearSETUP();
 375:lufa-lib-svn/LUFA/Drivers/USB/Core/DeviceStandardReq.c **** 
 376:lufa-lib-svn/LUFA/Drivers/USB/Core/DeviceStandardReq.c **** 	Endpoint_ClearStatusStage();
 333               		.loc 1 376 0
 334 0152 0E94 0000 		call Endpoint_ClearStatusStage
 335               	.LVL21:
 336 0156 00C0      		rjmp .L3
 337               	.LVL22:
 338               	.L6:
 339               	.LBE216:
 340               	.LBE197:
  90:lufa-lib-svn/LUFA/Drivers/USB/Core/DeviceStandardReq.c **** 				if (bmRequestType == (REQDIR_HOSTTODEVICE | REQTYPE_STANDARD | REQREC_DEVICE))
 341               		.loc 1 90 0
 342 0158 8111      		cpse r24,__zero_reg__
 343 015a 00C0      		rjmp .L3
 344               	.LBB217:
 124:lufa-lib-svn/LUFA/Drivers/USB/Core/DeviceStandardReq.c **** 	uint8_t    DeviceAddress    = (USB_ControlRequest.wValue & 0x7F);
 345               		.loc 1 124 0
 346 015c 0091 0000 		lds r16,USB_ControlRequest+2
 347 0160 1091 0000 		lds r17,USB_ControlRequest+2+1
 348 0164 0F77      		andi r16,127
 349 0166 1127      		clr r17
 350               	.LBB218:
 351 0168 E02E      		mov r14,r16
 352               	.LVL23:
 353               	.LBB219:
 354               	.LBB220:
 355               		.file 3 "lufa-lib-svn/LUFA/Drivers/USB/Core/../../../Common/Common.h"
   1:lufa-lib-svn/LUFA/Drivers/USB/Core/../../../Common/Common.h **** /*
   2:lufa-lib-svn/LUFA/Drivers/USB/Core/../../../Common/Common.h ****              LUFA Library
   3:lufa-lib-svn/LUFA/Drivers/USB/Core/../../../Common/Common.h ****      Copyright (C) Dean Camera, 2011.
   4:lufa-lib-svn/LUFA/Drivers/USB/Core/../../../Common/Common.h **** 
   5:lufa-lib-svn/LUFA/Drivers/USB/Core/../../../Common/Common.h ****   dean [at] fourwalledcubicle [dot] com
   6:lufa-lib-svn/LUFA/Drivers/USB/Core/../../../Common/Common.h ****            www.lufa-lib.org
   7:lufa-lib-svn/LUFA/Drivers/USB/Core/../../../Common/Common.h **** */
   8:lufa-lib-svn/LUFA/Drivers/USB/Core/../../../Common/Common.h **** 
   9:lufa-lib-svn/LUFA/Drivers/USB/Core/../../../Common/Common.h **** /*
  10:lufa-lib-svn/LUFA/Drivers/USB/Core/../../../Common/Common.h ****   Copyright 2011  Dean Camera (dean [at] fourwalledcubicle [dot] com)
  11:lufa-lib-svn/LUFA/Drivers/USB/Core/../../../Common/Common.h **** 
  12:lufa-lib-svn/LUFA/Drivers/USB/Core/../../../Common/Common.h ****   Permission to use, copy, modify, distribute, and sell this
  13:lufa-lib-svn/LUFA/Drivers/USB/Core/../../../Common/Common.h ****   software and its documentation for any purpose is hereby granted
  14:lufa-lib-svn/LUFA/Drivers/USB/Core/../../../Common/Common.h ****   without fee, provided that the above copyright notice appear in
  15:lufa-lib-svn/LUFA/Drivers/USB/Core/../../../Common/Common.h ****   all copies and that both that the copyright notice and this
  16:lufa-lib-svn/LUFA/Drivers/USB/Core/../../../Common/Common.h ****   permission notice and warranty disclaimer appear in supporting
  17:lufa-lib-svn/LUFA/Drivers/USB/Core/../../../Common/Common.h ****   documentation, and that the name of the author not be used in
  18:lufa-lib-svn/LUFA/Drivers/USB/Core/../../../Common/Common.h ****   advertising or publicity pertaining to distribution of the
  19:lufa-lib-svn/LUFA/Drivers/USB/Core/../../../Common/Common.h ****   software without specific, written prior permission.
  20:lufa-lib-svn/LUFA/Drivers/USB/Core/../../../Common/Common.h **** 
  21:lufa-lib-svn/LUFA/Drivers/USB/Core/../../../Common/Common.h ****   The author disclaim all warranties with regard to this
  22:lufa-lib-svn/LUFA/Drivers/USB/Core/../../../Common/Common.h ****   software, including all implied warranties of merchantability
  23:lufa-lib-svn/LUFA/Drivers/USB/Core/../../../Common/Common.h ****   and fitness.  In no event shall the author be liable for any
  24:lufa-lib-svn/LUFA/Drivers/USB/Core/../../../Common/Common.h ****   special, indirect or consequential damages or any damages
  25:lufa-lib-svn/LUFA/Drivers/USB/Core/../../../Common/Common.h ****   whatsoever resulting from loss of use, data or profits, whether
  26:lufa-lib-svn/LUFA/Drivers/USB/Core/../../../Common/Common.h ****   in an action of contract, negligence or other tortious action,
  27:lufa-lib-svn/LUFA/Drivers/USB/Core/../../../Common/Common.h ****   arising out of or in connection with the use or performance of
  28:lufa-lib-svn/LUFA/Drivers/USB/Core/../../../Common/Common.h ****   this software.
  29:lufa-lib-svn/LUFA/Drivers/USB/Core/../../../Common/Common.h **** */
  30:lufa-lib-svn/LUFA/Drivers/USB/Core/../../../Common/Common.h **** 
  31:lufa-lib-svn/LUFA/Drivers/USB/Core/../../../Common/Common.h **** /** \file
  32:lufa-lib-svn/LUFA/Drivers/USB/Core/../../../Common/Common.h ****  *  \brief Common library convenience headers, macros and functions.
  33:lufa-lib-svn/LUFA/Drivers/USB/Core/../../../Common/Common.h ****  *
  34:lufa-lib-svn/LUFA/Drivers/USB/Core/../../../Common/Common.h ****  *  \copydetails Group_Common
  35:lufa-lib-svn/LUFA/Drivers/USB/Core/../../../Common/Common.h ****  */
  36:lufa-lib-svn/LUFA/Drivers/USB/Core/../../../Common/Common.h **** 
  37:lufa-lib-svn/LUFA/Drivers/USB/Core/../../../Common/Common.h **** /** \defgroup Group_Common Common Utility Headers - LUFA/Drivers/Common/Common.h
  38:lufa-lib-svn/LUFA/Drivers/USB/Core/../../../Common/Common.h ****  *  \brief Common library convenience headers, macros and functions.
  39:lufa-lib-svn/LUFA/Drivers/USB/Core/../../../Common/Common.h ****  *
  40:lufa-lib-svn/LUFA/Drivers/USB/Core/../../../Common/Common.h ****  *  Common utility headers containing macros, functions, enums and types which are common to all
  41:lufa-lib-svn/LUFA/Drivers/USB/Core/../../../Common/Common.h ****  *  aspects of the library.
  42:lufa-lib-svn/LUFA/Drivers/USB/Core/../../../Common/Common.h ****  *
  43:lufa-lib-svn/LUFA/Drivers/USB/Core/../../../Common/Common.h ****  *  @{
  44:lufa-lib-svn/LUFA/Drivers/USB/Core/../../../Common/Common.h ****  */
  45:lufa-lib-svn/LUFA/Drivers/USB/Core/../../../Common/Common.h **** 
  46:lufa-lib-svn/LUFA/Drivers/USB/Core/../../../Common/Common.h **** /** \defgroup Group_GlobalInt Global Interrupt Macros
  47:lufa-lib-svn/LUFA/Drivers/USB/Core/../../../Common/Common.h ****  *  \brief Convenience macros for the management of interrupts globally within the device.
  48:lufa-lib-svn/LUFA/Drivers/USB/Core/../../../Common/Common.h ****  *
  49:lufa-lib-svn/LUFA/Drivers/USB/Core/../../../Common/Common.h ****  *  Macros and functions to create and control global interrupts within the device.
  50:lufa-lib-svn/LUFA/Drivers/USB/Core/../../../Common/Common.h ****  */
  51:lufa-lib-svn/LUFA/Drivers/USB/Core/../../../Common/Common.h **** 
  52:lufa-lib-svn/LUFA/Drivers/USB/Core/../../../Common/Common.h **** #ifndef __LUFA_COMMON_H__
  53:lufa-lib-svn/LUFA/Drivers/USB/Core/../../../Common/Common.h **** #define __LUFA_COMMON_H__
  54:lufa-lib-svn/LUFA/Drivers/USB/Core/../../../Common/Common.h **** 
  55:lufa-lib-svn/LUFA/Drivers/USB/Core/../../../Common/Common.h **** 	/* Macros: */
  56:lufa-lib-svn/LUFA/Drivers/USB/Core/../../../Common/Common.h **** 		#define __INCLUDE_FROM_COMMON_H
  57:lufa-lib-svn/LUFA/Drivers/USB/Core/../../../Common/Common.h **** 
  58:lufa-lib-svn/LUFA/Drivers/USB/Core/../../../Common/Common.h **** 	/* Includes: */
  59:lufa-lib-svn/LUFA/Drivers/USB/Core/../../../Common/Common.h **** 		#include <stdint.h>
  60:lufa-lib-svn/LUFA/Drivers/USB/Core/../../../Common/Common.h **** 		#include <stdbool.h>
  61:lufa-lib-svn/LUFA/Drivers/USB/Core/../../../Common/Common.h **** 		#include <string.h>
  62:lufa-lib-svn/LUFA/Drivers/USB/Core/../../../Common/Common.h **** 		#include <stddef.h>
  63:lufa-lib-svn/LUFA/Drivers/USB/Core/../../../Common/Common.h **** 
  64:lufa-lib-svn/LUFA/Drivers/USB/Core/../../../Common/Common.h **** 		#if defined(USE_LUFA_CONFIG_HEADER)
  65:lufa-lib-svn/LUFA/Drivers/USB/Core/../../../Common/Common.h **** 			#include "LUFAConfig.h"
  66:lufa-lib-svn/LUFA/Drivers/USB/Core/../../../Common/Common.h **** 		#endif
  67:lufa-lib-svn/LUFA/Drivers/USB/Core/../../../Common/Common.h **** 
  68:lufa-lib-svn/LUFA/Drivers/USB/Core/../../../Common/Common.h **** 		#include "Architectures.h"
  69:lufa-lib-svn/LUFA/Drivers/USB/Core/../../../Common/Common.h **** 		#include "BoardTypes.h"
  70:lufa-lib-svn/LUFA/Drivers/USB/Core/../../../Common/Common.h **** 		#include "ArchitectureSpecific.h"
  71:lufa-lib-svn/LUFA/Drivers/USB/Core/../../../Common/Common.h **** 		#include "CompilerSpecific.h"
  72:lufa-lib-svn/LUFA/Drivers/USB/Core/../../../Common/Common.h **** 		#include "Attributes.h"
  73:lufa-lib-svn/LUFA/Drivers/USB/Core/../../../Common/Common.h **** 
  74:lufa-lib-svn/LUFA/Drivers/USB/Core/../../../Common/Common.h **** 	/* Enable C linkage for C++ Compilers: */
  75:lufa-lib-svn/LUFA/Drivers/USB/Core/../../../Common/Common.h **** 		#if defined(__cplusplus)
  76:lufa-lib-svn/LUFA/Drivers/USB/Core/../../../Common/Common.h **** 			extern "C" {
  77:lufa-lib-svn/LUFA/Drivers/USB/Core/../../../Common/Common.h **** 		#endif
  78:lufa-lib-svn/LUFA/Drivers/USB/Core/../../../Common/Common.h **** 
  79:lufa-lib-svn/LUFA/Drivers/USB/Core/../../../Common/Common.h **** 	/* Architecture specific utility includes: */
  80:lufa-lib-svn/LUFA/Drivers/USB/Core/../../../Common/Common.h **** 		#if defined(__DOXYGEN__)
  81:lufa-lib-svn/LUFA/Drivers/USB/Core/../../../Common/Common.h **** 			/** Type define for an unsigned integer the same width as the selected architecture's machine re
  82:lufa-lib-svn/LUFA/Drivers/USB/Core/../../../Common/Common.h **** 			 *  This is distinct from the non-specific standard int data type, whose width is machine depend
  83:lufa-lib-svn/LUFA/Drivers/USB/Core/../../../Common/Common.h **** 			 *  which may not reflect the actual machine register width on some targets (e.g. AVR8).
  84:lufa-lib-svn/LUFA/Drivers/USB/Core/../../../Common/Common.h **** 			 */
  85:lufa-lib-svn/LUFA/Drivers/USB/Core/../../../Common/Common.h **** 			typedef MACHINE_REG_t uint_reg_t;
  86:lufa-lib-svn/LUFA/Drivers/USB/Core/../../../Common/Common.h **** 		#elif (ARCH == ARCH_AVR8)
  87:lufa-lib-svn/LUFA/Drivers/USB/Core/../../../Common/Common.h **** 			#include <avr/io.h>
  88:lufa-lib-svn/LUFA/Drivers/USB/Core/../../../Common/Common.h **** 			#include <avr/interrupt.h>
  89:lufa-lib-svn/LUFA/Drivers/USB/Core/../../../Common/Common.h **** 			#include <avr/pgmspace.h>
  90:lufa-lib-svn/LUFA/Drivers/USB/Core/../../../Common/Common.h **** 			#include <avr/eeprom.h>
  91:lufa-lib-svn/LUFA/Drivers/USB/Core/../../../Common/Common.h **** 			#include <avr/boot.h>
  92:lufa-lib-svn/LUFA/Drivers/USB/Core/../../../Common/Common.h **** 			#include <util/delay.h>
  93:lufa-lib-svn/LUFA/Drivers/USB/Core/../../../Common/Common.h **** 
  94:lufa-lib-svn/LUFA/Drivers/USB/Core/../../../Common/Common.h **** 			typedef uint8_t uint_reg_t;
  95:lufa-lib-svn/LUFA/Drivers/USB/Core/../../../Common/Common.h **** 
  96:lufa-lib-svn/LUFA/Drivers/USB/Core/../../../Common/Common.h **** 			#define ARCH_HAS_EEPROM_ADDRESS_SPACE
  97:lufa-lib-svn/LUFA/Drivers/USB/Core/../../../Common/Common.h **** 			#define ARCH_HAS_FLASH_ADDRESS_SPACE
  98:lufa-lib-svn/LUFA/Drivers/USB/Core/../../../Common/Common.h **** 			#define ARCH_HAS_MULTI_ADDRESS_SPACE
  99:lufa-lib-svn/LUFA/Drivers/USB/Core/../../../Common/Common.h **** 			#define ARCH_LITTLE_ENDIAN
 100:lufa-lib-svn/LUFA/Drivers/USB/Core/../../../Common/Common.h **** 
 101:lufa-lib-svn/LUFA/Drivers/USB/Core/../../../Common/Common.h **** 			#include "Endianness.h"
 102:lufa-lib-svn/LUFA/Drivers/USB/Core/../../../Common/Common.h **** 		#elif (ARCH == ARCH_UC3)
 103:lufa-lib-svn/LUFA/Drivers/USB/Core/../../../Common/Common.h **** 			#include <avr32/io.h>
 104:lufa-lib-svn/LUFA/Drivers/USB/Core/../../../Common/Common.h **** 
 105:lufa-lib-svn/LUFA/Drivers/USB/Core/../../../Common/Common.h **** 			// === TODO: Find abstracted way to handle these ===
 106:lufa-lib-svn/LUFA/Drivers/USB/Core/../../../Common/Common.h **** 			#define PROGMEM                  const
 107:lufa-lib-svn/LUFA/Drivers/USB/Core/../../../Common/Common.h **** 			#define pgm_read_byte(x)         *x
 108:lufa-lib-svn/LUFA/Drivers/USB/Core/../../../Common/Common.h **** 			#define memcmp_P(...)            memcmp(__VA_ARGS__)
 109:lufa-lib-svn/LUFA/Drivers/USB/Core/../../../Common/Common.h **** 			#define memcpy_P(...)            memcpy(__VA_ARGS__)
 110:lufa-lib-svn/LUFA/Drivers/USB/Core/../../../Common/Common.h **** 			// =================================================
 111:lufa-lib-svn/LUFA/Drivers/USB/Core/../../../Common/Common.h **** 
 112:lufa-lib-svn/LUFA/Drivers/USB/Core/../../../Common/Common.h **** 			typedef uint32_t uint_reg_t;
 113:lufa-lib-svn/LUFA/Drivers/USB/Core/../../../Common/Common.h **** 
 114:lufa-lib-svn/LUFA/Drivers/USB/Core/../../../Common/Common.h **** 			#define ARCH_BIG_ENDIAN
 115:lufa-lib-svn/LUFA/Drivers/USB/Core/../../../Common/Common.h **** 
 116:lufa-lib-svn/LUFA/Drivers/USB/Core/../../../Common/Common.h **** 			#include "Endianness.h"
 117:lufa-lib-svn/LUFA/Drivers/USB/Core/../../../Common/Common.h **** 		#elif (ARCH == ARCH_XMEGA)
 118:lufa-lib-svn/LUFA/Drivers/USB/Core/../../../Common/Common.h **** 			#include <avr/io.h>
 119:lufa-lib-svn/LUFA/Drivers/USB/Core/../../../Common/Common.h **** 			#include <avr/interrupt.h>
 120:lufa-lib-svn/LUFA/Drivers/USB/Core/../../../Common/Common.h **** 			#include <avr/pgmspace.h>
 121:lufa-lib-svn/LUFA/Drivers/USB/Core/../../../Common/Common.h **** 			#include <avr/eeprom.h>
 122:lufa-lib-svn/LUFA/Drivers/USB/Core/../../../Common/Common.h **** 			#include <util/delay.h>
 123:lufa-lib-svn/LUFA/Drivers/USB/Core/../../../Common/Common.h **** 
 124:lufa-lib-svn/LUFA/Drivers/USB/Core/../../../Common/Common.h **** 			typedef uint8_t uint_reg_t;
 125:lufa-lib-svn/LUFA/Drivers/USB/Core/../../../Common/Common.h **** 
 126:lufa-lib-svn/LUFA/Drivers/USB/Core/../../../Common/Common.h **** 			#define ARCH_HAS_EEPROM_ADDRESS_SPACE
 127:lufa-lib-svn/LUFA/Drivers/USB/Core/../../../Common/Common.h **** 			#define ARCH_HAS_FLASH_ADDRESS_SPACE
 128:lufa-lib-svn/LUFA/Drivers/USB/Core/../../../Common/Common.h **** 			#define ARCH_HAS_MULTI_ADDRESS_SPACE
 129:lufa-lib-svn/LUFA/Drivers/USB/Core/../../../Common/Common.h **** 			#define ARCH_LITTLE_ENDIAN
 130:lufa-lib-svn/LUFA/Drivers/USB/Core/../../../Common/Common.h **** 
 131:lufa-lib-svn/LUFA/Drivers/USB/Core/../../../Common/Common.h **** 			#include "Endianness.h"
 132:lufa-lib-svn/LUFA/Drivers/USB/Core/../../../Common/Common.h **** 		#else
 133:lufa-lib-svn/LUFA/Drivers/USB/Core/../../../Common/Common.h **** 			#error Unknown device architecture specified.
 134:lufa-lib-svn/LUFA/Drivers/USB/Core/../../../Common/Common.h **** 		#endif
 135:lufa-lib-svn/LUFA/Drivers/USB/Core/../../../Common/Common.h **** 
 136:lufa-lib-svn/LUFA/Drivers/USB/Core/../../../Common/Common.h **** 	/* Public Interface - May be used in end-application: */
 137:lufa-lib-svn/LUFA/Drivers/USB/Core/../../../Common/Common.h **** 		/* Macros: */
 138:lufa-lib-svn/LUFA/Drivers/USB/Core/../../../Common/Common.h **** 			/** Macro for encasing other multi-statement macros. This should be used along with an opening b
 139:lufa-lib-svn/LUFA/Drivers/USB/Core/../../../Common/Common.h **** 			 *  before the start of any multi-statement macro, so that the macros contents as a whole are tr
 140:lufa-lib-svn/LUFA/Drivers/USB/Core/../../../Common/Common.h **** 			 *  as a discrete block and not as a list of separate statements which may cause problems when u
 141:lufa-lib-svn/LUFA/Drivers/USB/Core/../../../Common/Common.h **** 			 *  a block (such as inline \c if statements).
 142:lufa-lib-svn/LUFA/Drivers/USB/Core/../../../Common/Common.h **** 			 */
 143:lufa-lib-svn/LUFA/Drivers/USB/Core/../../../Common/Common.h **** 			#define MACROS                  do
 144:lufa-lib-svn/LUFA/Drivers/USB/Core/../../../Common/Common.h **** 
 145:lufa-lib-svn/LUFA/Drivers/USB/Core/../../../Common/Common.h **** 			/** Macro for encasing other multi-statement macros. This should be used along with a preceding 
 146:lufa-lib-svn/LUFA/Drivers/USB/Core/../../../Common/Common.h **** 			 *  brace at the end of any multi-statement macro, so that the macros contents as a whole are tr
 147:lufa-lib-svn/LUFA/Drivers/USB/Core/../../../Common/Common.h **** 			 *  as a discrete block and not as a list of separate statements which may cause problems when u
 148:lufa-lib-svn/LUFA/Drivers/USB/Core/../../../Common/Common.h **** 			 *  a block (such as inline \c if statements).
 149:lufa-lib-svn/LUFA/Drivers/USB/Core/../../../Common/Common.h **** 			 */
 150:lufa-lib-svn/LUFA/Drivers/USB/Core/../../../Common/Common.h **** 			#define MACROE                  while (0)
 151:lufa-lib-svn/LUFA/Drivers/USB/Core/../../../Common/Common.h **** 
 152:lufa-lib-svn/LUFA/Drivers/USB/Core/../../../Common/Common.h **** 			/** Convenience macro to determine the larger of two values.
 153:lufa-lib-svn/LUFA/Drivers/USB/Core/../../../Common/Common.h **** 			 *
 154:lufa-lib-svn/LUFA/Drivers/USB/Core/../../../Common/Common.h **** 			 *  \note This macro should only be used with operands that do not have side effects from being 
 155:lufa-lib-svn/LUFA/Drivers/USB/Core/../../../Common/Common.h **** 			 *        multiple times.
 156:lufa-lib-svn/LUFA/Drivers/USB/Core/../../../Common/Common.h **** 			 *
 157:lufa-lib-svn/LUFA/Drivers/USB/Core/../../../Common/Common.h **** 			 *  \param[in] x  First value to compare
 158:lufa-lib-svn/LUFA/Drivers/USB/Core/../../../Common/Common.h **** 			 *  \param[in] y  First value to compare
 159:lufa-lib-svn/LUFA/Drivers/USB/Core/../../../Common/Common.h **** 			 *
 160:lufa-lib-svn/LUFA/Drivers/USB/Core/../../../Common/Common.h **** 			 *  \return The larger of the two input parameters
 161:lufa-lib-svn/LUFA/Drivers/USB/Core/../../../Common/Common.h **** 			 */
 162:lufa-lib-svn/LUFA/Drivers/USB/Core/../../../Common/Common.h **** 			#if !defined(MAX) || defined(__DOXYGEN__)
 163:lufa-lib-svn/LUFA/Drivers/USB/Core/../../../Common/Common.h **** 				#define MAX(x, y)               (((x) > (y)) ? (x) : (y))
 164:lufa-lib-svn/LUFA/Drivers/USB/Core/../../../Common/Common.h **** 			#endif
 165:lufa-lib-svn/LUFA/Drivers/USB/Core/../../../Common/Common.h **** 
 166:lufa-lib-svn/LUFA/Drivers/USB/Core/../../../Common/Common.h **** 			/** Convenience macro to determine the smaller of two values.
 167:lufa-lib-svn/LUFA/Drivers/USB/Core/../../../Common/Common.h **** 			 *
 168:lufa-lib-svn/LUFA/Drivers/USB/Core/../../../Common/Common.h **** 			 *  \note This macro should only be used with operands that do not have side effects from being 
 169:lufa-lib-svn/LUFA/Drivers/USB/Core/../../../Common/Common.h **** 			 *        multiple times.
 170:lufa-lib-svn/LUFA/Drivers/USB/Core/../../../Common/Common.h **** 			 *
 171:lufa-lib-svn/LUFA/Drivers/USB/Core/../../../Common/Common.h **** 			 *  \param[in] x  First value to compare
 172:lufa-lib-svn/LUFA/Drivers/USB/Core/../../../Common/Common.h **** 			 *  \param[in] y  First value to compare
 173:lufa-lib-svn/LUFA/Drivers/USB/Core/../../../Common/Common.h **** 			 *
 174:lufa-lib-svn/LUFA/Drivers/USB/Core/../../../Common/Common.h **** 			 *  \return The smaller of the two input parameters
 175:lufa-lib-svn/LUFA/Drivers/USB/Core/../../../Common/Common.h **** 			 */
 176:lufa-lib-svn/LUFA/Drivers/USB/Core/../../../Common/Common.h **** 			#if !defined(MIN) || defined(__DOXYGEN__)
 177:lufa-lib-svn/LUFA/Drivers/USB/Core/../../../Common/Common.h **** 				#define MIN(x, y)               (((x) < (y)) ? (x) : (y))
 178:lufa-lib-svn/LUFA/Drivers/USB/Core/../../../Common/Common.h **** 			#endif
 179:lufa-lib-svn/LUFA/Drivers/USB/Core/../../../Common/Common.h **** 
 180:lufa-lib-svn/LUFA/Drivers/USB/Core/../../../Common/Common.h **** 			#if !defined(STRINGIFY) || defined(__DOXYGEN__)
 181:lufa-lib-svn/LUFA/Drivers/USB/Core/../../../Common/Common.h **** 				/** Converts the given input into a string, via the C Preprocessor. This macro puts literal quo
 182:lufa-lib-svn/LUFA/Drivers/USB/Core/../../../Common/Common.h **** 				 *  marks around the input, converting the source into a string literal.
 183:lufa-lib-svn/LUFA/Drivers/USB/Core/../../../Common/Common.h **** 				 *
 184:lufa-lib-svn/LUFA/Drivers/USB/Core/../../../Common/Common.h **** 				 *  \param[in] x  Input to convert into a string literal.
 185:lufa-lib-svn/LUFA/Drivers/USB/Core/../../../Common/Common.h **** 				 *
 186:lufa-lib-svn/LUFA/Drivers/USB/Core/../../../Common/Common.h **** 				 *  \return String version of the input.
 187:lufa-lib-svn/LUFA/Drivers/USB/Core/../../../Common/Common.h **** 				 */
 188:lufa-lib-svn/LUFA/Drivers/USB/Core/../../../Common/Common.h **** 				#define STRINGIFY(x)            #x
 189:lufa-lib-svn/LUFA/Drivers/USB/Core/../../../Common/Common.h **** 
 190:lufa-lib-svn/LUFA/Drivers/USB/Core/../../../Common/Common.h **** 				/** Converts the given input into a string after macro expansion, via the C Preprocessor. This 
 191:lufa-lib-svn/LUFA/Drivers/USB/Core/../../../Common/Common.h **** 				 *  literal quotation marks around the expanded input, converting the source into a string lite
 192:lufa-lib-svn/LUFA/Drivers/USB/Core/../../../Common/Common.h **** 				 *
 193:lufa-lib-svn/LUFA/Drivers/USB/Core/../../../Common/Common.h **** 				 *  \param[in] x  Input to expand and convert into a string literal.
 194:lufa-lib-svn/LUFA/Drivers/USB/Core/../../../Common/Common.h **** 				 *
 195:lufa-lib-svn/LUFA/Drivers/USB/Core/../../../Common/Common.h **** 				 *  \return String version of the expanded input.
 196:lufa-lib-svn/LUFA/Drivers/USB/Core/../../../Common/Common.h **** 				 */
 197:lufa-lib-svn/LUFA/Drivers/USB/Core/../../../Common/Common.h **** 				#define STRINGIFY_EXPANDED(x)   STRINGIFY(x)
 198:lufa-lib-svn/LUFA/Drivers/USB/Core/../../../Common/Common.h **** 			#endif
 199:lufa-lib-svn/LUFA/Drivers/USB/Core/../../../Common/Common.h **** 
 200:lufa-lib-svn/LUFA/Drivers/USB/Core/../../../Common/Common.h **** 			#if !defined(ISR) || defined(__DOXYGEN__)
 201:lufa-lib-svn/LUFA/Drivers/USB/Core/../../../Common/Common.h **** 				/** Macro for the definition of interrupt service routines, so that the compiler can insert the
 202:lufa-lib-svn/LUFA/Drivers/USB/Core/../../../Common/Common.h **** 				 *  prologue and epilogue code to properly manage the interrupt routine without affecting the m
 203:lufa-lib-svn/LUFA/Drivers/USB/Core/../../../Common/Common.h **** 				 *  state with unintentional side-effects.
 204:lufa-lib-svn/LUFA/Drivers/USB/Core/../../../Common/Common.h **** 				 *
 205:lufa-lib-svn/LUFA/Drivers/USB/Core/../../../Common/Common.h **** 				 *  Interrupt handlers written using this macro may still need to be registered with the microc
 206:lufa-lib-svn/LUFA/Drivers/USB/Core/../../../Common/Common.h **** 				 *  Interrupt Controller (if present) before they will properly handle incoming interrupt event
 207:lufa-lib-svn/LUFA/Drivers/USB/Core/../../../Common/Common.h **** 				 *
 208:lufa-lib-svn/LUFA/Drivers/USB/Core/../../../Common/Common.h **** 				 *  \note This macro is only supplied on some architectures, where the standard library does no
 209:lufa-lib-svn/LUFA/Drivers/USB/Core/../../../Common/Common.h **** 				 *        definition. If an existing definition exists, the alternative definition here will be
 210:lufa-lib-svn/LUFA/Drivers/USB/Core/../../../Common/Common.h **** 				 *
 211:lufa-lib-svn/LUFA/Drivers/USB/Core/../../../Common/Common.h **** 				 *  \ingroup Group_GlobalInt
 212:lufa-lib-svn/LUFA/Drivers/USB/Core/../../../Common/Common.h **** 				 *
 213:lufa-lib-svn/LUFA/Drivers/USB/Core/../../../Common/Common.h **** 				 *  \param Name  Unique name of the interrupt service routine.
 214:lufa-lib-svn/LUFA/Drivers/USB/Core/../../../Common/Common.h **** 				 */
 215:lufa-lib-svn/LUFA/Drivers/USB/Core/../../../Common/Common.h **** 				#define ISR(Name, ...)                  void Name (void) __attribute__((__interrupt__)) __VA_AR
 216:lufa-lib-svn/LUFA/Drivers/USB/Core/../../../Common/Common.h **** 			#endif
 217:lufa-lib-svn/LUFA/Drivers/USB/Core/../../../Common/Common.h **** 
 218:lufa-lib-svn/LUFA/Drivers/USB/Core/../../../Common/Common.h **** 		/* Inline Functions: */
 219:lufa-lib-svn/LUFA/Drivers/USB/Core/../../../Common/Common.h **** 			/** Function to reverse the individual bits in a byte - i.e. bit 7 is moved to bit 0, bit 6 to b
 220:lufa-lib-svn/LUFA/Drivers/USB/Core/../../../Common/Common.h **** 			 *  etc.
 221:lufa-lib-svn/LUFA/Drivers/USB/Core/../../../Common/Common.h **** 			 *
 222:lufa-lib-svn/LUFA/Drivers/USB/Core/../../../Common/Common.h **** 			 *  \param[in] Byte  Byte of data whose bits are to be reversed.
 223:lufa-lib-svn/LUFA/Drivers/USB/Core/../../../Common/Common.h **** 			 *
 224:lufa-lib-svn/LUFA/Drivers/USB/Core/../../../Common/Common.h **** 			 *  \return Input data with the individual bits reversed (mirrored).
 225:lufa-lib-svn/LUFA/Drivers/USB/Core/../../../Common/Common.h **** 			 */
 226:lufa-lib-svn/LUFA/Drivers/USB/Core/../../../Common/Common.h **** 			static inline uint8_t BitReverse(uint8_t Byte) ATTR_WARN_UNUSED_RESULT ATTR_CONST;
 227:lufa-lib-svn/LUFA/Drivers/USB/Core/../../../Common/Common.h **** 			static inline uint8_t BitReverse(uint8_t Byte)
 228:lufa-lib-svn/LUFA/Drivers/USB/Core/../../../Common/Common.h **** 			{
 229:lufa-lib-svn/LUFA/Drivers/USB/Core/../../../Common/Common.h **** 				Byte = (((Byte & 0xF0) >> 4) | ((Byte & 0x0F) << 4));
 230:lufa-lib-svn/LUFA/Drivers/USB/Core/../../../Common/Common.h **** 				Byte = (((Byte & 0xCC) >> 2) | ((Byte & 0x33) << 2));
 231:lufa-lib-svn/LUFA/Drivers/USB/Core/../../../Common/Common.h **** 				Byte = (((Byte & 0xAA) >> 1) | ((Byte & 0x55) << 1));
 232:lufa-lib-svn/LUFA/Drivers/USB/Core/../../../Common/Common.h **** 
 233:lufa-lib-svn/LUFA/Drivers/USB/Core/../../../Common/Common.h **** 				return Byte;
 234:lufa-lib-svn/LUFA/Drivers/USB/Core/../../../Common/Common.h **** 			}
 235:lufa-lib-svn/LUFA/Drivers/USB/Core/../../../Common/Common.h **** 
 236:lufa-lib-svn/LUFA/Drivers/USB/Core/../../../Common/Common.h **** 			/** Function to perform a blocking delay for a specified number of milliseconds. The actual dela
 237:lufa-lib-svn/LUFA/Drivers/USB/Core/../../../Common/Common.h **** 			 *  at a minimum the specified number of milliseconds, however due to loop overhead and internal
 238:lufa-lib-svn/LUFA/Drivers/USB/Core/../../../Common/Common.h **** 			 *  may be slightly higher.
 239:lufa-lib-svn/LUFA/Drivers/USB/Core/../../../Common/Common.h **** 			 *
 240:lufa-lib-svn/LUFA/Drivers/USB/Core/../../../Common/Common.h **** 			 *  \param[in] Milliseconds  Number of milliseconds to delay
 241:lufa-lib-svn/LUFA/Drivers/USB/Core/../../../Common/Common.h **** 			 */
 242:lufa-lib-svn/LUFA/Drivers/USB/Core/../../../Common/Common.h **** 			static inline void Delay_MS(uint16_t Milliseconds) ATTR_ALWAYS_INLINE;
 243:lufa-lib-svn/LUFA/Drivers/USB/Core/../../../Common/Common.h **** 			static inline void Delay_MS(uint16_t Milliseconds)
 244:lufa-lib-svn/LUFA/Drivers/USB/Core/../../../Common/Common.h **** 			{
 245:lufa-lib-svn/LUFA/Drivers/USB/Core/../../../Common/Common.h **** 				#if (ARCH == ARCH_AVR8)
 246:lufa-lib-svn/LUFA/Drivers/USB/Core/../../../Common/Common.h **** 				if (GCC_IS_COMPILE_CONST(Milliseconds))
 247:lufa-lib-svn/LUFA/Drivers/USB/Core/../../../Common/Common.h **** 				{
 248:lufa-lib-svn/LUFA/Drivers/USB/Core/../../../Common/Common.h **** 					_delay_ms(Milliseconds);
 249:lufa-lib-svn/LUFA/Drivers/USB/Core/../../../Common/Common.h **** 				}
 250:lufa-lib-svn/LUFA/Drivers/USB/Core/../../../Common/Common.h **** 				else
 251:lufa-lib-svn/LUFA/Drivers/USB/Core/../../../Common/Common.h **** 				{
 252:lufa-lib-svn/LUFA/Drivers/USB/Core/../../../Common/Common.h **** 					while (Milliseconds--)
 253:lufa-lib-svn/LUFA/Drivers/USB/Core/../../../Common/Common.h **** 					  _delay_ms(1);
 254:lufa-lib-svn/LUFA/Drivers/USB/Core/../../../Common/Common.h **** 				}
 255:lufa-lib-svn/LUFA/Drivers/USB/Core/../../../Common/Common.h **** 				#elif (ARCH == ARCH_UC3)
 256:lufa-lib-svn/LUFA/Drivers/USB/Core/../../../Common/Common.h **** 				while (Milliseconds--)
 257:lufa-lib-svn/LUFA/Drivers/USB/Core/../../../Common/Common.h **** 				{
 258:lufa-lib-svn/LUFA/Drivers/USB/Core/../../../Common/Common.h **** 					__builtin_mtsr(AVR32_COUNT, 0);
 259:lufa-lib-svn/LUFA/Drivers/USB/Core/../../../Common/Common.h **** 					while (__builtin_mfsr(AVR32_COUNT) < (F_CPU / 1000));
 260:lufa-lib-svn/LUFA/Drivers/USB/Core/../../../Common/Common.h **** 				}
 261:lufa-lib-svn/LUFA/Drivers/USB/Core/../../../Common/Common.h **** 				#elif (ARCH == ARCH_XMEGA)
 262:lufa-lib-svn/LUFA/Drivers/USB/Core/../../../Common/Common.h **** 				if (GCC_IS_COMPILE_CONST(Milliseconds))
 263:lufa-lib-svn/LUFA/Drivers/USB/Core/../../../Common/Common.h **** 				{
 264:lufa-lib-svn/LUFA/Drivers/USB/Core/../../../Common/Common.h **** 					_delay_ms(Milliseconds);
 265:lufa-lib-svn/LUFA/Drivers/USB/Core/../../../Common/Common.h **** 				}
 266:lufa-lib-svn/LUFA/Drivers/USB/Core/../../../Common/Common.h **** 				else
 267:lufa-lib-svn/LUFA/Drivers/USB/Core/../../../Common/Common.h **** 				{
 268:lufa-lib-svn/LUFA/Drivers/USB/Core/../../../Common/Common.h **** 					while (Milliseconds--)
 269:lufa-lib-svn/LUFA/Drivers/USB/Core/../../../Common/Common.h **** 					  _delay_ms(1);
 270:lufa-lib-svn/LUFA/Drivers/USB/Core/../../../Common/Common.h **** 				}
 271:lufa-lib-svn/LUFA/Drivers/USB/Core/../../../Common/Common.h **** 				#endif
 272:lufa-lib-svn/LUFA/Drivers/USB/Core/../../../Common/Common.h **** 			}
 273:lufa-lib-svn/LUFA/Drivers/USB/Core/../../../Common/Common.h **** 
 274:lufa-lib-svn/LUFA/Drivers/USB/Core/../../../Common/Common.h **** 			/** Retrieves a mask which contains the current state of the global interrupts for the device. T
 275:lufa-lib-svn/LUFA/Drivers/USB/Core/../../../Common/Common.h **** 			 *  value can be stored before altering the global interrupt enable state, before restoring the
 276:lufa-lib-svn/LUFA/Drivers/USB/Core/../../../Common/Common.h **** 			 *  flag(s) back to their previous values after a critical section using \ref SetGlobalInterrupt
 277:lufa-lib-svn/LUFA/Drivers/USB/Core/../../../Common/Common.h **** 			 *
 278:lufa-lib-svn/LUFA/Drivers/USB/Core/../../../Common/Common.h **** 			 *  \ingroup Group_GlobalInt
 279:lufa-lib-svn/LUFA/Drivers/USB/Core/../../../Common/Common.h **** 			 *
 280:lufa-lib-svn/LUFA/Drivers/USB/Core/../../../Common/Common.h **** 			 *  \return  Mask containing the current Global Interrupt Enable Mask bit(s).
 281:lufa-lib-svn/LUFA/Drivers/USB/Core/../../../Common/Common.h **** 			 */
 282:lufa-lib-svn/LUFA/Drivers/USB/Core/../../../Common/Common.h **** 			static inline uint_reg_t GetGlobalInterruptMask(void) ATTR_ALWAYS_INLINE ATTR_WARN_UNUSED_RESULT
 283:lufa-lib-svn/LUFA/Drivers/USB/Core/../../../Common/Common.h **** 			static inline uint_reg_t GetGlobalInterruptMask(void)
 284:lufa-lib-svn/LUFA/Drivers/USB/Core/../../../Common/Common.h **** 			{
 285:lufa-lib-svn/LUFA/Drivers/USB/Core/../../../Common/Common.h **** 				GCC_MEMORY_BARRIER();
 356               		.loc 3 285 0
 286:lufa-lib-svn/LUFA/Drivers/USB/Core/../../../Common/Common.h **** 
 287:lufa-lib-svn/LUFA/Drivers/USB/Core/../../../Common/Common.h **** 				#if (ARCH == ARCH_AVR8)
 288:lufa-lib-svn/LUFA/Drivers/USB/Core/../../../Common/Common.h **** 				return SREG;
 357               		.loc 3 288 0
 358 016a FFB6      		in r15,__SREG__
 359               	.LBE220:
 360               	.LBE219:
 361               	.LBB221:
 362               	.LBB222:
 289:lufa-lib-svn/LUFA/Drivers/USB/Core/../../../Common/Common.h **** 				#elif (ARCH == ARCH_UC3)
 290:lufa-lib-svn/LUFA/Drivers/USB/Core/../../../Common/Common.h **** 				return __builtin_mfsr(AVR32_SR);
 291:lufa-lib-svn/LUFA/Drivers/USB/Core/../../../Common/Common.h **** 				#elif (ARCH == ARCH_XMEGA)
 292:lufa-lib-svn/LUFA/Drivers/USB/Core/../../../Common/Common.h **** 				return SREG;
 293:lufa-lib-svn/LUFA/Drivers/USB/Core/../../../Common/Common.h **** 				#endif
 294:lufa-lib-svn/LUFA/Drivers/USB/Core/../../../Common/Common.h **** 
 295:lufa-lib-svn/LUFA/Drivers/USB/Core/../../../Common/Common.h **** 				GCC_MEMORY_BARRIER();
 296:lufa-lib-svn/LUFA/Drivers/USB/Core/../../../Common/Common.h **** 			}
 297:lufa-lib-svn/LUFA/Drivers/USB/Core/../../../Common/Common.h **** 
 298:lufa-lib-svn/LUFA/Drivers/USB/Core/../../../Common/Common.h **** 			/** Sets the global interrupt enable state of the microcontroller to the mask passed into the fu
 299:lufa-lib-svn/LUFA/Drivers/USB/Core/../../../Common/Common.h **** 			 *  This can be combined with \ref GetGlobalInterruptMask() to save and restore the Global Inter
 300:lufa-lib-svn/LUFA/Drivers/USB/Core/../../../Common/Common.h **** 			 *  Mask bit(s) of the device after a critical section has completed.
 301:lufa-lib-svn/LUFA/Drivers/USB/Core/../../../Common/Common.h **** 			 *
 302:lufa-lib-svn/LUFA/Drivers/USB/Core/../../../Common/Common.h **** 			 *  \ingroup Group_GlobalInt
 303:lufa-lib-svn/LUFA/Drivers/USB/Core/../../../Common/Common.h **** 			 *
 304:lufa-lib-svn/LUFA/Drivers/USB/Core/../../../Common/Common.h **** 			 *  \param[in] GlobalIntState  Global Interrupt Enable Mask value to use
 305:lufa-lib-svn/LUFA/Drivers/USB/Core/../../../Common/Common.h **** 			 */
 306:lufa-lib-svn/LUFA/Drivers/USB/Core/../../../Common/Common.h **** 			static inline void SetGlobalInterruptMask(const uint_reg_t GlobalIntState) ATTR_ALWAYS_INLINE;
 307:lufa-lib-svn/LUFA/Drivers/USB/Core/../../../Common/Common.h **** 			static inline void SetGlobalInterruptMask(const uint_reg_t GlobalIntState)
 308:lufa-lib-svn/LUFA/Drivers/USB/Core/../../../Common/Common.h **** 			{
 309:lufa-lib-svn/LUFA/Drivers/USB/Core/../../../Common/Common.h **** 				GCC_MEMORY_BARRIER();
 310:lufa-lib-svn/LUFA/Drivers/USB/Core/../../../Common/Common.h **** 
 311:lufa-lib-svn/LUFA/Drivers/USB/Core/../../../Common/Common.h **** 				#if (ARCH == ARCH_AVR8)
 312:lufa-lib-svn/LUFA/Drivers/USB/Core/../../../Common/Common.h **** 				SREG = GlobalIntState;
 313:lufa-lib-svn/LUFA/Drivers/USB/Core/../../../Common/Common.h **** 				#elif (ARCH == ARCH_UC3)
 314:lufa-lib-svn/LUFA/Drivers/USB/Core/../../../Common/Common.h **** 				if (GlobalIntState & AVR32_SR_GM)
 315:lufa-lib-svn/LUFA/Drivers/USB/Core/../../../Common/Common.h **** 				  __builtin_ssrf(AVR32_SR_GM_OFFSET);
 316:lufa-lib-svn/LUFA/Drivers/USB/Core/../../../Common/Common.h **** 				else
 317:lufa-lib-svn/LUFA/Drivers/USB/Core/../../../Common/Common.h **** 				  __builtin_csrf(AVR32_SR_GM_OFFSET);
 318:lufa-lib-svn/LUFA/Drivers/USB/Core/../../../Common/Common.h **** 				#elif (ARCH == ARCH_XMEGA)
 319:lufa-lib-svn/LUFA/Drivers/USB/Core/../../../Common/Common.h **** 				SREG = GlobalIntState;
 320:lufa-lib-svn/LUFA/Drivers/USB/Core/../../../Common/Common.h **** 				#endif
 321:lufa-lib-svn/LUFA/Drivers/USB/Core/../../../Common/Common.h **** 
 322:lufa-lib-svn/LUFA/Drivers/USB/Core/../../../Common/Common.h **** 				GCC_MEMORY_BARRIER();
 323:lufa-lib-svn/LUFA/Drivers/USB/Core/../../../Common/Common.h **** 			}
 324:lufa-lib-svn/LUFA/Drivers/USB/Core/../../../Common/Common.h **** 
 325:lufa-lib-svn/LUFA/Drivers/USB/Core/../../../Common/Common.h **** 			/** Enables global interrupt handling for the device, allowing interrupts to be handled.
 326:lufa-lib-svn/LUFA/Drivers/USB/Core/../../../Common/Common.h **** 			 *
 327:lufa-lib-svn/LUFA/Drivers/USB/Core/../../../Common/Common.h **** 			 *  \ingroup Group_GlobalInt
 328:lufa-lib-svn/LUFA/Drivers/USB/Core/../../../Common/Common.h **** 			 */
 329:lufa-lib-svn/LUFA/Drivers/USB/Core/../../../Common/Common.h **** 			static inline void GlobalInterruptEnable(void) ATTR_ALWAYS_INLINE;
 330:lufa-lib-svn/LUFA/Drivers/USB/Core/../../../Common/Common.h **** 			static inline void GlobalInterruptEnable(void)
 331:lufa-lib-svn/LUFA/Drivers/USB/Core/../../../Common/Common.h **** 			{
 332:lufa-lib-svn/LUFA/Drivers/USB/Core/../../../Common/Common.h **** 				GCC_MEMORY_BARRIER();
 333:lufa-lib-svn/LUFA/Drivers/USB/Core/../../../Common/Common.h **** 
 334:lufa-lib-svn/LUFA/Drivers/USB/Core/../../../Common/Common.h **** 				#if (ARCH == ARCH_AVR8)
 335:lufa-lib-svn/LUFA/Drivers/USB/Core/../../../Common/Common.h **** 				sei();
 336:lufa-lib-svn/LUFA/Drivers/USB/Core/../../../Common/Common.h **** 				#elif (ARCH == ARCH_UC3)
 337:lufa-lib-svn/LUFA/Drivers/USB/Core/../../../Common/Common.h **** 				__builtin_csrf(AVR32_SR_GM_OFFSET);
 338:lufa-lib-svn/LUFA/Drivers/USB/Core/../../../Common/Common.h **** 				#elif (ARCH == ARCH_XMEGA)
 339:lufa-lib-svn/LUFA/Drivers/USB/Core/../../../Common/Common.h **** 				sei();
 340:lufa-lib-svn/LUFA/Drivers/USB/Core/../../../Common/Common.h **** 				#endif
 341:lufa-lib-svn/LUFA/Drivers/USB/Core/../../../Common/Common.h **** 
 342:lufa-lib-svn/LUFA/Drivers/USB/Core/../../../Common/Common.h **** 				GCC_MEMORY_BARRIER();
 343:lufa-lib-svn/LUFA/Drivers/USB/Core/../../../Common/Common.h **** 			}
 344:lufa-lib-svn/LUFA/Drivers/USB/Core/../../../Common/Common.h **** 
 345:lufa-lib-svn/LUFA/Drivers/USB/Core/../../../Common/Common.h **** 			/** Disabled global interrupt handling for the device, preventing interrupts from being handled.
 346:lufa-lib-svn/LUFA/Drivers/USB/Core/../../../Common/Common.h **** 			 *
 347:lufa-lib-svn/LUFA/Drivers/USB/Core/../../../Common/Common.h **** 			 *  \ingroup Group_GlobalInt
 348:lufa-lib-svn/LUFA/Drivers/USB/Core/../../../Common/Common.h **** 			 */
 349:lufa-lib-svn/LUFA/Drivers/USB/Core/../../../Common/Common.h **** 			static inline void GlobalInterruptDisable(void) ATTR_ALWAYS_INLINE;
 350:lufa-lib-svn/LUFA/Drivers/USB/Core/../../../Common/Common.h **** 			static inline void GlobalInterruptDisable(void)
 351:lufa-lib-svn/LUFA/Drivers/USB/Core/../../../Common/Common.h **** 			{
 352:lufa-lib-svn/LUFA/Drivers/USB/Core/../../../Common/Common.h **** 				GCC_MEMORY_BARRIER();
 363               		.loc 3 352 0
 353:lufa-lib-svn/LUFA/Drivers/USB/Core/../../../Common/Common.h **** 
 354:lufa-lib-svn/LUFA/Drivers/USB/Core/../../../Common/Common.h **** 				#if (ARCH == ARCH_AVR8)
 355:lufa-lib-svn/LUFA/Drivers/USB/Core/../../../Common/Common.h **** 				cli();
 364               		.loc 3 355 0
 365               	/* #APP */
 366               	 ;  355 "lufa-lib-svn/LUFA/Drivers/USB/Core/../../../Common/Common.h" 1
 367 016c F894      		cli
 368               	 ;  0 "" 2
 356:lufa-lib-svn/LUFA/Drivers/USB/Core/../../../Common/Common.h **** 				#elif (ARCH == ARCH_UC3)
 357:lufa-lib-svn/LUFA/Drivers/USB/Core/../../../Common/Common.h **** 				__builtin_ssrf(AVR32_SR_GM_OFFSET);
 358:lufa-lib-svn/LUFA/Drivers/USB/Core/../../../Common/Common.h **** 				#elif (ARCH == ARCH_XMEGA)
 359:lufa-lib-svn/LUFA/Drivers/USB/Core/../../../Common/Common.h **** 				cli();
 360:lufa-lib-svn/LUFA/Drivers/USB/Core/../../../Common/Common.h **** 				#endif
 361:lufa-lib-svn/LUFA/Drivers/USB/Core/../../../Common/Common.h **** 
 362:lufa-lib-svn/LUFA/Drivers/USB/Core/../../../Common/Common.h **** 				GCC_MEMORY_BARRIER();
 369               		.loc 3 362 0
 370               	/* #NOAPP */
 371               	.LBE222:
 372               	.LBE221:
 373               	.LBB223:
 374               	.LBB224:
 508:lufa-lib-svn/LUFA/Drivers/USB/Core/AVR8/../AVR8/Endpoint_AVR8.h **** 				UEINTX &= ~(1 << RXSTPI);
 375               		.loc 2 508 0
 376 016e 8091 E800 		lds r24,232
 377               	.LVL24:
 378 0172 877F      		andi r24,lo8(-9)
 379 0174 8093 E800 		sts 232,r24
 380               	.LBE224:
 381               	.LBE223:
 130:lufa-lib-svn/LUFA/Drivers/USB/Core/DeviceStandardReq.c **** 	Endpoint_ClearStatusStage();
 382               		.loc 1 130 0
 383 0178 0E94 0000 		call Endpoint_ClearStatusStage
 384               	.LVL25:
 385               	.L22:
 386               	.LBB225:
 387               	.LBB226:
 471:lufa-lib-svn/LUFA/Drivers/USB/Core/AVR8/../AVR8/Endpoint_AVR8.h **** 				return ((UEINTX & (1 << TXINI)) ? true : false);
 388               		.loc 2 471 0
 389 017c 8091 E800 		lds r24,232
 390               	.LBE226:
 391               	.LBE225:
 132:lufa-lib-svn/LUFA/Drivers/USB/Core/DeviceStandardReq.c **** 	while (!(Endpoint_IsINReady()));
 392               		.loc 1 132 0
 393 0180 80FF      		sbrs r24,0
 394 0182 00C0      		rjmp .L22
 395               	.LVL26:
 396               	.LBB227:
 397               	.LBB228:
 398               		.file 4 "lufa-lib-svn/LUFA/Drivers/USB/Core/AVR8/../AVR8/Device_AVR8.h"
   1:lufa-lib-svn/LUFA/Drivers/USB/Core/AVR8/../AVR8/Device_AVR8.h **** /*
   2:lufa-lib-svn/LUFA/Drivers/USB/Core/AVR8/../AVR8/Device_AVR8.h ****              LUFA Library
   3:lufa-lib-svn/LUFA/Drivers/USB/Core/AVR8/../AVR8/Device_AVR8.h ****      Copyright (C) Dean Camera, 2011.
   4:lufa-lib-svn/LUFA/Drivers/USB/Core/AVR8/../AVR8/Device_AVR8.h **** 
   5:lufa-lib-svn/LUFA/Drivers/USB/Core/AVR8/../AVR8/Device_AVR8.h ****   dean [at] fourwalledcubicle [dot] com
   6:lufa-lib-svn/LUFA/Drivers/USB/Core/AVR8/../AVR8/Device_AVR8.h ****            www.lufa-lib.org
   7:lufa-lib-svn/LUFA/Drivers/USB/Core/AVR8/../AVR8/Device_AVR8.h **** */
   8:lufa-lib-svn/LUFA/Drivers/USB/Core/AVR8/../AVR8/Device_AVR8.h **** 
   9:lufa-lib-svn/LUFA/Drivers/USB/Core/AVR8/../AVR8/Device_AVR8.h **** /*
  10:lufa-lib-svn/LUFA/Drivers/USB/Core/AVR8/../AVR8/Device_AVR8.h ****   Copyright 2011  Dean Camera (dean [at] fourwalledcubicle [dot] com)
  11:lufa-lib-svn/LUFA/Drivers/USB/Core/AVR8/../AVR8/Device_AVR8.h **** 
  12:lufa-lib-svn/LUFA/Drivers/USB/Core/AVR8/../AVR8/Device_AVR8.h ****   Permission to use, copy, modify, distribute, and sell this
  13:lufa-lib-svn/LUFA/Drivers/USB/Core/AVR8/../AVR8/Device_AVR8.h ****   software and its documentation for any purpose is hereby granted
  14:lufa-lib-svn/LUFA/Drivers/USB/Core/AVR8/../AVR8/Device_AVR8.h ****   without fee, provided that the above copyright notice appear in
  15:lufa-lib-svn/LUFA/Drivers/USB/Core/AVR8/../AVR8/Device_AVR8.h ****   all copies and that both that the copyright notice and this
  16:lufa-lib-svn/LUFA/Drivers/USB/Core/AVR8/../AVR8/Device_AVR8.h ****   permission notice and warranty disclaimer appear in supporting
  17:lufa-lib-svn/LUFA/Drivers/USB/Core/AVR8/../AVR8/Device_AVR8.h ****   documentation, and that the name of the author not be used in
  18:lufa-lib-svn/LUFA/Drivers/USB/Core/AVR8/../AVR8/Device_AVR8.h ****   advertising or publicity pertaining to distribution of the
  19:lufa-lib-svn/LUFA/Drivers/USB/Core/AVR8/../AVR8/Device_AVR8.h ****   software without specific, written prior permission.
  20:lufa-lib-svn/LUFA/Drivers/USB/Core/AVR8/../AVR8/Device_AVR8.h **** 
  21:lufa-lib-svn/LUFA/Drivers/USB/Core/AVR8/../AVR8/Device_AVR8.h ****   The author disclaim all warranties with regard to this
  22:lufa-lib-svn/LUFA/Drivers/USB/Core/AVR8/../AVR8/Device_AVR8.h ****   software, including all implied warranties of merchantability
  23:lufa-lib-svn/LUFA/Drivers/USB/Core/AVR8/../AVR8/Device_AVR8.h ****   and fitness.  In no event shall the author be liable for any
  24:lufa-lib-svn/LUFA/Drivers/USB/Core/AVR8/../AVR8/Device_AVR8.h ****   special, indirect or consequential damages or any damages
  25:lufa-lib-svn/LUFA/Drivers/USB/Core/AVR8/../AVR8/Device_AVR8.h ****   whatsoever resulting from loss of use, data or profits, whether
  26:lufa-lib-svn/LUFA/Drivers/USB/Core/AVR8/../AVR8/Device_AVR8.h ****   in an action of contract, negligence or other tortious action,
  27:lufa-lib-svn/LUFA/Drivers/USB/Core/AVR8/../AVR8/Device_AVR8.h ****   arising out of or in connection with the use or performance of
  28:lufa-lib-svn/LUFA/Drivers/USB/Core/AVR8/../AVR8/Device_AVR8.h ****   this software.
  29:lufa-lib-svn/LUFA/Drivers/USB/Core/AVR8/../AVR8/Device_AVR8.h **** */
  30:lufa-lib-svn/LUFA/Drivers/USB/Core/AVR8/../AVR8/Device_AVR8.h **** 
  31:lufa-lib-svn/LUFA/Drivers/USB/Core/AVR8/../AVR8/Device_AVR8.h **** /** \file
  32:lufa-lib-svn/LUFA/Drivers/USB/Core/AVR8/../AVR8/Device_AVR8.h ****  *  \brief USB Device definitions for the AVR8 microcontrollers.
  33:lufa-lib-svn/LUFA/Drivers/USB/Core/AVR8/../AVR8/Device_AVR8.h ****  *  \copydetails Group_Device_AVR8
  34:lufa-lib-svn/LUFA/Drivers/USB/Core/AVR8/../AVR8/Device_AVR8.h ****  *
  35:lufa-lib-svn/LUFA/Drivers/USB/Core/AVR8/../AVR8/Device_AVR8.h ****  *  \note This file should not be included directly. It is automatically included as needed by the 
  36:lufa-lib-svn/LUFA/Drivers/USB/Core/AVR8/../AVR8/Device_AVR8.h ****  *        dispatch header located in LUFA/Drivers/USB/USB.h.
  37:lufa-lib-svn/LUFA/Drivers/USB/Core/AVR8/../AVR8/Device_AVR8.h ****  */
  38:lufa-lib-svn/LUFA/Drivers/USB/Core/AVR8/../AVR8/Device_AVR8.h **** 
  39:lufa-lib-svn/LUFA/Drivers/USB/Core/AVR8/../AVR8/Device_AVR8.h **** /** \ingroup Group_Device
  40:lufa-lib-svn/LUFA/Drivers/USB/Core/AVR8/../AVR8/Device_AVR8.h ****  *  \defgroup Group_Device_AVR8 Device Management (AVR8)
  41:lufa-lib-svn/LUFA/Drivers/USB/Core/AVR8/../AVR8/Device_AVR8.h ****  *  \brief USB Device definitions for the AVR8 microcontrollers.
  42:lufa-lib-svn/LUFA/Drivers/USB/Core/AVR8/../AVR8/Device_AVR8.h ****  *
  43:lufa-lib-svn/LUFA/Drivers/USB/Core/AVR8/../AVR8/Device_AVR8.h ****  *  Architecture specific USB Device definitions for the Atmel 8-bit AVR microcontrollers.
  44:lufa-lib-svn/LUFA/Drivers/USB/Core/AVR8/../AVR8/Device_AVR8.h ****  *
  45:lufa-lib-svn/LUFA/Drivers/USB/Core/AVR8/../AVR8/Device_AVR8.h ****  *  @{
  46:lufa-lib-svn/LUFA/Drivers/USB/Core/AVR8/../AVR8/Device_AVR8.h ****  */
  47:lufa-lib-svn/LUFA/Drivers/USB/Core/AVR8/../AVR8/Device_AVR8.h **** 
  48:lufa-lib-svn/LUFA/Drivers/USB/Core/AVR8/../AVR8/Device_AVR8.h **** #ifndef __USBDEVICE_AVR8_H__
  49:lufa-lib-svn/LUFA/Drivers/USB/Core/AVR8/../AVR8/Device_AVR8.h **** #define __USBDEVICE_AVR8_H__
  50:lufa-lib-svn/LUFA/Drivers/USB/Core/AVR8/../AVR8/Device_AVR8.h **** 
  51:lufa-lib-svn/LUFA/Drivers/USB/Core/AVR8/../AVR8/Device_AVR8.h **** 	/* Includes: */
  52:lufa-lib-svn/LUFA/Drivers/USB/Core/AVR8/../AVR8/Device_AVR8.h **** 		#include "../../../../Common/Common.h"
  53:lufa-lib-svn/LUFA/Drivers/USB/Core/AVR8/../AVR8/Device_AVR8.h **** 		#include "../USBController.h"
  54:lufa-lib-svn/LUFA/Drivers/USB/Core/AVR8/../AVR8/Device_AVR8.h **** 		#include "../StdDescriptors.h"
  55:lufa-lib-svn/LUFA/Drivers/USB/Core/AVR8/../AVR8/Device_AVR8.h **** 		#include "../USBInterrupt.h"
  56:lufa-lib-svn/LUFA/Drivers/USB/Core/AVR8/../AVR8/Device_AVR8.h **** 		#include "../Endpoint.h"
  57:lufa-lib-svn/LUFA/Drivers/USB/Core/AVR8/../AVR8/Device_AVR8.h **** 
  58:lufa-lib-svn/LUFA/Drivers/USB/Core/AVR8/../AVR8/Device_AVR8.h **** 	/* Enable C linkage for C++ Compilers: */
  59:lufa-lib-svn/LUFA/Drivers/USB/Core/AVR8/../AVR8/Device_AVR8.h **** 		#if defined(__cplusplus)
  60:lufa-lib-svn/LUFA/Drivers/USB/Core/AVR8/../AVR8/Device_AVR8.h **** 			extern "C" {
  61:lufa-lib-svn/LUFA/Drivers/USB/Core/AVR8/../AVR8/Device_AVR8.h **** 		#endif
  62:lufa-lib-svn/LUFA/Drivers/USB/Core/AVR8/../AVR8/Device_AVR8.h **** 
  63:lufa-lib-svn/LUFA/Drivers/USB/Core/AVR8/../AVR8/Device_AVR8.h **** 	/* Preprocessor Checks: */
  64:lufa-lib-svn/LUFA/Drivers/USB/Core/AVR8/../AVR8/Device_AVR8.h **** 		#if !defined(__INCLUDE_FROM_USB_DRIVER)
  65:lufa-lib-svn/LUFA/Drivers/USB/Core/AVR8/../AVR8/Device_AVR8.h **** 			#error Do not include this file directly. Include LUFA/Drivers/USB/USB.h instead.
  66:lufa-lib-svn/LUFA/Drivers/USB/Core/AVR8/../AVR8/Device_AVR8.h **** 		#endif
  67:lufa-lib-svn/LUFA/Drivers/USB/Core/AVR8/../AVR8/Device_AVR8.h **** 
  68:lufa-lib-svn/LUFA/Drivers/USB/Core/AVR8/../AVR8/Device_AVR8.h **** 		#if (defined(USE_RAM_DESCRIPTORS) && defined(USE_EEPROM_DESCRIPTORS))
  69:lufa-lib-svn/LUFA/Drivers/USB/Core/AVR8/../AVR8/Device_AVR8.h **** 			#error USE_RAM_DESCRIPTORS and USE_EEPROM_DESCRIPTORS are mutually exclusive.
  70:lufa-lib-svn/LUFA/Drivers/USB/Core/AVR8/../AVR8/Device_AVR8.h **** 		#endif
  71:lufa-lib-svn/LUFA/Drivers/USB/Core/AVR8/../AVR8/Device_AVR8.h **** 
  72:lufa-lib-svn/LUFA/Drivers/USB/Core/AVR8/../AVR8/Device_AVR8.h **** 		#if (defined(USE_FLASH_DESCRIPTORS) && defined(USE_EEPROM_DESCRIPTORS))
  73:lufa-lib-svn/LUFA/Drivers/USB/Core/AVR8/../AVR8/Device_AVR8.h **** 			#error USE_FLASH_DESCRIPTORS and USE_EEPROM_DESCRIPTORS are mutually exclusive.
  74:lufa-lib-svn/LUFA/Drivers/USB/Core/AVR8/../AVR8/Device_AVR8.h **** 		#endif
  75:lufa-lib-svn/LUFA/Drivers/USB/Core/AVR8/../AVR8/Device_AVR8.h **** 
  76:lufa-lib-svn/LUFA/Drivers/USB/Core/AVR8/../AVR8/Device_AVR8.h **** 		#if (defined(USE_FLASH_DESCRIPTORS) && defined(USE_RAM_DESCRIPTORS))
  77:lufa-lib-svn/LUFA/Drivers/USB/Core/AVR8/../AVR8/Device_AVR8.h **** 			#error USE_FLASH_DESCRIPTORS and USE_RAM_DESCRIPTORS are mutually exclusive.
  78:lufa-lib-svn/LUFA/Drivers/USB/Core/AVR8/../AVR8/Device_AVR8.h **** 		#endif
  79:lufa-lib-svn/LUFA/Drivers/USB/Core/AVR8/../AVR8/Device_AVR8.h **** 
  80:lufa-lib-svn/LUFA/Drivers/USB/Core/AVR8/../AVR8/Device_AVR8.h **** 	/* Public Interface - May be used in end-application: */
  81:lufa-lib-svn/LUFA/Drivers/USB/Core/AVR8/../AVR8/Device_AVR8.h **** 		/* Macros: */
  82:lufa-lib-svn/LUFA/Drivers/USB/Core/AVR8/../AVR8/Device_AVR8.h **** 			/** \name USB Device Mode Option Masks */
  83:lufa-lib-svn/LUFA/Drivers/USB/Core/AVR8/../AVR8/Device_AVR8.h **** 			//@{
  84:lufa-lib-svn/LUFA/Drivers/USB/Core/AVR8/../AVR8/Device_AVR8.h **** 			#if defined(USB_SERIES_4_AVR) || defined(USB_SERIES_6_AVR) || defined(USB_SERIES_7_AVR) || defin
  85:lufa-lib-svn/LUFA/Drivers/USB/Core/AVR8/../AVR8/Device_AVR8.h **** 				/** Mask for the Options parameter of the \ref USB_Init() function. This indicates that the
  86:lufa-lib-svn/LUFA/Drivers/USB/Core/AVR8/../AVR8/Device_AVR8.h **** 				 *  USB interface should be initialized in low speed (1.5Mb/s) mode.
  87:lufa-lib-svn/LUFA/Drivers/USB/Core/AVR8/../AVR8/Device_AVR8.h **** 				 *
  88:lufa-lib-svn/LUFA/Drivers/USB/Core/AVR8/../AVR8/Device_AVR8.h **** 				 *  \note Low Speed mode is not available on all USB AVR models.
  89:lufa-lib-svn/LUFA/Drivers/USB/Core/AVR8/../AVR8/Device_AVR8.h **** 				 *        \n
  90:lufa-lib-svn/LUFA/Drivers/USB/Core/AVR8/../AVR8/Device_AVR8.h **** 				 *
  91:lufa-lib-svn/LUFA/Drivers/USB/Core/AVR8/../AVR8/Device_AVR8.h **** 				 *  \note Restrictions apply on the number, size and type of endpoints which can be used
  92:lufa-lib-svn/LUFA/Drivers/USB/Core/AVR8/../AVR8/Device_AVR8.h **** 				 *        when running in low speed mode - refer to the USB 2.0 specification.
  93:lufa-lib-svn/LUFA/Drivers/USB/Core/AVR8/../AVR8/Device_AVR8.h **** 				 */
  94:lufa-lib-svn/LUFA/Drivers/USB/Core/AVR8/../AVR8/Device_AVR8.h **** 				#define USB_DEVICE_OPT_LOWSPEED            (1 << 0)
  95:lufa-lib-svn/LUFA/Drivers/USB/Core/AVR8/../AVR8/Device_AVR8.h **** 			#endif
  96:lufa-lib-svn/LUFA/Drivers/USB/Core/AVR8/../AVR8/Device_AVR8.h **** 
  97:lufa-lib-svn/LUFA/Drivers/USB/Core/AVR8/../AVR8/Device_AVR8.h **** 			/** Mask for the Options parameter of the \ref USB_Init() function. This indicates that the
  98:lufa-lib-svn/LUFA/Drivers/USB/Core/AVR8/../AVR8/Device_AVR8.h **** 			 *  USB interface should be initialized in full speed (12Mb/s) mode.
  99:lufa-lib-svn/LUFA/Drivers/USB/Core/AVR8/../AVR8/Device_AVR8.h **** 			 */
 100:lufa-lib-svn/LUFA/Drivers/USB/Core/AVR8/../AVR8/Device_AVR8.h **** 			#define USB_DEVICE_OPT_FULLSPEED               (0 << 0)
 101:lufa-lib-svn/LUFA/Drivers/USB/Core/AVR8/../AVR8/Device_AVR8.h **** 			//@}
 102:lufa-lib-svn/LUFA/Drivers/USB/Core/AVR8/../AVR8/Device_AVR8.h **** 
 103:lufa-lib-svn/LUFA/Drivers/USB/Core/AVR8/../AVR8/Device_AVR8.h **** 			#if (!defined(NO_INTERNAL_SERIAL) && \
 104:lufa-lib-svn/LUFA/Drivers/USB/Core/AVR8/../AVR8/Device_AVR8.h **** 			     (defined(USB_SERIES_7_AVR) || defined(USB_SERIES_6_AVR) || defined(USB_SERIES_4_AVR) || \
 105:lufa-lib-svn/LUFA/Drivers/USB/Core/AVR8/../AVR8/Device_AVR8.h **** 			      (defined(USB_SERIES_2_AVR) && (!defined(__AVR_AT90USB82__) || defined(__AVR_AT90USB162__))
 106:lufa-lib-svn/LUFA/Drivers/USB/Core/AVR8/../AVR8/Device_AVR8.h **** 				  defined(__DOXYGEN__)))
 107:lufa-lib-svn/LUFA/Drivers/USB/Core/AVR8/../AVR8/Device_AVR8.h **** 				/** String descriptor index for the device's unique serial number string descriptor within the 
 108:lufa-lib-svn/LUFA/Drivers/USB/Core/AVR8/../AVR8/Device_AVR8.h **** 				 *  This unique serial number is used by the host to associate resources to the device (such as
 109:lufa-lib-svn/LUFA/Drivers/USB/Core/AVR8/../AVR8/Device_AVR8.h **** 				 *  number allocations) to a device regardless of the port it is plugged in to on the host. Som
 110:lufa-lib-svn/LUFA/Drivers/USB/Core/AVR8/../AVR8/Device_AVR8.h **** 				 *  a unique serial number internally, and setting the device descriptors serial number string 
 111:lufa-lib-svn/LUFA/Drivers/USB/Core/AVR8/../AVR8/Device_AVR8.h **** 				 *  will cause it to use the internal serial number.
 112:lufa-lib-svn/LUFA/Drivers/USB/Core/AVR8/../AVR8/Device_AVR8.h **** 				 *
 113:lufa-lib-svn/LUFA/Drivers/USB/Core/AVR8/../AVR8/Device_AVR8.h **** 				 *  On unsupported devices, this will evaluate to \ref NO_DESCRIPTOR and so will force the host
 114:lufa-lib-svn/LUFA/Drivers/USB/Core/AVR8/../AVR8/Device_AVR8.h **** 				 *  number for the device.
 115:lufa-lib-svn/LUFA/Drivers/USB/Core/AVR8/../AVR8/Device_AVR8.h **** 				 */
 116:lufa-lib-svn/LUFA/Drivers/USB/Core/AVR8/../AVR8/Device_AVR8.h **** 				#define USE_INTERNAL_SERIAL            0xDC
 117:lufa-lib-svn/LUFA/Drivers/USB/Core/AVR8/../AVR8/Device_AVR8.h **** 
 118:lufa-lib-svn/LUFA/Drivers/USB/Core/AVR8/../AVR8/Device_AVR8.h **** 				/** Length of the device's unique internal serial number, in bits, if present on the selected m
 119:lufa-lib-svn/LUFA/Drivers/USB/Core/AVR8/../AVR8/Device_AVR8.h **** 				 *  model.
 120:lufa-lib-svn/LUFA/Drivers/USB/Core/AVR8/../AVR8/Device_AVR8.h **** 				 */
 121:lufa-lib-svn/LUFA/Drivers/USB/Core/AVR8/../AVR8/Device_AVR8.h **** 				#define INTERNAL_SERIAL_LENGTH_BITS    80
 122:lufa-lib-svn/LUFA/Drivers/USB/Core/AVR8/../AVR8/Device_AVR8.h **** 
 123:lufa-lib-svn/LUFA/Drivers/USB/Core/AVR8/../AVR8/Device_AVR8.h **** 				/** Start address of the internal serial number, in the appropriate address space, if present o
 124:lufa-lib-svn/LUFA/Drivers/USB/Core/AVR8/../AVR8/Device_AVR8.h **** 				 *  model.
 125:lufa-lib-svn/LUFA/Drivers/USB/Core/AVR8/../AVR8/Device_AVR8.h **** 				 */
 126:lufa-lib-svn/LUFA/Drivers/USB/Core/AVR8/../AVR8/Device_AVR8.h **** 				#define INTERNAL_SERIAL_START_ADDRESS  0x0E
 127:lufa-lib-svn/LUFA/Drivers/USB/Core/AVR8/../AVR8/Device_AVR8.h **** 			#else
 128:lufa-lib-svn/LUFA/Drivers/USB/Core/AVR8/../AVR8/Device_AVR8.h **** 				#define USE_INTERNAL_SERIAL            NO_DESCRIPTOR
 129:lufa-lib-svn/LUFA/Drivers/USB/Core/AVR8/../AVR8/Device_AVR8.h **** 
 130:lufa-lib-svn/LUFA/Drivers/USB/Core/AVR8/../AVR8/Device_AVR8.h **** 				#define INTERNAL_SERIAL_LENGTH_BITS    0
 131:lufa-lib-svn/LUFA/Drivers/USB/Core/AVR8/../AVR8/Device_AVR8.h **** 				#define INTERNAL_SERIAL_START_ADDRESS  0
 132:lufa-lib-svn/LUFA/Drivers/USB/Core/AVR8/../AVR8/Device_AVR8.h **** 			#endif
 133:lufa-lib-svn/LUFA/Drivers/USB/Core/AVR8/../AVR8/Device_AVR8.h **** 
 134:lufa-lib-svn/LUFA/Drivers/USB/Core/AVR8/../AVR8/Device_AVR8.h **** 		/* Function Prototypes: */
 135:lufa-lib-svn/LUFA/Drivers/USB/Core/AVR8/../AVR8/Device_AVR8.h **** 			/** Sends a Remote Wakeup request to the host. This signals to the host that the device should
 136:lufa-lib-svn/LUFA/Drivers/USB/Core/AVR8/../AVR8/Device_AVR8.h **** 			 *  be taken out of suspended mode, and communications should resume.
 137:lufa-lib-svn/LUFA/Drivers/USB/Core/AVR8/../AVR8/Device_AVR8.h **** 			 *
 138:lufa-lib-svn/LUFA/Drivers/USB/Core/AVR8/../AVR8/Device_AVR8.h **** 			 *  Typically, this is implemented so that HID devices (mice, keyboards, etc.) can wake up the
 139:lufa-lib-svn/LUFA/Drivers/USB/Core/AVR8/../AVR8/Device_AVR8.h **** 			 *  host computer when the host has suspended all USB devices to enter a low power state.
 140:lufa-lib-svn/LUFA/Drivers/USB/Core/AVR8/../AVR8/Device_AVR8.h **** 			 *
 141:lufa-lib-svn/LUFA/Drivers/USB/Core/AVR8/../AVR8/Device_AVR8.h **** 			 *  \note This macro should only be used if the device has indicated to the host that it
 142:lufa-lib-svn/LUFA/Drivers/USB/Core/AVR8/../AVR8/Device_AVR8.h **** 			 *        supports the Remote Wakeup feature in the device descriptors, and should only be
 143:lufa-lib-svn/LUFA/Drivers/USB/Core/AVR8/../AVR8/Device_AVR8.h **** 			 *        issued if the host is currently allowing remote wakeup events from the device (i.e.,
 144:lufa-lib-svn/LUFA/Drivers/USB/Core/AVR8/../AVR8/Device_AVR8.h **** 			 *        the \ref USB_Device_RemoteWakeupEnabled flag is set). When the \c NO_DEVICE_REMOTE_WAK
 145:lufa-lib-svn/LUFA/Drivers/USB/Core/AVR8/../AVR8/Device_AVR8.h **** 			 *        compile time option is used, this macro is unavailable.
 146:lufa-lib-svn/LUFA/Drivers/USB/Core/AVR8/../AVR8/Device_AVR8.h **** 			 *        \n\n
 147:lufa-lib-svn/LUFA/Drivers/USB/Core/AVR8/../AVR8/Device_AVR8.h **** 			 *
 148:lufa-lib-svn/LUFA/Drivers/USB/Core/AVR8/../AVR8/Device_AVR8.h **** 			 *  \note The USB clock must be running for this function to operate. If the stack is initialize
 149:lufa-lib-svn/LUFA/Drivers/USB/Core/AVR8/../AVR8/Device_AVR8.h **** 			 *        the \ref USB_OPT_MANUAL_PLL option enabled, the user must ensure that the PLL is runni
 150:lufa-lib-svn/LUFA/Drivers/USB/Core/AVR8/../AVR8/Device_AVR8.h **** 			 *        before attempting to call this function.
 151:lufa-lib-svn/LUFA/Drivers/USB/Core/AVR8/../AVR8/Device_AVR8.h **** 			 *
 152:lufa-lib-svn/LUFA/Drivers/USB/Core/AVR8/../AVR8/Device_AVR8.h **** 			 *  \see \ref Group_StdDescriptors for more information on the RMWAKEUP feature and device descr
 153:lufa-lib-svn/LUFA/Drivers/USB/Core/AVR8/../AVR8/Device_AVR8.h **** 			 */
 154:lufa-lib-svn/LUFA/Drivers/USB/Core/AVR8/../AVR8/Device_AVR8.h **** 			void USB_Device_SendRemoteWakeup(void);
 155:lufa-lib-svn/LUFA/Drivers/USB/Core/AVR8/../AVR8/Device_AVR8.h **** 
 156:lufa-lib-svn/LUFA/Drivers/USB/Core/AVR8/../AVR8/Device_AVR8.h **** 		/* Inline Functions: */
 157:lufa-lib-svn/LUFA/Drivers/USB/Core/AVR8/../AVR8/Device_AVR8.h **** 			/** Returns the current USB frame number, when in device mode. Every millisecond the USB bus is 
 158:lufa-lib-svn/LUFA/Drivers/USB/Core/AVR8/../AVR8/Device_AVR8.h **** 			 *  the frame number is incremented by one.
 159:lufa-lib-svn/LUFA/Drivers/USB/Core/AVR8/../AVR8/Device_AVR8.h **** 			 *
 160:lufa-lib-svn/LUFA/Drivers/USB/Core/AVR8/../AVR8/Device_AVR8.h **** 			 *  \return Current USB frame number from the USB controller.
 161:lufa-lib-svn/LUFA/Drivers/USB/Core/AVR8/../AVR8/Device_AVR8.h **** 			 */
 162:lufa-lib-svn/LUFA/Drivers/USB/Core/AVR8/../AVR8/Device_AVR8.h **** 			static inline uint16_t USB_Device_GetFrameNumber(void) ATTR_ALWAYS_INLINE ATTR_WARN_UNUSED_RESUL
 163:lufa-lib-svn/LUFA/Drivers/USB/Core/AVR8/../AVR8/Device_AVR8.h **** 			static inline uint16_t USB_Device_GetFrameNumber(void)
 164:lufa-lib-svn/LUFA/Drivers/USB/Core/AVR8/../AVR8/Device_AVR8.h **** 			{
 165:lufa-lib-svn/LUFA/Drivers/USB/Core/AVR8/../AVR8/Device_AVR8.h **** 				return UDFNUM;
 166:lufa-lib-svn/LUFA/Drivers/USB/Core/AVR8/../AVR8/Device_AVR8.h **** 			}
 167:lufa-lib-svn/LUFA/Drivers/USB/Core/AVR8/../AVR8/Device_AVR8.h **** 
 168:lufa-lib-svn/LUFA/Drivers/USB/Core/AVR8/../AVR8/Device_AVR8.h **** 			#if !defined(NO_SOF_EVENTS)
 169:lufa-lib-svn/LUFA/Drivers/USB/Core/AVR8/../AVR8/Device_AVR8.h **** 				/** Enables the device mode Start Of Frame events. When enabled, this causes the
 170:lufa-lib-svn/LUFA/Drivers/USB/Core/AVR8/../AVR8/Device_AVR8.h **** 				 *  \ref EVENT_USB_Device_StartOfFrame() event to fire once per millisecond, synchronized to th
 171:lufa-lib-svn/LUFA/Drivers/USB/Core/AVR8/../AVR8/Device_AVR8.h **** 				 *  at the start of each USB frame when enumerated in device mode.
 172:lufa-lib-svn/LUFA/Drivers/USB/Core/AVR8/../AVR8/Device_AVR8.h **** 				 *
 173:lufa-lib-svn/LUFA/Drivers/USB/Core/AVR8/../AVR8/Device_AVR8.h **** 				 *  \note Not available when the \c NO_SOF_EVENTS compile time token is defined.
 174:lufa-lib-svn/LUFA/Drivers/USB/Core/AVR8/../AVR8/Device_AVR8.h **** 				 */
 175:lufa-lib-svn/LUFA/Drivers/USB/Core/AVR8/../AVR8/Device_AVR8.h **** 				static inline void USB_Device_EnableSOFEvents(void) ATTR_ALWAYS_INLINE;
 176:lufa-lib-svn/LUFA/Drivers/USB/Core/AVR8/../AVR8/Device_AVR8.h **** 				static inline void USB_Device_EnableSOFEvents(void)
 177:lufa-lib-svn/LUFA/Drivers/USB/Core/AVR8/../AVR8/Device_AVR8.h **** 				{
 178:lufa-lib-svn/LUFA/Drivers/USB/Core/AVR8/../AVR8/Device_AVR8.h **** 					USB_INT_Enable(USB_INT_SOFI);
 179:lufa-lib-svn/LUFA/Drivers/USB/Core/AVR8/../AVR8/Device_AVR8.h **** 				}
 180:lufa-lib-svn/LUFA/Drivers/USB/Core/AVR8/../AVR8/Device_AVR8.h **** 
 181:lufa-lib-svn/LUFA/Drivers/USB/Core/AVR8/../AVR8/Device_AVR8.h **** 				/** Disables the device mode Start Of Frame events. When disabled, this stops the firing of the
 182:lufa-lib-svn/LUFA/Drivers/USB/Core/AVR8/../AVR8/Device_AVR8.h **** 				 *  \ref EVENT_USB_Device_StartOfFrame() event when enumerated in device mode.
 183:lufa-lib-svn/LUFA/Drivers/USB/Core/AVR8/../AVR8/Device_AVR8.h **** 				 *
 184:lufa-lib-svn/LUFA/Drivers/USB/Core/AVR8/../AVR8/Device_AVR8.h **** 				 *  \note Not available when the \c NO_SOF_EVENTS compile time token is defined.
 185:lufa-lib-svn/LUFA/Drivers/USB/Core/AVR8/../AVR8/Device_AVR8.h **** 				 */
 186:lufa-lib-svn/LUFA/Drivers/USB/Core/AVR8/../AVR8/Device_AVR8.h **** 				static inline void USB_Device_DisableSOFEvents(void) ATTR_ALWAYS_INLINE;
 187:lufa-lib-svn/LUFA/Drivers/USB/Core/AVR8/../AVR8/Device_AVR8.h **** 				static inline void USB_Device_DisableSOFEvents(void)
 188:lufa-lib-svn/LUFA/Drivers/USB/Core/AVR8/../AVR8/Device_AVR8.h **** 				{
 189:lufa-lib-svn/LUFA/Drivers/USB/Core/AVR8/../AVR8/Device_AVR8.h **** 					USB_INT_Disable(USB_INT_SOFI);
 190:lufa-lib-svn/LUFA/Drivers/USB/Core/AVR8/../AVR8/Device_AVR8.h **** 				}
 191:lufa-lib-svn/LUFA/Drivers/USB/Core/AVR8/../AVR8/Device_AVR8.h **** 			#endif
 192:lufa-lib-svn/LUFA/Drivers/USB/Core/AVR8/../AVR8/Device_AVR8.h **** 
 193:lufa-lib-svn/LUFA/Drivers/USB/Core/AVR8/../AVR8/Device_AVR8.h **** 	/* Private Interface - For use in library only: */
 194:lufa-lib-svn/LUFA/Drivers/USB/Core/AVR8/../AVR8/Device_AVR8.h **** 	#if !defined(__DOXYGEN__)
 195:lufa-lib-svn/LUFA/Drivers/USB/Core/AVR8/../AVR8/Device_AVR8.h **** 		/* Inline Functions: */
 196:lufa-lib-svn/LUFA/Drivers/USB/Core/AVR8/../AVR8/Device_AVR8.h **** 			#if defined(USB_DEVICE_OPT_LOWSPEED)
 197:lufa-lib-svn/LUFA/Drivers/USB/Core/AVR8/../AVR8/Device_AVR8.h **** 			static inline void USB_Device_SetLowSpeed(void) ATTR_ALWAYS_INLINE;
 198:lufa-lib-svn/LUFA/Drivers/USB/Core/AVR8/../AVR8/Device_AVR8.h **** 			static inline void USB_Device_SetLowSpeed(void)
 199:lufa-lib-svn/LUFA/Drivers/USB/Core/AVR8/../AVR8/Device_AVR8.h **** 			{
 200:lufa-lib-svn/LUFA/Drivers/USB/Core/AVR8/../AVR8/Device_AVR8.h **** 				UDCON |=  (1 << LSM);
 201:lufa-lib-svn/LUFA/Drivers/USB/Core/AVR8/../AVR8/Device_AVR8.h **** 			}
 202:lufa-lib-svn/LUFA/Drivers/USB/Core/AVR8/../AVR8/Device_AVR8.h **** 
 203:lufa-lib-svn/LUFA/Drivers/USB/Core/AVR8/../AVR8/Device_AVR8.h **** 			static inline void USB_Device_SetFullSpeed(void) ATTR_ALWAYS_INLINE;
 204:lufa-lib-svn/LUFA/Drivers/USB/Core/AVR8/../AVR8/Device_AVR8.h **** 			static inline void USB_Device_SetFullSpeed(void)
 205:lufa-lib-svn/LUFA/Drivers/USB/Core/AVR8/../AVR8/Device_AVR8.h **** 			{
 206:lufa-lib-svn/LUFA/Drivers/USB/Core/AVR8/../AVR8/Device_AVR8.h **** 				UDCON &= ~(1 << LSM);
 207:lufa-lib-svn/LUFA/Drivers/USB/Core/AVR8/../AVR8/Device_AVR8.h **** 			}
 208:lufa-lib-svn/LUFA/Drivers/USB/Core/AVR8/../AVR8/Device_AVR8.h **** 			#endif
 209:lufa-lib-svn/LUFA/Drivers/USB/Core/AVR8/../AVR8/Device_AVR8.h **** 
 210:lufa-lib-svn/LUFA/Drivers/USB/Core/AVR8/../AVR8/Device_AVR8.h **** 			static inline void USB_Device_SetDeviceAddress(const uint8_t Address) ATTR_ALWAYS_INLINE;
 211:lufa-lib-svn/LUFA/Drivers/USB/Core/AVR8/../AVR8/Device_AVR8.h **** 			static inline void USB_Device_SetDeviceAddress(const uint8_t Address)
 212:lufa-lib-svn/LUFA/Drivers/USB/Core/AVR8/../AVR8/Device_AVR8.h **** 			{
 213:lufa-lib-svn/LUFA/Drivers/USB/Core/AVR8/../AVR8/Device_AVR8.h **** 				uint8_t Temp = (UDADDR & (1 << ADDEN)) | (Address & 0x7F);
 399               		.loc 4 213 0
 400 0184 8091 E300 		lds r24,227
 401 0188 8078      		andi r24,lo8(-128)
 402 018a 802B      		or r24,r16
 403               	.LVL27:
 214:lufa-lib-svn/LUFA/Drivers/USB/Core/AVR8/../AVR8/Device_AVR8.h **** 
 215:lufa-lib-svn/LUFA/Drivers/USB/Core/AVR8/../AVR8/Device_AVR8.h **** 				UDADDR = Temp;
 404               		.loc 4 215 0
 405 018c 8093 E300 		sts 227,r24
 216:lufa-lib-svn/LUFA/Drivers/USB/Core/AVR8/../AVR8/Device_AVR8.h **** 				UDADDR = Temp | (1 << ADDEN);
 406               		.loc 4 216 0
 407 0190 8068      		ori r24,lo8(-128)
 408               	.LVL28:
 409 0192 8093 E300 		sts 227,r24
 410               	.LBE228:
 411               	.LBE227:
 135:lufa-lib-svn/LUFA/Drivers/USB/Core/DeviceStandardReq.c **** 	USB_DeviceState = (DeviceAddress) ? DEVICE_STATE_Addressed : DEVICE_STATE_Default;
 412               		.loc 1 135 0
 413 0196 EE20      		tst r14
 414 0198 01F0      		breq .L34
 415 019a 83E0      		ldi r24,lo8(3)
 416 019c 00C0      		rjmp .L23
 417               	.L34:
 418 019e 82E0      		ldi r24,lo8(2)
 419               	.L23:
 420 01a0 8EBB      		out 0x1e,r24
 421               	.LVL29:
 422               	.LBB229:
 423               	.LBB230:
 309:lufa-lib-svn/LUFA/Drivers/USB/Core/../../../Common/Common.h **** 				GCC_MEMORY_BARRIER();
 424               		.loc 3 309 0
 312:lufa-lib-svn/LUFA/Drivers/USB/Core/../../../Common/Common.h **** 				SREG = GlobalIntState;
 425               		.loc 3 312 0
 426 01a2 FFBE      		out __SREG__,r15
 322:lufa-lib-svn/LUFA/Drivers/USB/Core/../../../Common/Common.h **** 				GCC_MEMORY_BARRIER();
 427               		.loc 3 322 0
 428 01a4 00C0      		rjmp .L3
 429               	.LVL30:
 430               	.L7:
 431               	.LBE230:
 432               	.LBE229:
 433               	.LBE218:
 434               	.LBE217:
  95:lufa-lib-svn/LUFA/Drivers/USB/Core/DeviceStandardReq.c **** 				if ((bmRequestType == (REQDIR_DEVICETOHOST | REQTYPE_STANDARD | REQREC_DEVICE)) ||
 435               		.loc 1 95 0
 436 01a6 8058      		subi r24,lo8(-(-128))
 437               	.LVL31:
 438 01a8 8230      		cpi r24,lo8(2)
 439 01aa 00F0      		brlo .+2
 440 01ac 00C0      		rjmp .L3
 441               	.LBB231:
 442               	.LBB232:
 248:lufa-lib-svn/LUFA/Drivers/USB/Core/DeviceStandardReq.c **** 	if (USB_ControlRequest.wValue == ((DTYPE_String << 8) | USE_INTERNAL_SERIAL))
 443               		.loc 1 248 0
 444 01ae 8091 0000 		lds r24,USB_ControlRequest+2
 445 01b2 9091 0000 		lds r25,USB_ControlRequest+2+1
 446 01b6 8C3D      		cpi r24,-36
 447 01b8 23E0      		ldi r18,3
 448 01ba 9207      		cpc r25,r18
 449 01bc 01F4      		brne .L24
 450               	.LBB233:
 451               	.LBB234:
 225:lufa-lib-svn/LUFA/Drivers/USB/Core/DeviceStandardReq.c **** 	SignatureDescriptor.Header.Type = DTYPE_String;
 452               		.loc 1 225 0
 453 01be 83E0      		ldi r24,lo8(3)
 454 01c0 8A83      		std Y+2,r24
 226:lufa-lib-svn/LUFA/Drivers/USB/Core/DeviceStandardReq.c **** 	SignatureDescriptor.Header.Size = USB_STRING_LEN(INTERNAL_SERIAL_LENGTH_BITS / 4);
 455               		.loc 1 226 0
 456 01c2 8AE2      		ldi r24,lo8(42)
 457 01c4 8983      		std Y+1,r24
 458               	.LVL32:
 459               	.LBB235:
 460               	.LBB236:
 461               	.LBB237:
 462               	.LBB238:
 285:lufa-lib-svn/LUFA/Drivers/USB/Core/../../../Common/Common.h **** 				GCC_MEMORY_BARRIER();
 463               		.loc 3 285 0
 288:lufa-lib-svn/LUFA/Drivers/USB/Core/../../../Common/Common.h **** 				return SREG;
 464               		.loc 3 288 0
 465 01c6 4FB7      		in r20,__SREG__
 466               	.LBE238:
 467               	.LBE237:
 468               	.LBB239:
 469               	.LBB240:
 352:lufa-lib-svn/LUFA/Drivers/USB/Core/../../../Common/Common.h **** 				GCC_MEMORY_BARRIER();
 470               		.loc 3 352 0
 355:lufa-lib-svn/LUFA/Drivers/USB/Core/../../../Common/Common.h **** 				cli();
 471               		.loc 3 355 0
 472               	/* #APP */
 473               	 ;  355 "lufa-lib-svn/LUFA/Drivers/USB/Core/../../../Common/Common.h" 1
 474 01c8 F894      		cli
 475               	 ;  0 "" 2
 476               		.loc 3 362 0
 477               	.LVL33:
 228:lufa-lib-svn/LUFA/Drivers/USB/Core/DeviceStandardReq.c **** 	USB_Device_GetSerialString(SignatureDescriptor.UnicodeString);
 478               		.loc 1 228 0
 479               	/* #NOAPP */
 480 01ca DE01      		movw r26,r28
 481 01cc 1396      		adiw r26,3
 217:lufa-lib-svn/LUFA/Drivers/USB/Core/AVR8/../AVR8/Device_AVR8.h **** 			}
 218:lufa-lib-svn/LUFA/Drivers/USB/Core/AVR8/../AVR8/Device_AVR8.h **** 
 219:lufa-lib-svn/LUFA/Drivers/USB/Core/AVR8/../AVR8/Device_AVR8.h **** 			static inline bool USB_Device_IsAddressSet(void) ATTR_ALWAYS_INLINE ATTR_WARN_UNUSED_RESULT;
 220:lufa-lib-svn/LUFA/Drivers/USB/Core/AVR8/../AVR8/Device_AVR8.h **** 			static inline bool USB_Device_IsAddressSet(void)
 221:lufa-lib-svn/LUFA/Drivers/USB/Core/AVR8/../AVR8/Device_AVR8.h **** 			{
 222:lufa-lib-svn/LUFA/Drivers/USB/Core/AVR8/../AVR8/Device_AVR8.h **** 				return (UDADDR & (1 << ADDEN));
 223:lufa-lib-svn/LUFA/Drivers/USB/Core/AVR8/../AVR8/Device_AVR8.h **** 			}
 224:lufa-lib-svn/LUFA/Drivers/USB/Core/AVR8/../AVR8/Device_AVR8.h **** 
 225:lufa-lib-svn/LUFA/Drivers/USB/Core/AVR8/../AVR8/Device_AVR8.h **** 			#if (USE_INTERNAL_SERIAL != NO_DESCRIPTOR)
 226:lufa-lib-svn/LUFA/Drivers/USB/Core/AVR8/../AVR8/Device_AVR8.h **** 			static inline void USB_Device_GetSerialString(uint16_t* const UnicodeString) ATTR_NON_NULL_PTR_A
 227:lufa-lib-svn/LUFA/Drivers/USB/Core/AVR8/../AVR8/Device_AVR8.h **** 			static inline void USB_Device_GetSerialString(uint16_t* const UnicodeString)
 228:lufa-lib-svn/LUFA/Drivers/USB/Core/AVR8/../AVR8/Device_AVR8.h **** 			{
 229:lufa-lib-svn/LUFA/Drivers/USB/Core/AVR8/../AVR8/Device_AVR8.h **** 				uint_reg_t CurrentGlobalInt = GetGlobalInterruptMask();
 230:lufa-lib-svn/LUFA/Drivers/USB/Core/AVR8/../AVR8/Device_AVR8.h **** 				GlobalInterruptDisable();
 231:lufa-lib-svn/LUFA/Drivers/USB/Core/AVR8/../AVR8/Device_AVR8.h **** 
 232:lufa-lib-svn/LUFA/Drivers/USB/Core/AVR8/../AVR8/Device_AVR8.h **** 				uint8_t SigReadAddress = INTERNAL_SERIAL_START_ADDRESS;
 233:lufa-lib-svn/LUFA/Drivers/USB/Core/AVR8/../AVR8/Device_AVR8.h **** 
 234:lufa-lib-svn/LUFA/Drivers/USB/Core/AVR8/../AVR8/Device_AVR8.h **** 				for (uint8_t SerialCharNum = 0; SerialCharNum < (INTERNAL_SERIAL_LENGTH_BITS / 4); SerialCharNu
 482               		.loc 4 234 0
 483 01ce 20E0      		ldi r18,0
 232:lufa-lib-svn/LUFA/Drivers/USB/Core/AVR8/../AVR8/Device_AVR8.h **** 				uint8_t SigReadAddress = INTERNAL_SERIAL_START_ADDRESS;
 484               		.loc 4 232 0
 485 01d0 3EE0      		ldi r19,lo8(14)
 486               	.LBE240:
 487               	.LBE239:
 488               	.LBB241:
 489               	.LBB242:
 490               	.LBB243:
 235:lufa-lib-svn/LUFA/Drivers/USB/Core/AVR8/../AVR8/Device_AVR8.h **** 				{
 236:lufa-lib-svn/LUFA/Drivers/USB/Core/AVR8/../AVR8/Device_AVR8.h **** 					uint8_t SerialByte = boot_signature_byte_get(SigReadAddress);
 491               		.loc 4 236 0
 492 01d2 51E2      		ldi r21,lo8(33)
 493               	.LVL34:
 494               	.L28:
 495 01d4 E32F      		mov r30,r19
 496 01d6 F0E0      		ldi r31,0
 497               	/* #APP */
 498               	 ;  236 "lufa-lib-svn/LUFA/Drivers/USB/Core/AVR8/../AVR8/Device_AVR8.h" 1
 499 01d8 5093 5700 		sts 87, r21
 500 01dc E491      		lpm r30, Z
 501               		
 502               	 ;  0 "" 2
 503               	.LVL35:
 504               	/* #NOAPP */
 505               	.LBE243:
 237:lufa-lib-svn/LUFA/Drivers/USB/Core/AVR8/../AVR8/Device_AVR8.h **** 
 238:lufa-lib-svn/LUFA/Drivers/USB/Core/AVR8/../AVR8/Device_AVR8.h **** 					if (SerialCharNum & 0x01)
 506               		.loc 4 238 0
 507 01de 20FF      		sbrs r18,0
 508 01e0 00C0      		rjmp .L25
 239:lufa-lib-svn/LUFA/Drivers/USB/Core/AVR8/../AVR8/Device_AVR8.h **** 					{
 240:lufa-lib-svn/LUFA/Drivers/USB/Core/AVR8/../AVR8/Device_AVR8.h **** 						SerialByte >>= 4;
 509               		.loc 4 240 0
 510 01e2 E295      		swap r30
 511               	.LVL36:
 512 01e4 EF70      		andi r30,lo8(15)
 513               	.LVL37:
 241:lufa-lib-svn/LUFA/Drivers/USB/Core/AVR8/../AVR8/Device_AVR8.h **** 						SigReadAddress++;
 514               		.loc 4 241 0
 515 01e6 3F5F      		subi r19,lo8(-(1))
 516               	.LVL38:
 517               	.L25:
 242:lufa-lib-svn/LUFA/Drivers/USB/Core/AVR8/../AVR8/Device_AVR8.h **** 					}
 243:lufa-lib-svn/LUFA/Drivers/USB/Core/AVR8/../AVR8/Device_AVR8.h **** 
 244:lufa-lib-svn/LUFA/Drivers/USB/Core/AVR8/../AVR8/Device_AVR8.h **** 					SerialByte &= 0x0F;
 518               		.loc 4 244 0
 519 01e8 EF70      		andi r30,lo8(15)
 520               	.LVL39:
 521 01ea 8E2F      		mov r24,r30
 522 01ec 90E0      		ldi r25,0
 245:lufa-lib-svn/LUFA/Drivers/USB/Core/AVR8/../AVR8/Device_AVR8.h **** 
 246:lufa-lib-svn/LUFA/Drivers/USB/Core/AVR8/../AVR8/Device_AVR8.h **** 					UnicodeString[SerialCharNum] = cpu_to_le16((SerialByte >= 10) ?
 523               		.loc 4 246 0
 524 01ee EA30      		cpi r30,lo8(10)
 525 01f0 00F0      		brlo .L26
 526 01f2 C796      		adiw r24,55
 527 01f4 00C0      		rjmp .L27
 528               	.LVL40:
 529               	.L26:
 530 01f6 C096      		adiw r24,48
 531               	.LVL41:
 532               	.L27:
 533 01f8 8D93      		st X+,r24
 534 01fa 9D93      		st X+,r25
 535               	.LBE242:
 234:lufa-lib-svn/LUFA/Drivers/USB/Core/AVR8/../AVR8/Device_AVR8.h **** 				for (uint8_t SerialCharNum = 0; SerialCharNum < (INTERNAL_SERIAL_LENGTH_BITS / 4); SerialCharNu
 536               		.loc 4 234 0
 537 01fc 2F5F      		subi r18,lo8(-(1))
 538               	.LVL42:
 539 01fe 2431      		cpi r18,lo8(20)
 540 0200 01F4      		brne .L28
 541               	.LVL43:
 542               	.LBE241:
 543               	.LBB244:
 544               	.LBB245:
 309:lufa-lib-svn/LUFA/Drivers/USB/Core/../../../Common/Common.h **** 				GCC_MEMORY_BARRIER();
 545               		.loc 3 309 0
 312:lufa-lib-svn/LUFA/Drivers/USB/Core/../../../Common/Common.h **** 				SREG = GlobalIntState;
 546               		.loc 3 312 0
 547 0202 4FBF      		out __SREG__,r20
 322:lufa-lib-svn/LUFA/Drivers/USB/Core/../../../Common/Common.h **** 				GCC_MEMORY_BARRIER();
 548               		.loc 3 322 0
 549               	.LBE245:
 550               	.LBE244:
 551               	.LBE236:
 552               	.LBE235:
 553               	.LBB246:
 554               	.LBB247:
 508:lufa-lib-svn/LUFA/Drivers/USB/Core/AVR8/../AVR8/Endpoint_AVR8.h **** 				UEINTX &= ~(1 << RXSTPI);
 555               		.loc 2 508 0
 556 0204 8091 E800 		lds r24,232
 557 0208 877F      		andi r24,lo8(-9)
 558 020a 8093 E800 		sts 232,r24
 559               	.LBE247:
 560               	.LBE246:
 232:lufa-lib-svn/LUFA/Drivers/USB/Core/DeviceStandardReq.c **** 	Endpoint_Write_Control_Stream_LE(&SignatureDescriptor, sizeof(SignatureDescriptor));
 561               		.loc 1 232 0
 562 020e 6AE2      		ldi r22,lo8(42)
 563 0210 70E0      		ldi r23,0
 564 0212 CE01      		movw r24,r28
 565 0214 0196      		adiw r24,1
 566 0216 0E94 0000 		call Endpoint_Write_Control_Stream_LE
 567               	.LVL44:
 568 021a 00C0      		rjmp .L77
 569               	.LVL45:
 570               	.L24:
 571               	.LBE234:
 572               	.LBE233:
 255:lufa-lib-svn/LUFA/Drivers/USB/Core/DeviceStandardReq.c **** 	if ((DescriptorSize = CALLBACK_USB_GetDescriptor(USB_ControlRequest.wValue, USB_ControlRequest.wIn
 573               		.loc 1 255 0
 574 021c AE01      		movw r20,r28
 575 021e 455D      		subi r20,-43
 576 0220 5F4F      		sbci r21,-1
 577 0222 6091 0000 		lds r22,USB_ControlRequest+4
 578 0226 0E94 0000 		call CALLBACK_USB_GetDescriptor
 579               	.LVL46:
 580 022a 0097      		sbiw r24,0
 581 022c 01F0      		breq .L3
 582               	.LBB248:
 583               	.LBB249:
 508:lufa-lib-svn/LUFA/Drivers/USB/Core/AVR8/../AVR8/Endpoint_AVR8.h **** 				UEINTX &= ~(1 << RXSTPI);
 584               		.loc 2 508 0
 585 022e 2091 E800 		lds r18,232
 586 0232 277F      		andi r18,lo8(-9)
 587 0234 2093 E800 		sts 232,r18
 588               	.LBE249:
 589               	.LBE248:
 273:lufa-lib-svn/LUFA/Drivers/USB/Core/DeviceStandardReq.c **** 	Endpoint_Write_Control_PStream_LE(DescriptorPointer, DescriptorSize);
 590               		.loc 1 273 0
 591 0238 BC01      		movw r22,r24
 592               	.LVL47:
 593 023a 8BA5      		ldd r24,Y+43
 594 023c 9CA5      		ldd r25,Y+44
 595               	.LVL48:
 596 023e 0E94 0000 		call Endpoint_Write_Control_PStream_LE
 597               	.LVL49:
 598               	.L77:
 599               	.LBB250:
 600               	.LBB251:
 535:lufa-lib-svn/LUFA/Drivers/USB/Core/AVR8/../AVR8/Endpoint_AVR8.h **** 					UEINTX &= ~((1 << RXOUTI) | (1 << FIFOCON));
 601               		.loc 2 535 0
 602 0242 8091 E800 		lds r24,232
 603 0246 8B77      		andi r24,lo8(123)
 604 0248 8093 E800 		sts 232,r24
 605 024c 00C0      		rjmp .L3
 606               	.LVL50:
 607               	.L8:
 608               	.LBE251:
 609               	.LBE250:
 610               	.LBE232:
 611               	.LBE231:
 103:lufa-lib-svn/LUFA/Drivers/USB/Core/DeviceStandardReq.c **** 				if (bmRequestType == (REQDIR_DEVICETOHOST | REQTYPE_STANDARD | REQREC_DEVICE))
 612               		.loc 1 103 0
 613 024e 8038      		cpi r24,lo8(-128)
 614 0250 01F4      		brne .L3
 615               	.LBB252:
 616               	.LBB253:
 617               	.LBB254:
 618               	.LBB255:
 508:lufa-lib-svn/LUFA/Drivers/USB/Core/AVR8/../AVR8/Endpoint_AVR8.h **** 				UEINTX &= ~(1 << RXSTPI);
 619               		.loc 2 508 0
 620 0252 8091 E800 		lds r24,232
 621               	.LVL51:
 622 0256 877F      		andi r24,lo8(-9)
 623 0258 8093 E800 		sts 232,r24
 624               	.LBE255:
 625               	.LBE254:
 210:lufa-lib-svn/LUFA/Drivers/USB/Core/DeviceStandardReq.c **** 	Endpoint_Write_8(USB_Device_ConfigurationNumber);
 626               		.loc 1 210 0
 627 025c 8091 0000 		lds r24,USB_Device_ConfigurationNumber
 628               	.LVL52:
 629               	.LBB256:
 630               	.LBB257:
 628:lufa-lib-svn/LUFA/Drivers/USB/Core/AVR8/../AVR8/Endpoint_AVR8.h **** 				UEDATX = Data;
 631               		.loc 2 628 0
 632 0260 8093 F100 		sts 241,r24
 633               	.LVL53:
 634               	.L78:
 635               	.LBE257:
 636               	.LBE256:
 637               	.LBB258:
 638               	.LBB259:
 520:lufa-lib-svn/LUFA/Drivers/USB/Core/AVR8/../AVR8/Endpoint_AVR8.h **** 					UEINTX &= ~((1 << TXINI) | (1 << FIFOCON));
 639               		.loc 2 520 0
 640 0264 8091 E800 		lds r24,232
 641 0268 8E77      		andi r24,lo8(126)
 642 026a 00C0      		rjmp .L76
 643               	.LVL54:
 644               	.L9:
 645               	.LBE259:
 646               	.LBE258:
 647               	.LBE253:
 648               	.LBE252:
 108:lufa-lib-svn/LUFA/Drivers/USB/Core/DeviceStandardReq.c **** 				if (bmRequestType == (REQDIR_HOSTTODEVICE | REQTYPE_STANDARD | REQREC_DEVICE))
 649               		.loc 1 108 0
 650 026c 8111      		cpse r24,__zero_reg__
 651 026e 00C0      		rjmp .L3
 652               	.LBB260:
 653               	.LBB261:
 143:lufa-lib-svn/LUFA/Drivers/USB/Core/DeviceStandardReq.c **** 	if ((uint8_t)USB_ControlRequest.wValue > FIXED_NUM_CONFIGURATIONS)
 654               		.loc 1 143 0
 655 0270 9091 0000 		lds r25,USB_ControlRequest+2
 656 0274 9230      		cpi r25,lo8(2)
 657 0276 00F4      		brsh .L3
 658               	.LBB262:
 659               	.LBB263:
 508:lufa-lib-svn/LUFA/Drivers/USB/Core/AVR8/../AVR8/Endpoint_AVR8.h **** 				UEINTX &= ~(1 << RXSTPI);
 660               		.loc 2 508 0
 661 0278 8091 E800 		lds r24,232
 662               	.LVL55:
 663 027c 877F      		andi r24,lo8(-9)
 664 027e 8093 E800 		sts 232,r24
 665               	.LBE263:
 666               	.LBE262:
 194:lufa-lib-svn/LUFA/Drivers/USB/Core/DeviceStandardReq.c **** 	USB_Device_ConfigurationNumber = (uint8_t)USB_ControlRequest.wValue;
 667               		.loc 1 194 0
 668 0282 9093 0000 		sts USB_Device_ConfigurationNumber,r25
 196:lufa-lib-svn/LUFA/Drivers/USB/Core/DeviceStandardReq.c **** 	Endpoint_ClearStatusStage();
 669               		.loc 1 196 0
 670 0286 0E94 0000 		call Endpoint_ClearStatusStage
 671               	.LVL56:
 198:lufa-lib-svn/LUFA/Drivers/USB/Core/DeviceStandardReq.c **** 	if (USB_Device_ConfigurationNumber)
 672               		.loc 1 198 0
 673 028a 8091 0000 		lds r24,USB_Device_ConfigurationNumber
 674 028e 8111      		cpse r24,__zero_reg__
 675 0290 00C0      		rjmp .L79
 676               	.L30:
 677               	.LBB264:
 678               	.LBB265:
 222:lufa-lib-svn/LUFA/Drivers/USB/Core/AVR8/../AVR8/Device_AVR8.h **** 				return (UDADDR & (1 << ADDEN));
 679               		.loc 4 222 0
 680 0292 8091 E300 		lds r24,227
 681               	.LBE265:
 682               	.LBE264:
 201:lufa-lib-svn/LUFA/Drivers/USB/Core/DeviceStandardReq.c **** 	  USB_DeviceState = (USB_Device_IsAddressSet()) ? DEVICE_STATE_Configured : DEVICE_STATE_Powered;
 683               		.loc 1 201 0
 684 0296 87FF      		sbrs r24,7
 685 0298 00C0      		rjmp .L35
 686               	.L79:
 687 029a 84E0      		ldi r24,lo8(4)
 688 029c 00C0      		rjmp .L32
 689               	.L35:
 690 029e 81E0      		ldi r24,lo8(1)
 691               	.L32:
 692 02a0 8EBB      		out 0x1e,r24
 203:lufa-lib-svn/LUFA/Drivers/USB/Core/DeviceStandardReq.c **** 	EVENT_USB_Device_ConfigurationChanged();
 693               		.loc 1 203 0
 694 02a2 0E94 0000 		call EVENT_USB_Device_ConfigurationChanged
 695               	.LVL57:
 696               	.L3:
 697               	.LBE261:
 698               	.LBE260:
 699               	.LBE183:
 700               	.LBB266:
 701               	.LBB267:
 495:lufa-lib-svn/LUFA/Drivers/USB/Core/AVR8/../AVR8/Endpoint_AVR8.h **** 				return ((UEINTX & (1 << RXSTPI)) ? true : false);
 702               		.loc 2 495 0
 703 02a6 8091 E800 		lds r24,232
 704               	.LBE267:
 705               	.LBE266:
 115:lufa-lib-svn/LUFA/Drivers/USB/Core/DeviceStandardReq.c **** 	if (Endpoint_IsSETUPReceived())
 706               		.loc 1 115 0
 707 02aa 83FF      		sbrs r24,3
 708 02ac 00C0      		rjmp .L1
 709               	.LBB268:
 710               	.LBB269:
 555:lufa-lib-svn/LUFA/Drivers/USB/Core/AVR8/../AVR8/Endpoint_AVR8.h **** 				UECONX |= (1 << STALLRQ);
 711               		.loc 2 555 0
 712 02ae 8091 EB00 		lds r24,235
 713 02b2 8062      		ori r24,lo8(32)
 714 02b4 8093 EB00 		sts 235,r24
 715               	.LBE269:
 716               	.LBE268:
 717               	.LBB270:
 718               	.LBB271:
 508:lufa-lib-svn/LUFA/Drivers/USB/Core/AVR8/../AVR8/Endpoint_AVR8.h **** 				UEINTX &= ~(1 << RXSTPI);
 719               		.loc 2 508 0
 720 02b8 8091 E800 		lds r24,232
 721 02bc 877F      		andi r24,lo8(-9)
 722 02be 8093 E800 		sts 232,r24
 723               	.L1:
 724               	/* epilogue start */
 725               	.LBE271:
 726               	.LBE270:
 120:lufa-lib-svn/LUFA/Drivers/USB/Core/DeviceStandardReq.c **** }
 727               		.loc 1 120 0
 728 02c2 AC96      		adiw r28,44
 729 02c4 0FB6      		in __tmp_reg__,__SREG__
 730 02c6 F894      		cli
 731 02c8 DEBF      		out __SP_H__,r29
 732 02ca 0FBE      		out __SREG__,__tmp_reg__
 733 02cc CDBF      		out __SP_L__,r28
 734 02ce DF91      		pop r29
 735 02d0 CF91      		pop r28
 736 02d2 1F91      		pop r17
 737 02d4 0F91      		pop r16
 738 02d6 FF90      		pop r15
 739 02d8 EF90      		pop r14
 740 02da 0895      		ret
 741               		.cfi_endproc
 742               	.LFE84:
 744               		.comm	USB_Device_RemoteWakeupEnabled,1,1
 745               		.comm	USB_Device_CurrentlySelfPowered,1,1
 746               		.comm	USB_Device_ConfigurationNumber,1,1
 747               		.text
 748               	.Letext0:
 749               		.file 5 "/usr/lib/gcc/avr/4.7.0/../../../../avr/include/stdint.h"
 750               		.file 6 "lufa-lib-svn/LUFA/Drivers/USB/Core/StdDescriptors.h"
 751               		.file 7 "lufa-lib-svn/LUFA/Drivers/USB/Core/StdRequestType.h"
 752               		.file 8 "lufa-lib-svn/LUFA/Drivers/USB/Core/AVR8/../Device.h"
 753               		.file 9 "lufa-lib-svn/LUFA/Drivers/USB/Core/USBTask.h"
 754               		.file 10 "lufa-lib-svn/LUFA/Drivers/USB/Core/AVR8/../AVR8/EndpointStream_AVR8.h"
 755               		.file 11 "lufa-lib-svn/LUFA/Drivers/USB/Core/Events.h"